
FinalProject.elf:     file format elf32-littlearm

Sections:
Idx Name          Size      VMA       LMA       File off  Algn
  0 .isr_vector   00000298  08000000  08000000  00010000  2**0
                  CONTENTS, ALLOC, LOAD, READONLY, DATA
  1 .text         00004a50  08000298  08000298  00010298  2**2
                  CONTENTS, ALLOC, LOAD, READONLY, CODE
  2 .rodata       00000024  08004ce8  08004ce8  00014ce8  2**2
                  CONTENTS, ALLOC, LOAD, READONLY, DATA
  3 .init_array   00000004  08004d0c  08004d0c  00014d0c  2**2
                  CONTENTS, ALLOC, LOAD, DATA
  4 .fini_array   00000004  08004d10  08004d10  00014d10  2**2
                  CONTENTS, ALLOC, LOAD, DATA
  5 .data         000040d8  24000000  08004d14  00020000  2**2
                  CONTENTS, ALLOC, LOAD, DATA
  6 .bss          00000230  240040d8  08008dec  000240d8  2**2
                  ALLOC
  7 ._user_heap_stack 00000600  24004308  08008dec  00024308  2**0
                  ALLOC
  8 .ARM.attributes 0000002e  00000000  00000000  000240d8  2**0
                  CONTENTS, READONLY
  9 .comment      00000053  00000000  00000000  00024106  2**0
                  CONTENTS, READONLY
 10 .debug_frame  00000074  00000000  00000000  0002415c  2**2
                  CONTENTS, READONLY, DEBUGGING, OCTETS

Disassembly of section .text:

08000298 <__do_global_dtors_aux>:
 8000298:	b510      	push	{r4, lr}
 800029a:	4c05      	ldr	r4, [pc, #20]	; (80002b0 <__do_global_dtors_aux+0x18>)
 800029c:	7823      	ldrb	r3, [r4, #0]
 800029e:	b933      	cbnz	r3, 80002ae <__do_global_dtors_aux+0x16>
 80002a0:	4b04      	ldr	r3, [pc, #16]	; (80002b4 <__do_global_dtors_aux+0x1c>)
 80002a2:	b113      	cbz	r3, 80002aa <__do_global_dtors_aux+0x12>
 80002a4:	4804      	ldr	r0, [pc, #16]	; (80002b8 <__do_global_dtors_aux+0x20>)
 80002a6:	f3af 8000 	nop.w
 80002aa:	2301      	movs	r3, #1
 80002ac:	7023      	strb	r3, [r4, #0]
 80002ae:	bd10      	pop	{r4, pc}
 80002b0:	240040d8 	.word	0x240040d8
 80002b4:	00000000 	.word	0x00000000
 80002b8:	08004cd0 	.word	0x08004cd0

080002bc <frame_dummy>:
 80002bc:	b508      	push	{r3, lr}
 80002be:	4b03      	ldr	r3, [pc, #12]	; (80002cc <frame_dummy+0x10>)
 80002c0:	b11b      	cbz	r3, 80002ca <frame_dummy+0xe>
 80002c2:	4903      	ldr	r1, [pc, #12]	; (80002d0 <frame_dummy+0x14>)
 80002c4:	4803      	ldr	r0, [pc, #12]	; (80002d4 <frame_dummy+0x18>)
 80002c6:	f3af 8000 	nop.w
 80002ca:	bd08      	pop	{r3, pc}
 80002cc:	00000000 	.word	0x00000000
 80002d0:	240040dc 	.word	0x240040dc
 80002d4:	08004cd0 	.word	0x08004cd0

080002d8 <MX_ADC1_Init>:
 80002d8:	2300      	movs	r3, #0
 80002da:	4825      	ldr	r0, [pc, #148]	; (8000370 <MX_ADC1_Init+0x98>)
 80002dc:	2104      	movs	r1, #4
 80002de:	2201      	movs	r2, #1
 80002e0:	b5f0      	push	{r4, r5, r6, r7, lr}
 80002e2:	4c24      	ldr	r4, [pc, #144]	; (8000374 <MX_ADC1_Init+0x9c>)
 80002e4:	b08d      	sub	sp, #52	; 0x34
 80002e6:	8283      	strh	r3, [r0, #20]
 80002e8:	6004      	str	r4, [r0, #0]
 80002ea:	6101      	str	r1, [r0, #16]
 80002ec:	6182      	str	r2, [r0, #24]
 80002ee:	6043      	str	r3, [r0, #4]
 80002f0:	9301      	str	r3, [sp, #4]
 80002f2:	9304      	str	r3, [sp, #16]
 80002f4:	7703      	strb	r3, [r0, #28]
 80002f6:	6343      	str	r3, [r0, #52]	; 0x34
 80002f8:	f880 3038 	strb.w	r3, [r0, #56]	; 0x38
 80002fc:	e9c0 3302 	strd	r3, r3, [r0, #8]
 8000300:	e9c0 3309 	strd	r3, r3, [r0, #36]	; 0x24
 8000304:	e9c0 330b 	strd	r3, r3, [r0, #44]	; 0x2c
 8000308:	e9cd 3302 	strd	r3, r3, [sp, #8]
 800030c:	e9cd 3305 	strd	r3, r3, [sp, #20]
 8000310:	e9cd 3307 	strd	r3, r3, [sp, #28]
 8000314:	e9cd 3309 	strd	r3, r3, [sp, #36]	; 0x24
 8000318:	f001 fea8 	bl	800206c <HAL_ADC_Init>
 800031c:	b9e8      	cbnz	r0, 800035a <MX_ADC1_Init+0x82>
 800031e:	2300      	movs	r3, #0
 8000320:	a901      	add	r1, sp, #4
 8000322:	4813      	ldr	r0, [pc, #76]	; (8000370 <MX_ADC1_Init+0x98>)
 8000324:	9301      	str	r3, [sp, #4]
 8000326:	f001 ffad 	bl	8002284 <HAL_ADCEx_MultiModeConfigChannel>
 800032a:	b9e8      	cbnz	r0, 8000368 <MX_ADC1_Init+0x90>
 800032c:	2000      	movs	r0, #0
 800032e:	4e12      	ldr	r6, [pc, #72]	; (8000378 <MX_ADC1_Init+0xa0>)
 8000330:	2706      	movs	r7, #6
 8000332:	2400      	movs	r4, #0
 8000334:	f240 75ff 	movw	r5, #2047	; 0x7ff
 8000338:	2204      	movs	r2, #4
 800033a:	2300      	movs	r3, #0
 800033c:	f88d 0029 	strb.w	r0, [sp, #41]	; 0x29
 8000340:	a904      	add	r1, sp, #16
 8000342:	480b      	ldr	r0, [pc, #44]	; (8000370 <MX_ADC1_Init+0x98>)
 8000344:	e9cd 6704 	strd	r6, r7, [sp, #16]
 8000348:	e9cd 4506 	strd	r4, r5, [sp, #24]
 800034c:	e9cd 2308 	strd	r2, r3, [sp, #32]
 8000350:	f001 f9e8 	bl	8001724 <HAL_ADC_ConfigChannel>
 8000354:	b920      	cbnz	r0, 8000360 <MX_ADC1_Init+0x88>
 8000356:	b00d      	add	sp, #52	; 0x34
 8000358:	bdf0      	pop	{r4, r5, r6, r7, pc}
 800035a:	f000 ffd5 	bl	8001308 <Error_Handler>
 800035e:	e7de      	b.n	800031e <MX_ADC1_Init+0x46>
 8000360:	f000 ffd2 	bl	8001308 <Error_Handler>
 8000364:	b00d      	add	sp, #52	; 0x34
 8000366:	bdf0      	pop	{r4, r5, r6, r7, pc}
 8000368:	f000 ffce 	bl	8001308 <Error_Handler>
 800036c:	e7de      	b.n	800032c <MX_ADC1_Init+0x54>
 800036e:	bf00      	nop
 8000370:	24004200 	.word	0x24004200
 8000374:	40022000 	.word	0x40022000
 8000378:	0c900008 	.word	0x0c900008

0800037c <HAL_ADC_MspInit>:
 800037c:	b5f0      	push	{r4, r5, r6, r7, lr}
 800037e:	2400      	movs	r4, #0
 8000380:	b0b9      	sub	sp, #228	; 0xe4
 8000382:	4605      	mov	r5, r0
 8000384:	22bc      	movs	r2, #188	; 0xbc
 8000386:	4621      	mov	r1, r4
 8000388:	a808      	add	r0, sp, #32
 800038a:	9406      	str	r4, [sp, #24]
 800038c:	e9cd 4402 	strd	r4, r4, [sp, #8]
 8000390:	e9cd 4404 	strd	r4, r4, [sp, #16]
 8000394:	f004 fc94 	bl	8004cc0 <memset>
 8000398:	682a      	ldr	r2, [r5, #0]
 800039a:	4b23      	ldr	r3, [pc, #140]	; (8000428 <HAL_ADC_MspInit+0xac>)
 800039c:	429a      	cmp	r2, r3
 800039e:	d001      	beq.n	80003a4 <HAL_ADC_MspInit+0x28>
 80003a0:	b039      	add	sp, #228	; 0xe4
 80003a2:	bdf0      	pop	{r4, r5, r6, r7, pc}
 80003a4:	2209      	movs	r2, #9
 80003a6:	2304      	movs	r3, #4
 80003a8:	f44f 2600 	mov.w	r6, #524288	; 0x80000
 80003ac:	2704      	movs	r7, #4
 80003ae:	f44f 6140 	mov.w	r1, #3072	; 0xc00
 80003b2:	2502      	movs	r5, #2
 80003b4:	9430      	str	r4, [sp, #192]	; 0xc0
 80003b6:	2402      	movs	r4, #2
 80003b8:	a808      	add	r0, sp, #32
 80003ba:	9110      	str	r1, [sp, #64]	; 0x40
 80003bc:	e9cd 230a 	strd	r2, r3, [sp, #40]	; 0x28
 80003c0:	22c0      	movs	r2, #192	; 0xc0
 80003c2:	2320      	movs	r3, #32
 80003c4:	e9cd 6708 	strd	r6, r7, [sp, #32]
 80003c8:	e9cd 450c 	strd	r4, r5, [sp, #48]	; 0x30
 80003cc:	e9cd 230e 	strd	r2, r3, [sp, #56]	; 0x38
 80003d0:	f003 f998 	bl	8003704 <HAL_RCCEx_PeriphCLKConfig>
 80003d4:	bb20      	cbnz	r0, 8000420 <HAL_ADC_MspInit+0xa4>
 80003d6:	4b15      	ldr	r3, [pc, #84]	; (800042c <HAL_ADC_MspInit+0xb0>)
 80003d8:	2440      	movs	r4, #64	; 0x40
 80003da:	2503      	movs	r5, #3
 80003dc:	a902      	add	r1, sp, #8
 80003de:	f8d3 20d8 	ldr.w	r2, [r3, #216]	; 0xd8
 80003e2:	2600      	movs	r6, #0
 80003e4:	4812      	ldr	r0, [pc, #72]	; (8000430 <HAL_ADC_MspInit+0xb4>)
 80003e6:	f042 0220 	orr.w	r2, r2, #32
 80003ea:	f8c3 20d8 	str.w	r2, [r3, #216]	; 0xd8
 80003ee:	f8d3 20d8 	ldr.w	r2, [r3, #216]	; 0xd8
 80003f2:	f002 0220 	and.w	r2, r2, #32
 80003f6:	9200      	str	r2, [sp, #0]
 80003f8:	9a00      	ldr	r2, [sp, #0]
 80003fa:	f8d3 20e0 	ldr.w	r2, [r3, #224]	; 0xe0
 80003fe:	f042 0201 	orr.w	r2, r2, #1
 8000402:	f8c3 20e0 	str.w	r2, [r3, #224]	; 0xe0
 8000406:	f8d3 30e0 	ldr.w	r3, [r3, #224]	; 0xe0
 800040a:	9604      	str	r6, [sp, #16]
 800040c:	f003 0301 	and.w	r3, r3, #1
 8000410:	9301      	str	r3, [sp, #4]
 8000412:	9b01      	ldr	r3, [sp, #4]
 8000414:	e9cd 4502 	strd	r4, r5, [sp, #8]
 8000418:	f002 f810 	bl	800243c <HAL_GPIO_Init>
 800041c:	b039      	add	sp, #228	; 0xe4
 800041e:	bdf0      	pop	{r4, r5, r6, r7, pc}
 8000420:	f000 ff72 	bl	8001308 <Error_Handler>
 8000424:	e7d7      	b.n	80003d6 <HAL_ADC_MspInit+0x5a>
 8000426:	bf00      	nop
 8000428:	40022000 	.word	0x40022000
 800042c:	58024400 	.word	0x58024400
 8000430:	58020000 	.word	0x58020000

08000434 <lcd_data>:
 8000434:	f010 0201 	ands.w	r2, r0, #1
 8000438:	b510      	push	{r4, lr}
 800043a:	4604      	mov	r4, r0
 800043c:	d043      	beq.n	80004c6 <lcd_data+0x92>
 800043e:	2201      	movs	r2, #1
 8000440:	4827      	ldr	r0, [pc, #156]	; (80004e0 <lcd_data+0xac>)
 8000442:	4611      	mov	r1, r2
 8000444:	f002 f93a 	bl	80026bc <HAL_GPIO_WritePin>
 8000448:	f014 0202 	ands.w	r2, r4, #2
 800044c:	f04f 0102 	mov.w	r1, #2
 8000450:	4823      	ldr	r0, [pc, #140]	; (80004e0 <lcd_data+0xac>)
 8000452:	bf18      	it	ne
 8000454:	2201      	movne	r2, #1
 8000456:	f002 f931 	bl	80026bc <HAL_GPIO_WritePin>
 800045a:	f014 0204 	ands.w	r2, r4, #4
 800045e:	f04f 0104 	mov.w	r1, #4
 8000462:	481f      	ldr	r0, [pc, #124]	; (80004e0 <lcd_data+0xac>)
 8000464:	bf18      	it	ne
 8000466:	2201      	movne	r2, #1
 8000468:	f002 f928 	bl	80026bc <HAL_GPIO_WritePin>
 800046c:	f014 0208 	ands.w	r2, r4, #8
 8000470:	f04f 0108 	mov.w	r1, #8
 8000474:	481a      	ldr	r0, [pc, #104]	; (80004e0 <lcd_data+0xac>)
 8000476:	bf18      	it	ne
 8000478:	2201      	movne	r2, #1
 800047a:	f002 f91f 	bl	80026bc <HAL_GPIO_WritePin>
 800047e:	f014 0210 	ands.w	r2, r4, #16
 8000482:	f04f 0110 	mov.w	r1, #16
 8000486:	4816      	ldr	r0, [pc, #88]	; (80004e0 <lcd_data+0xac>)
 8000488:	bf18      	it	ne
 800048a:	2201      	movne	r2, #1
 800048c:	f002 f916 	bl	80026bc <HAL_GPIO_WritePin>
 8000490:	f014 0220 	ands.w	r2, r4, #32
 8000494:	f04f 0120 	mov.w	r1, #32
 8000498:	4811      	ldr	r0, [pc, #68]	; (80004e0 <lcd_data+0xac>)
 800049a:	bf18      	it	ne
 800049c:	2201      	movne	r2, #1
 800049e:	f002 f90d 	bl	80026bc <HAL_GPIO_WritePin>
 80004a2:	f014 0240 	ands.w	r2, r4, #64	; 0x40
 80004a6:	f04f 0140 	mov.w	r1, #64	; 0x40
 80004aa:	480d      	ldr	r0, [pc, #52]	; (80004e0 <lcd_data+0xac>)
 80004ac:	bf18      	it	ne
 80004ae:	2201      	movne	r2, #1
 80004b0:	f002 f904 	bl	80026bc <HAL_GPIO_WritePin>
 80004b4:	0623      	lsls	r3, r4, #24
 80004b6:	d40b      	bmi.n	80004d0 <lcd_data+0x9c>
 80004b8:	2200      	movs	r2, #0
 80004ba:	2180      	movs	r1, #128	; 0x80
 80004bc:	4808      	ldr	r0, [pc, #32]	; (80004e0 <lcd_data+0xac>)
 80004be:	e8bd 4010 	ldmia.w	sp!, {r4, lr}
 80004c2:	f002 b8fb 	b.w	80026bc <HAL_GPIO_WritePin>
 80004c6:	2101      	movs	r1, #1
 80004c8:	4805      	ldr	r0, [pc, #20]	; (80004e0 <lcd_data+0xac>)
 80004ca:	f002 f8f7 	bl	80026bc <HAL_GPIO_WritePin>
 80004ce:	e7bb      	b.n	8000448 <lcd_data+0x14>
 80004d0:	2201      	movs	r2, #1
 80004d2:	2180      	movs	r1, #128	; 0x80
 80004d4:	4802      	ldr	r0, [pc, #8]	; (80004e0 <lcd_data+0xac>)
 80004d6:	e8bd 4010 	ldmia.w	sp!, {r4, lr}
 80004da:	f002 b8ef 	b.w	80026bc <HAL_GPIO_WritePin>
 80004de:	bf00      	nop
 80004e0:	58020c00 	.word	0x58020c00

080004e4 <lcd_config>:
 80004e4:	b538      	push	{r3, r4, r5, lr}
 80004e6:	4c18      	ldr	r4, [pc, #96]	; (8000548 <lcd_config+0x64>)
 80004e8:	4605      	mov	r5, r0
 80004ea:	2200      	movs	r2, #0
 80004ec:	2101      	movs	r1, #1
 80004ee:	4620      	mov	r0, r4
 80004f0:	f002 f8e4 	bl	80026bc <HAL_GPIO_WritePin>
 80004f4:	4628      	mov	r0, r5
 80004f6:	f7ff ff9d 	bl	8000434 <lcd_data>
 80004fa:	4620      	mov	r0, r4
 80004fc:	2200      	movs	r2, #0
 80004fe:	2102      	movs	r1, #2
 8000500:	f002 f8dc 	bl	80026bc <HAL_GPIO_WritePin>
 8000504:	2001      	movs	r0, #1
 8000506:	f001 f865 	bl	80015d4 <HAL_Delay>
 800050a:	4620      	mov	r0, r4
 800050c:	2201      	movs	r2, #1
 800050e:	2102      	movs	r1, #2
 8000510:	f002 f8d4 	bl	80026bc <HAL_GPIO_WritePin>
 8000514:	2001      	movs	r0, #1
 8000516:	f001 f85d 	bl	80015d4 <HAL_Delay>
 800051a:	4620      	mov	r0, r4
 800051c:	2200      	movs	r2, #0
 800051e:	2102      	movs	r1, #2
 8000520:	f002 f8cc 	bl	80026bc <HAL_GPIO_WritePin>
 8000524:	2001      	movs	r0, #1
 8000526:	f001 f855 	bl	80015d4 <HAL_Delay>
 800052a:	4620      	mov	r0, r4
 800052c:	2200      	movs	r2, #0
 800052e:	2101      	movs	r1, #1
 8000530:	f002 f8c4 	bl	80026bc <HAL_GPIO_WritePin>
 8000534:	4620      	mov	r0, r4
 8000536:	2200      	movs	r2, #0
 8000538:	2102      	movs	r1, #2
 800053a:	f002 f8bf 	bl	80026bc <HAL_GPIO_WritePin>
 800053e:	2000      	movs	r0, #0
 8000540:	e8bd 4038 	ldmia.w	sp!, {r3, r4, r5, lr}
 8000544:	f7ff bf76 	b.w	8000434 <lcd_data>
 8000548:	58021000 	.word	0x58021000

0800054c <lcd_string>:
 800054c:	b5f8      	push	{r3, r4, r5, r6, r7, lr}
 800054e:	4607      	mov	r7, r0
 8000550:	b2d0      	uxtb	r0, r2
 8000552:	b109      	cbz	r1, 8000558 <lcd_string+0xc>
 8000554:	f040 0040 	orr.w	r0, r0, #64	; 0x40
 8000558:	1e7d      	subs	r5, r7, #1
 800055a:	4c1c      	ldr	r4, [pc, #112]	; (80005cc <lcd_string+0x80>)
 800055c:	370f      	adds	r7, #15
 800055e:	f040 0080 	orr.w	r0, r0, #128	; 0x80
 8000562:	f7ff ffbf 	bl	80004e4 <lcd_config>
 8000566:	2201      	movs	r2, #1
 8000568:	f815 6f01 	ldrb.w	r6, [r5, #1]!
 800056c:	4620      	mov	r0, r4
 800056e:	4611      	mov	r1, r2
 8000570:	b35e      	cbz	r6, 80005ca <lcd_string+0x7e>
 8000572:	f002 f8a3 	bl	80026bc <HAL_GPIO_WritePin>
 8000576:	4630      	mov	r0, r6
 8000578:	f7ff ff5c 	bl	8000434 <lcd_data>
 800057c:	2200      	movs	r2, #0
 800057e:	2102      	movs	r1, #2
 8000580:	4620      	mov	r0, r4
 8000582:	f002 f89b 	bl	80026bc <HAL_GPIO_WritePin>
 8000586:	2001      	movs	r0, #1
 8000588:	f001 f824 	bl	80015d4 <HAL_Delay>
 800058c:	2201      	movs	r2, #1
 800058e:	2102      	movs	r1, #2
 8000590:	4620      	mov	r0, r4
 8000592:	f002 f893 	bl	80026bc <HAL_GPIO_WritePin>
 8000596:	2001      	movs	r0, #1
 8000598:	f001 f81c 	bl	80015d4 <HAL_Delay>
 800059c:	2200      	movs	r2, #0
 800059e:	2102      	movs	r1, #2
 80005a0:	4620      	mov	r0, r4
 80005a2:	f002 f88b 	bl	80026bc <HAL_GPIO_WritePin>
 80005a6:	2001      	movs	r0, #1
 80005a8:	f001 f814 	bl	80015d4 <HAL_Delay>
 80005ac:	2200      	movs	r2, #0
 80005ae:	2101      	movs	r1, #1
 80005b0:	4620      	mov	r0, r4
 80005b2:	f002 f883 	bl	80026bc <HAL_GPIO_WritePin>
 80005b6:	2200      	movs	r2, #0
 80005b8:	2102      	movs	r1, #2
 80005ba:	4620      	mov	r0, r4
 80005bc:	f002 f87e 	bl	80026bc <HAL_GPIO_WritePin>
 80005c0:	2000      	movs	r0, #0
 80005c2:	f7ff ff37 	bl	8000434 <lcd_data>
 80005c6:	42bd      	cmp	r5, r7
 80005c8:	d1cd      	bne.n	8000566 <lcd_string+0x1a>
 80005ca:	bdf8      	pop	{r3, r4, r5, r6, r7, pc}
 80005cc:	58021000 	.word	0x58021000

080005d0 <lcd_number.constprop.0>:
 80005d0:	b538      	push	{r3, r4, r5, lr}
 80005d2:	4604      	mov	r4, r0
 80005d4:	20c6      	movs	r0, #198	; 0xc6
 80005d6:	4d3a      	ldr	r5, [pc, #232]	; (80006c0 <lcd_number.constprop.0+0xf0>)
 80005d8:	f7ff ff84 	bl	80004e4 <lcd_config>
 80005dc:	2201      	movs	r2, #1
 80005de:	eb04 0484 	add.w	r4, r4, r4, lsl #2
 80005e2:	4628      	mov	r0, r5
 80005e4:	4611      	mov	r1, r2
 80005e6:	0064      	lsls	r4, r4, #1
 80005e8:	f002 f868 	bl	80026bc <HAL_GPIO_WritePin>
 80005ec:	4835      	ldr	r0, [pc, #212]	; (80006c4 <lcd_number.constprop.0+0xf4>)
 80005ee:	fba0 3004 	umull	r3, r0, r0, r4
 80005f2:	0940      	lsrs	r0, r0, #5
 80005f4:	3030      	adds	r0, #48	; 0x30
 80005f6:	b2c0      	uxtb	r0, r0
 80005f8:	f7ff ff1c 	bl	8000434 <lcd_data>
 80005fc:	4628      	mov	r0, r5
 80005fe:	2200      	movs	r2, #0
 8000600:	2102      	movs	r1, #2
 8000602:	f002 f85b 	bl	80026bc <HAL_GPIO_WritePin>
 8000606:	2001      	movs	r0, #1
 8000608:	f000 ffe4 	bl	80015d4 <HAL_Delay>
 800060c:	4628      	mov	r0, r5
 800060e:	2201      	movs	r2, #1
 8000610:	2102      	movs	r1, #2
 8000612:	f002 f853 	bl	80026bc <HAL_GPIO_WritePin>
 8000616:	2001      	movs	r0, #1
 8000618:	f000 ffdc 	bl	80015d4 <HAL_Delay>
 800061c:	4628      	mov	r0, r5
 800061e:	2200      	movs	r2, #0
 8000620:	2102      	movs	r1, #2
 8000622:	f002 f84b 	bl	80026bc <HAL_GPIO_WritePin>
 8000626:	2001      	movs	r0, #1
 8000628:	f000 ffd4 	bl	80015d4 <HAL_Delay>
 800062c:	4628      	mov	r0, r5
 800062e:	2200      	movs	r2, #0
 8000630:	2101      	movs	r1, #1
 8000632:	f002 f843 	bl	80026bc <HAL_GPIO_WritePin>
 8000636:	4628      	mov	r0, r5
 8000638:	2200      	movs	r2, #0
 800063a:	2102      	movs	r1, #2
 800063c:	f002 f83e 	bl	80026bc <HAL_GPIO_WritePin>
 8000640:	2000      	movs	r0, #0
 8000642:	f7ff fef7 	bl	8000434 <lcd_data>
 8000646:	2201      	movs	r2, #1
 8000648:	4628      	mov	r0, r5
 800064a:	4611      	mov	r1, r2
 800064c:	f002 f836 	bl	80026bc <HAL_GPIO_WritePin>
 8000650:	4a1d      	ldr	r2, [pc, #116]	; (80006c8 <lcd_number.constprop.0+0xf8>)
 8000652:	fba2 1304 	umull	r1, r3, r2, r4
 8000656:	08db      	lsrs	r3, r3, #3
 8000658:	fba2 1203 	umull	r1, r2, r2, r3
 800065c:	08d0      	lsrs	r0, r2, #3
 800065e:	eb00 0080 	add.w	r0, r0, r0, lsl #2
 8000662:	eba3 0340 	sub.w	r3, r3, r0, lsl #1
 8000666:	f103 0030 	add.w	r0, r3, #48	; 0x30
 800066a:	b2c0      	uxtb	r0, r0
 800066c:	f7ff fee2 	bl	8000434 <lcd_data>
 8000670:	4628      	mov	r0, r5
 8000672:	2200      	movs	r2, #0
 8000674:	2102      	movs	r1, #2
 8000676:	f002 f821 	bl	80026bc <HAL_GPIO_WritePin>
 800067a:	2001      	movs	r0, #1
 800067c:	f000 ffaa 	bl	80015d4 <HAL_Delay>
 8000680:	4628      	mov	r0, r5
 8000682:	2201      	movs	r2, #1
 8000684:	2102      	movs	r1, #2
 8000686:	f002 f819 	bl	80026bc <HAL_GPIO_WritePin>
 800068a:	2001      	movs	r0, #1
 800068c:	f000 ffa2 	bl	80015d4 <HAL_Delay>
 8000690:	4628      	mov	r0, r5
 8000692:	2200      	movs	r2, #0
 8000694:	2102      	movs	r1, #2
 8000696:	f002 f811 	bl	80026bc <HAL_GPIO_WritePin>
 800069a:	2001      	movs	r0, #1
 800069c:	f000 ff9a 	bl	80015d4 <HAL_Delay>
 80006a0:	4628      	mov	r0, r5
 80006a2:	2200      	movs	r2, #0
 80006a4:	2101      	movs	r1, #1
 80006a6:	f002 f809 	bl	80026bc <HAL_GPIO_WritePin>
 80006aa:	4628      	mov	r0, r5
 80006ac:	2200      	movs	r2, #0
 80006ae:	2102      	movs	r1, #2
 80006b0:	f002 f804 	bl	80026bc <HAL_GPIO_WritePin>
 80006b4:	2000      	movs	r0, #0
 80006b6:	e8bd 4038 	ldmia.w	sp!, {r3, r4, r5, lr}
 80006ba:	f7ff bebb 	b.w	8000434 <lcd_data>
 80006be:	bf00      	nop
 80006c0:	58021000 	.word	0x58021000
 80006c4:	51eb851f 	.word	0x51eb851f
 80006c8:	cccccccd 	.word	0xcccccccd

080006cc <lcd_number.constprop.1>:
 80006cc:	f061 013f 	orn	r1, r1, #63	; 0x3f
 80006d0:	b538      	push	{r3, r4, r5, lr}
 80006d2:	4604      	mov	r4, r0
 80006d4:	b2c8      	uxtb	r0, r1
 80006d6:	4d1d      	ldr	r5, [pc, #116]	; (800074c <lcd_number.constprop.1+0x80>)
 80006d8:	f7ff ff04 	bl	80004e4 <lcd_config>
 80006dc:	2201      	movs	r2, #1
 80006de:	4628      	mov	r0, r5
 80006e0:	4611      	mov	r1, r2
 80006e2:	f001 ffeb 	bl	80026bc <HAL_GPIO_WritePin>
 80006e6:	4b1a      	ldr	r3, [pc, #104]	; (8000750 <lcd_number.constprop.1+0x84>)
 80006e8:	eb04 0084 	add.w	r0, r4, r4, lsl #2
 80006ec:	0040      	lsls	r0, r0, #1
 80006ee:	fba3 3000 	umull	r3, r0, r3, r0
 80006f2:	08c0      	lsrs	r0, r0, #3
 80006f4:	3030      	adds	r0, #48	; 0x30
 80006f6:	b2c0      	uxtb	r0, r0
 80006f8:	f7ff fe9c 	bl	8000434 <lcd_data>
 80006fc:	4628      	mov	r0, r5
 80006fe:	2200      	movs	r2, #0
 8000700:	2102      	movs	r1, #2
 8000702:	f001 ffdb 	bl	80026bc <HAL_GPIO_WritePin>
 8000706:	2001      	movs	r0, #1
 8000708:	f000 ff64 	bl	80015d4 <HAL_Delay>
 800070c:	4628      	mov	r0, r5
 800070e:	2201      	movs	r2, #1
 8000710:	2102      	movs	r1, #2
 8000712:	f001 ffd3 	bl	80026bc <HAL_GPIO_WritePin>
 8000716:	2001      	movs	r0, #1
 8000718:	f000 ff5c 	bl	80015d4 <HAL_Delay>
 800071c:	4628      	mov	r0, r5
 800071e:	2200      	movs	r2, #0
 8000720:	2102      	movs	r1, #2
 8000722:	f001 ffcb 	bl	80026bc <HAL_GPIO_WritePin>
 8000726:	2001      	movs	r0, #1
 8000728:	f000 ff54 	bl	80015d4 <HAL_Delay>
 800072c:	4628      	mov	r0, r5
 800072e:	2200      	movs	r2, #0
 8000730:	2101      	movs	r1, #1
 8000732:	f001 ffc3 	bl	80026bc <HAL_GPIO_WritePin>
 8000736:	4628      	mov	r0, r5
 8000738:	2200      	movs	r2, #0
 800073a:	2102      	movs	r1, #2
 800073c:	f001 ffbe 	bl	80026bc <HAL_GPIO_WritePin>
 8000740:	2000      	movs	r0, #0
 8000742:	e8bd 4038 	ldmia.w	sp!, {r3, r4, r5, lr}
 8000746:	f7ff be75 	b.w	8000434 <lcd_data>
 800074a:	bf00      	nop
 800074c:	58021000 	.word	0x58021000
 8000750:	cccccccd 	.word	0xcccccccd

08000754 <refresh>:
 8000754:	b510      	push	{r4, lr}
 8000756:	4c34      	ldr	r4, [pc, #208]	; (8000828 <refresh+0xd4>)
 8000758:	2200      	movs	r2, #0
 800075a:	4b34      	ldr	r3, [pc, #208]	; (800082c <refresh+0xd8>)
 800075c:	7820      	ldrb	r0, [r4, #0]
 800075e:	4611      	mov	r1, r2
 8000760:	eb03 1000 	add.w	r0, r3, r0, lsl #4
 8000764:	f7ff fef2 	bl	800054c <lcd_string>
 8000768:	2200      	movs	r2, #0
 800076a:	2101      	movs	r1, #1
 800076c:	4830      	ldr	r0, [pc, #192]	; (8000830 <refresh+0xdc>)
 800076e:	f7ff feed 	bl	800054c <lcd_string>
 8000772:	7820      	ldrb	r0, [r4, #0]
 8000774:	2100      	movs	r1, #0
 8000776:	f7ff ffa9 	bl	80006cc <lcd_number.constprop.1>
 800077a:	7823      	ldrb	r3, [r4, #0]
 800077c:	2b07      	cmp	r3, #7
 800077e:	d851      	bhi.n	8000824 <refresh+0xd0>
 8000780:	e8df f003 	tbb	[pc, r3]
 8000784:	291d1711 	.word	0x291d1711
 8000788:	04433c35 	.word	0x04433c35
 800078c:	4b29      	ldr	r3, [pc, #164]	; (8000834 <refresh+0xe0>)
 800078e:	2205      	movs	r2, #5
 8000790:	4829      	ldr	r0, [pc, #164]	; (8000838 <refresh+0xe4>)
 8000792:	2101      	movs	r1, #1
 8000794:	7adb      	ldrb	r3, [r3, #11]
 8000796:	eb03 0343 	add.w	r3, r3, r3, lsl #1
 800079a:	e8bd 4010 	ldmia.w	sp!, {r4, lr}
 800079e:	eb00 0043 	add.w	r0, r0, r3, lsl #1
 80007a2:	f7ff bed3 	b.w	800054c <lcd_string>
 80007a6:	4b23      	ldr	r3, [pc, #140]	; (8000834 <refresh+0xe0>)
 80007a8:	e8bd 4010 	ldmia.w	sp!, {r4, lr}
 80007ac:	8818      	ldrh	r0, [r3, #0]
 80007ae:	f7ff bf0f 	b.w	80005d0 <lcd_number.constprop.0>
 80007b2:	4b20      	ldr	r3, [pc, #128]	; (8000834 <refresh+0xe0>)
 80007b4:	e8bd 4010 	ldmia.w	sp!, {r4, lr}
 80007b8:	8858      	ldrh	r0, [r3, #2]
 80007ba:	f7ff bf09 	b.w	80005d0 <lcd_number.constprop.0>
 80007be:	4b1d      	ldr	r3, [pc, #116]	; (8000834 <refresh+0xe0>)
 80007c0:	2204      	movs	r2, #4
 80007c2:	481e      	ldr	r0, [pc, #120]	; (800083c <refresh+0xe8>)
 80007c4:	2101      	movs	r1, #1
 80007c6:	791b      	ldrb	r3, [r3, #4]
 80007c8:	eb03 03c3 	add.w	r3, r3, r3, lsl #3
 80007cc:	e8bd 4010 	ldmia.w	sp!, {r4, lr}
 80007d0:	4418      	add	r0, r3
 80007d2:	f7ff bebb 	b.w	800054c <lcd_string>
 80007d6:	4b17      	ldr	r3, [pc, #92]	; (8000834 <refresh+0xe0>)
 80007d8:	2204      	movs	r2, #4
 80007da:	4818      	ldr	r0, [pc, #96]	; (800083c <refresh+0xe8>)
 80007dc:	2101      	movs	r1, #1
 80007de:	795b      	ldrb	r3, [r3, #5]
 80007e0:	eb03 03c3 	add.w	r3, r3, r3, lsl #3
 80007e4:	e8bd 4010 	ldmia.w	sp!, {r4, lr}
 80007e8:	4418      	add	r0, r3
 80007ea:	f7ff beaf 	b.w	800054c <lcd_string>
 80007ee:	4b11      	ldr	r3, [pc, #68]	; (8000834 <refresh+0xe0>)
 80007f0:	2107      	movs	r1, #7
 80007f2:	88d8      	ldrh	r0, [r3, #6]
 80007f4:	e8bd 4010 	ldmia.w	sp!, {r4, lr}
 80007f8:	f7ff bf68 	b.w	80006cc <lcd_number.constprop.1>
 80007fc:	4b0d      	ldr	r3, [pc, #52]	; (8000834 <refresh+0xe0>)
 80007fe:	2107      	movs	r1, #7
 8000800:	8918      	ldrh	r0, [r3, #8]
 8000802:	e8bd 4010 	ldmia.w	sp!, {r4, lr}
 8000806:	f7ff bf61 	b.w	80006cc <lcd_number.constprop.1>
 800080a:	4b0a      	ldr	r3, [pc, #40]	; (8000834 <refresh+0xe0>)
 800080c:	2205      	movs	r2, #5
 800080e:	480a      	ldr	r0, [pc, #40]	; (8000838 <refresh+0xe4>)
 8000810:	2101      	movs	r1, #1
 8000812:	7a9b      	ldrb	r3, [r3, #10]
 8000814:	eb03 0343 	add.w	r3, r3, r3, lsl #1
 8000818:	e8bd 4010 	ldmia.w	sp!, {r4, lr}
 800081c:	eb00 0043 	add.w	r0, r0, r3, lsl #1
 8000820:	f7ff be94 	b.w	800054c <lcd_string>
 8000824:	bd10      	pop	{r4, pc}
 8000826:	bf00      	nop
 8000828:	240041f0 	.word	0x240041f0
 800082c:	24003e80 	.word	0x24003e80
 8000830:	08004ce8 	.word	0x08004ce8
 8000834:	240041f4 	.word	0x240041f4
 8000838:	24003f00 	.word	0x24003f00
 800083c:	240040a4 	.word	0x240040a4

08000840 <customButtonInterrupt>:
 8000840:	4b06      	ldr	r3, [pc, #24]	; (800085c <customButtonInterrupt+0x1c>)
 8000842:	2200      	movs	r2, #0
 8000844:	4906      	ldr	r1, [pc, #24]	; (8000860 <customButtonInterrupt+0x20>)
 8000846:	2001      	movs	r0, #1
 8000848:	b410      	push	{r4}
 800084a:	f04f 1407 	mov.w	r4, #458759	; 0x70007
 800084e:	809a      	strh	r2, [r3, #4]
 8000850:	815a      	strh	r2, [r3, #10]
 8000852:	601c      	str	r4, [r3, #0]
 8000854:	8008      	strh	r0, [r1, #0]
 8000856:	f85d 4b04 	ldr.w	r4, [sp], #4
 800085a:	4770      	bx	lr
 800085c:	240041f4 	.word	0x240041f4
 8000860:	240041f2 	.word	0x240041f2

08000864 <customTimerInterrupt>:
 8000864:	e92d 4ff0 	stmdb	sp!, {r4, r5, r6, r7, r8, r9, sl, fp, lr}
 8000868:	2400      	movs	r4, #0
 800086a:	b083      	sub	sp, #12
 800086c:	2120      	movs	r1, #32
 800086e:	4865      	ldr	r0, [pc, #404]	; (8000a04 <customTimerInterrupt+0x1a0>)
 8000870:	2201      	movs	r2, #1
 8000872:	f8ad 4000 	strh.w	r4, [sp]
 8000876:	f8ad 4002 	strh.w	r4, [sp, #2]
 800087a:	f001 ff1f 	bl	80026bc <HAL_GPIO_WritePin>
 800087e:	f8df e19c 	ldr.w	lr, [pc, #412]	; 8000a1c <customTimerInterrupt+0x1b8>
 8000882:	4621      	mov	r1, r4
 8000884:	4e60      	ldr	r6, [pc, #384]	; (8000a08 <customTimerInterrupt+0x1a4>)
 8000886:	4c61      	ldr	r4, [pc, #388]	; (8000a0c <customTimerInterrupt+0x1a8>)
 8000888:	f8be 7006 	ldrh.w	r7, [lr, #6]
 800088c:	f89e 0004 	ldrb.w	r0, [lr, #4]
 8000890:	f8be c000 	ldrh.w	ip, [lr]
 8000894:	f8df b188 	ldr.w	fp, [pc, #392]	; 8000a20 <customTimerInterrupt+0x1bc>
 8000898:	f8df a188 	ldr.w	sl, [pc, #392]	; 8000a24 <customTimerInterrupt+0x1c0>
 800089c:	f8df 9188 	ldr.w	r9, [pc, #392]	; 8000a28 <customTimerInterrupt+0x1c4>
 80008a0:	f8df 8188 	ldr.w	r8, [pc, #392]	; 8000a2c <customTimerInterrupt+0x1c8>
 80008a4:	b28a      	uxth	r2, r1
 80008a6:	f854 3022 	ldr.w	r3, [r4, r2, lsl #2]
 80008aa:	f856 5022 	ldr.w	r5, [r6, r2, lsl #2]
 80008ae:	442b      	add	r3, r5
 80008b0:	f5b3 1ffa 	cmp.w	r3, #2048000	; 0x1f4000
 80008b4:	bf28      	it	cs
 80008b6:	f5a3 13fa 	subcs.w	r3, r3, #2048000	; 0x1f4000
 80008ba:	f844 3022 	str.w	r3, [r4, r2, lsl #2]
 80008be:	2803      	cmp	r0, #3
 80008c0:	d814      	bhi.n	80008ec <customTimerInterrupt+0x88>
 80008c2:	e8df f000 	tbb	[pc, r0]
 80008c6:	524d      	.short	0x524d
 80008c8:	023b      	.short	0x023b
 80008ca:	0a9b      	lsrs	r3, r3, #10
 80008cc:	3201      	adds	r2, #1
 80008ce:	f83b 3013 	ldrh.w	r3, [fp, r3, lsl #1]
 80008d2:	0112      	lsls	r2, r2, #4
 80008d4:	f8bd 5000 	ldrh.w	r5, [sp]
 80008d8:	b21b      	sxth	r3, r3
 80008da:	fb0c f303 	mul.w	r3, ip, r3
 80008de:	fb93 f2f2 	sdiv	r2, r3, r2
 80008e2:	fa12 f285 	uxtah	r2, r2, r5
 80008e6:	b292      	uxth	r2, r2
 80008e8:	f8ad 2000 	strh.w	r2, [sp]
 80008ec:	3101      	adds	r1, #1
 80008ee:	b28b      	uxth	r3, r1
 80008f0:	429f      	cmp	r7, r3
 80008f2:	d2d7      	bcs.n	80008a4 <customTimerInterrupt+0x40>
 80008f4:	f8be 7008 	ldrh.w	r7, [lr, #8]
 80008f8:	2100      	movs	r1, #0
 80008fa:	f89e 4005 	ldrb.w	r4, [lr, #5]
 80008fe:	f8be c002 	ldrh.w	ip, [lr, #2]
 8000902:	4843      	ldr	r0, [pc, #268]	; (8000a10 <customTimerInterrupt+0x1ac>)
 8000904:	4e43      	ldr	r6, [pc, #268]	; (8000a14 <customTimerInterrupt+0x1b0>)
 8000906:	f8df a118 	ldr.w	sl, [pc, #280]	; 8000a20 <customTimerInterrupt+0x1bc>
 800090a:	f8df 9118 	ldr.w	r9, [pc, #280]	; 8000a24 <customTimerInterrupt+0x1c0>
 800090e:	f8df 8118 	ldr.w	r8, [pc, #280]	; 8000a28 <customTimerInterrupt+0x1c4>
 8000912:	f8df e118 	ldr.w	lr, [pc, #280]	; 8000a2c <customTimerInterrupt+0x1c8>
 8000916:	b28a      	uxth	r2, r1
 8000918:	f850 3022 	ldr.w	r3, [r0, r2, lsl #2]
 800091c:	f856 5022 	ldr.w	r5, [r6, r2, lsl #2]
 8000920:	442b      	add	r3, r5
 8000922:	f5b3 1ffa 	cmp.w	r3, #2048000	; 0x1f4000
 8000926:	bf28      	it	cs
 8000928:	f5a3 13fa 	subcs.w	r3, r3, #2048000	; 0x1f4000
 800092c:	f840 3022 	str.w	r3, [r0, r2, lsl #2]
 8000930:	2c03      	cmp	r4, #3
 8000932:	d830      	bhi.n	8000996 <customTimerInterrupt+0x132>
 8000934:	e8df f004 	tbb	[pc, r4]
 8000938:	1e49605b 	.word	0x1e49605b
 800093c:	0a9b      	lsrs	r3, r3, #10
 800093e:	1c55      	adds	r5, r2, #1
 8000940:	f83a 2013 	ldrh.w	r2, [sl, r3, lsl #1]
 8000944:	b212      	sxth	r2, r2
 8000946:	f8bd 3000 	ldrh.w	r3, [sp]
 800094a:	012d      	lsls	r5, r5, #4
 800094c:	fb0c f202 	mul.w	r2, ip, r2
 8000950:	fb92 f2f5 	sdiv	r2, r2, r5
 8000954:	fa12 f283 	uxtah	r2, r2, r3
 8000958:	b292      	uxth	r2, r2
 800095a:	f8ad 2000 	strh.w	r2, [sp]
 800095e:	e7c5      	b.n	80008ec <customTimerInterrupt+0x88>
 8000960:	0a9b      	lsrs	r3, r3, #10
 8000962:	1c55      	adds	r5, r2, #1
 8000964:	f838 2013 	ldrh.w	r2, [r8, r3, lsl #1]
 8000968:	e7ec      	b.n	8000944 <customTimerInterrupt+0xe0>
 800096a:	0a9b      	lsrs	r3, r3, #10
 800096c:	1c55      	adds	r5, r2, #1
 800096e:	f839 2013 	ldrh.w	r2, [r9, r3, lsl #1]
 8000972:	e7e7      	b.n	8000944 <customTimerInterrupt+0xe0>
 8000974:	0a9b      	lsrs	r3, r3, #10
 8000976:	3201      	adds	r2, #1
 8000978:	f83a 3013 	ldrh.w	r3, [sl, r3, lsl #1]
 800097c:	0112      	lsls	r2, r2, #4
 800097e:	f8bd 5002 	ldrh.w	r5, [sp, #2]
 8000982:	b21b      	sxth	r3, r3
 8000984:	fb0c f303 	mul.w	r3, ip, r3
 8000988:	fb93 f2f2 	sdiv	r2, r3, r2
 800098c:	fa12 f285 	uxtah	r2, r2, r5
 8000990:	b292      	uxth	r2, r2
 8000992:	f8ad 2002 	strh.w	r2, [sp, #2]
 8000996:	3101      	adds	r1, #1
 8000998:	b28b      	uxth	r3, r1
 800099a:	429f      	cmp	r7, r3
 800099c:	d2bb      	bcs.n	8000916 <customTimerInterrupt+0xb2>
 800099e:	f8bd 5000 	ldrh.w	r5, [sp]
 80009a2:	2300      	movs	r3, #0
 80009a4:	f8bd 4002 	ldrh.w	r4, [sp, #2]
 80009a8:	a901      	add	r1, sp, #4
 80009aa:	2202      	movs	r2, #2
 80009ac:	481a      	ldr	r0, [pc, #104]	; (8000a18 <customTimerInterrupt+0x1b4>)
 80009ae:	f8ad 5004 	strh.w	r5, [sp, #4]
 80009b2:	f8ad 4006 	strh.w	r4, [sp, #6]
 80009b6:	f001 ff65 	bl	8002884 <HAL_I2S_Transmit>
 80009ba:	2200      	movs	r2, #0
 80009bc:	2120      	movs	r1, #32
 80009be:	4811      	ldr	r0, [pc, #68]	; (8000a04 <customTimerInterrupt+0x1a0>)
 80009c0:	f001 fe7c 	bl	80026bc <HAL_GPIO_WritePin>
 80009c4:	b003      	add	sp, #12
 80009c6:	e8bd 8ff0 	ldmia.w	sp!, {r4, r5, r6, r7, r8, r9, sl, fp, pc}
 80009ca:	0a9b      	lsrs	r3, r3, #10
 80009cc:	1c55      	adds	r5, r2, #1
 80009ce:	f839 2013 	ldrh.w	r2, [r9, r3, lsl #1]
 80009d2:	b212      	sxth	r2, r2
 80009d4:	f8bd 3002 	ldrh.w	r3, [sp, #2]
 80009d8:	012d      	lsls	r5, r5, #4
 80009da:	fb0c f202 	mul.w	r2, ip, r2
 80009de:	fb92 f2f5 	sdiv	r2, r2, r5
 80009e2:	fa12 f283 	uxtah	r2, r2, r3
 80009e6:	b292      	uxth	r2, r2
 80009e8:	f8ad 2002 	strh.w	r2, [sp, #2]
 80009ec:	e7d3      	b.n	8000996 <customTimerInterrupt+0x132>
 80009ee:	0a9b      	lsrs	r3, r3, #10
 80009f0:	1c55      	adds	r5, r2, #1
 80009f2:	f83e 2013 	ldrh.w	r2, [lr, r3, lsl #1]
 80009f6:	e7ec      	b.n	80009d2 <customTimerInterrupt+0x16e>
 80009f8:	0a9b      	lsrs	r3, r3, #10
 80009fa:	1c55      	adds	r5, r2, #1
 80009fc:	f838 2013 	ldrh.w	r2, [r8, r3, lsl #1]
 8000a00:	e7e7      	b.n	80009d2 <customTimerInterrupt+0x16e>
 8000a02:	bf00      	nop
 8000a04:	58020400 	.word	0x58020400
 8000a08:	240041d0 	.word	0x240041d0
 8000a0c:	240040f8 	.word	0x240040f8
 8000a10:	24004108 	.word	0x24004108
 8000a14:	240041e0 	.word	0x240041e0
 8000a18:	2400417c 	.word	0x2400417c
 8000a1c:	240041f4 	.word	0x240041f4
 8000a20:	24000000 	.word	0x24000000
 8000a24:	24002ee0 	.word	0x24002ee0
 8000a28:	24001f40 	.word	0x24001f40
 8000a2c:	24000fa0 	.word	0x24000fa0

08000a30 <customSetup>:
 8000a30:	b084      	sub	sp, #16
 8000a32:	b570      	push	{r4, r5, r6, lr}
 8000a34:	ac04      	add	r4, sp, #16
 8000a36:	4e36      	ldr	r6, [pc, #216]	; (8000b10 <customSetup+0xe0>)
 8000a38:	4d36      	ldr	r5, [pc, #216]	; (8000b14 <customSetup+0xe4>)
 8000a3a:	e884 000f 	stmia.w	r4, {r0, r1, r2, r3}
 8000a3e:	4621      	mov	r1, r4
 8000a40:	2264      	movs	r2, #100	; 0x64
 8000a42:	4835      	ldr	r0, [pc, #212]	; (8000b18 <customSetup+0xe8>)
 8000a44:	f004 f92e 	bl	8004ca4 <memcpy>
 8000a48:	a91d      	add	r1, sp, #116	; 0x74
 8000a4a:	2254      	movs	r2, #84	; 0x54
 8000a4c:	4833      	ldr	r0, [pc, #204]	; (8000b1c <customSetup+0xec>)
 8000a4e:	f004 f929 	bl	8004ca4 <memcpy>
 8000a52:	2006      	movs	r0, #6
 8000a54:	4c32      	ldr	r4, [pc, #200]	; (8000b20 <customSetup+0xf0>)
 8000a56:	f7ff fd45 	bl	80004e4 <lcd_config>
 8000a5a:	200c      	movs	r0, #12
 8000a5c:	f7ff fd42 	bl	80004e4 <lcd_config>
 8000a60:	2038      	movs	r0, #56	; 0x38
 8000a62:	f7ff fd3f 	bl	80004e4 <lcd_config>
 8000a66:	4620      	mov	r0, r4
 8000a68:	2200      	movs	r2, #0
 8000a6a:	2101      	movs	r1, #1
 8000a6c:	f001 fe26 	bl	80026bc <HAL_GPIO_WritePin>
 8000a70:	2001      	movs	r0, #1
 8000a72:	f7ff fcdf 	bl	8000434 <lcd_data>
 8000a76:	4620      	mov	r0, r4
 8000a78:	2200      	movs	r2, #0
 8000a7a:	2102      	movs	r1, #2
 8000a7c:	f001 fe1e 	bl	80026bc <HAL_GPIO_WritePin>
 8000a80:	2001      	movs	r0, #1
 8000a82:	f000 fda7 	bl	80015d4 <HAL_Delay>
 8000a86:	4620      	mov	r0, r4
 8000a88:	2201      	movs	r2, #1
 8000a8a:	2102      	movs	r1, #2
 8000a8c:	f001 fe16 	bl	80026bc <HAL_GPIO_WritePin>
 8000a90:	2001      	movs	r0, #1
 8000a92:	f000 fd9f 	bl	80015d4 <HAL_Delay>
 8000a96:	2200      	movs	r2, #0
 8000a98:	2102      	movs	r1, #2
 8000a9a:	4620      	mov	r0, r4
 8000a9c:	f001 fe0e 	bl	80026bc <HAL_GPIO_WritePin>
 8000aa0:	2001      	movs	r0, #1
 8000aa2:	f000 fd97 	bl	80015d4 <HAL_Delay>
 8000aa6:	2002      	movs	r0, #2
 8000aa8:	f000 fd94 	bl	80015d4 <HAL_Delay>
 8000aac:	4620      	mov	r0, r4
 8000aae:	2200      	movs	r2, #0
 8000ab0:	2101      	movs	r1, #1
 8000ab2:	f001 fe03 	bl	80026bc <HAL_GPIO_WritePin>
 8000ab6:	2200      	movs	r2, #0
 8000ab8:	2102      	movs	r1, #2
 8000aba:	4620      	mov	r0, r4
 8000abc:	f001 fdfe 	bl	80026bc <HAL_GPIO_WritePin>
 8000ac0:	2000      	movs	r0, #0
 8000ac2:	f7ff fcb7 	bl	8000434 <lcd_data>
 8000ac6:	2080      	movs	r0, #128	; 0x80
 8000ac8:	f7ff fd0c 	bl	80004e4 <lcd_config>
 8000acc:	f04f 1207 	mov.w	r2, #458759	; 0x70007
 8000ad0:	2300      	movs	r3, #0
 8000ad2:	4c14      	ldr	r4, [pc, #80]	; (8000b24 <customSetup+0xf4>)
 8000ad4:	4914      	ldr	r1, [pc, #80]	; (8000b28 <customSetup+0xf8>)
 8000ad6:	200a      	movs	r0, #10
 8000ad8:	6032      	str	r2, [r6, #0]
 8000ada:	4a14      	ldr	r2, [pc, #80]	; (8000b2c <customSetup+0xfc>)
 8000adc:	e9c4 3300 	strd	r3, r3, [r4]
 8000ae0:	e9c4 3302 	strd	r3, r3, [r4, #8]
 8000ae4:	e9c1 3300 	strd	r3, r3, [r1]
 8000ae8:	e9c1 3302 	strd	r3, r3, [r1, #8]
 8000aec:	e9c2 3300 	strd	r3, r3, [r2]
 8000af0:	e9c2 3302 	strd	r3, r3, [r2, #8]
 8000af4:	e9c6 3301 	strd	r3, r3, [r6, #4]
 8000af8:	e9c5 3300 	strd	r3, r3, [r5]
 8000afc:	e9c5 3302 	strd	r3, r3, [r5, #8]
 8000b00:	f000 fd68 	bl	80015d4 <HAL_Delay>
 8000b04:	e8bd 4070 	ldmia.w	sp!, {r4, r5, r6, lr}
 8000b08:	b004      	add	sp, #16
 8000b0a:	f7ff be23 	b.w	8000754 <refresh>
 8000b0e:	bf00      	nop
 8000b10:	240041f4 	.word	0x240041f4
 8000b14:	240040f8 	.word	0x240040f8
 8000b18:	24004118 	.word	0x24004118
 8000b1c:	2400417c 	.word	0x2400417c
 8000b20:	58021000 	.word	0x58021000
 8000b24:	24004108 	.word	0x24004108
 8000b28:	240041d0 	.word	0x240041d0
 8000b2c:	240041e0 	.word	0x240041e0

08000b30 <customLoop>:
 8000b30:	e92d 43f8 	stmdb	sp!, {r3, r4, r5, r6, r7, r8, r9, lr}
 8000b34:	2104      	movs	r1, #4
 8000b36:	48a9      	ldr	r0, [pc, #676]	; (8000ddc <customLoop+0x2ac>)
 8000b38:	f001 fdba 	bl	80026b0 <HAL_GPIO_ReadPin>
 8000b3c:	2800      	cmp	r0, #0
 8000b3e:	d07d      	beq.n	8000c3c <customLoop+0x10c>
 8000b40:	2501      	movs	r5, #1
 8000b42:	2602      	movs	r6, #2
 8000b44:	462c      	mov	r4, r5
 8000b46:	2108      	movs	r1, #8
 8000b48:	48a4      	ldr	r0, [pc, #656]	; (8000ddc <customLoop+0x2ac>)
 8000b4a:	f001 fdb1 	bl	80026b0 <HAL_GPIO_ReadPin>
 8000b4e:	b108      	cbz	r0, 8000b54 <customLoop+0x24>
 8000b50:	4635      	mov	r5, r6
 8000b52:	2402      	movs	r4, #2
 8000b54:	2110      	movs	r1, #16
 8000b56:	48a1      	ldr	r0, [pc, #644]	; (8000ddc <customLoop+0x2ac>)
 8000b58:	f001 fdaa 	bl	80026b0 <HAL_GPIO_ReadPin>
 8000b5c:	b108      	cbz	r0, 8000b62 <customLoop+0x32>
 8000b5e:	3501      	adds	r5, #1
 8000b60:	2403      	movs	r4, #3
 8000b62:	2120      	movs	r1, #32
 8000b64:	489d      	ldr	r0, [pc, #628]	; (8000ddc <customLoop+0x2ac>)
 8000b66:	f001 fda3 	bl	80026b0 <HAL_GPIO_ReadPin>
 8000b6a:	b108      	cbz	r0, 8000b70 <customLoop+0x40>
 8000b6c:	3501      	adds	r5, #1
 8000b6e:	2404      	movs	r4, #4
 8000b70:	2d02      	cmp	r5, #2
 8000b72:	f04f 0600 	mov.w	r6, #0
 8000b76:	f04f 0532 	mov.w	r5, #50	; 0x32
 8000b7a:	4f99      	ldr	r7, [pc, #612]	; (8000de0 <customLoop+0x2b0>)
 8000b7c:	bf28      	it	cs
 8000b7e:	4634      	movcs	r4, r6
 8000b80:	4638      	mov	r0, r7
 8000b82:	f001 f8d1 	bl	8001d28 <HAL_ADC_Start>
 8000b86:	2101      	movs	r1, #1
 8000b88:	4638      	mov	r0, r7
 8000b8a:	f000 fd3b 	bl	8001604 <HAL_ADC_PollForConversion>
 8000b8e:	4638      	mov	r0, r7
 8000b90:	f000 fdc4 	bl	800171c <HAL_ADC_GetValue>
 8000b94:	4603      	mov	r3, r0
 8000b96:	4638      	mov	r0, r7
 8000b98:	441e      	add	r6, r3
 8000b9a:	f001 f97f 	bl	8001e9c <HAL_ADC_Stop>
 8000b9e:	3d01      	subs	r5, #1
 8000ba0:	d1ee      	bne.n	8000b80 <customLoop+0x50>
 8000ba2:	4b90      	ldr	r3, [pc, #576]	; (8000de4 <customLoop+0x2b4>)
 8000ba4:	fba3 3606 	umull	r3, r6, r3, r6
 8000ba8:	0c36      	lsrs	r6, r6, #16
 8000baa:	3e02      	subs	r6, #2
 8000bac:	ea26 76e6 	bic.w	r6, r6, r6, asr #31
 8000bb0:	b2b7      	uxth	r7, r6
 8000bb2:	2c00      	cmp	r4, #0
 8000bb4:	d133      	bne.n	8000c1e <customLoop+0xee>
 8000bb6:	f8df 8258 	ldr.w	r8, [pc, #600]	; 8000e10 <customLoop+0x2e0>
 8000bba:	f8b8 3000 	ldrh.w	r3, [r8]
 8000bbe:	2b01      	cmp	r3, #1
 8000bc0:	d07f      	beq.n	8000cc2 <customLoop+0x192>
 8000bc2:	4b89      	ldr	r3, [pc, #548]	; (8000de8 <customLoop+0x2b8>)
 8000bc4:	881a      	ldrh	r2, [r3, #0]
 8000bc6:	42ba      	cmp	r2, r7
 8000bc8:	d024      	beq.n	8000c14 <customLoop+0xe4>
 8000bca:	801f      	strh	r7, [r3, #0]
 8000bcc:	2f00      	cmp	r7, #0
 8000bce:	d139      	bne.n	8000c44 <customLoop+0x114>
 8000bd0:	2102      	movs	r1, #2
 8000bd2:	4886      	ldr	r0, [pc, #536]	; (8000dec <customLoop+0x2bc>)
 8000bd4:	2201      	movs	r2, #1
 8000bd6:	463c      	mov	r4, r7
 8000bd8:	f001 fd70 	bl	80026bc <HAL_GPIO_WritePin>
 8000bdc:	4884      	ldr	r0, [pc, #528]	; (8000df0 <customLoop+0x2c0>)
 8000bde:	463b      	mov	r3, r7
 8000be0:	4984      	ldr	r1, [pc, #528]	; (8000df4 <customLoop+0x2c4>)
 8000be2:	f8b0 c006 	ldrh.w	ip, [r0, #6]
 8000be6:	4f84      	ldr	r7, [pc, #528]	; (8000df8 <customLoop+0x2c8>)
 8000be8:	b29a      	uxth	r2, r3
 8000bea:	3301      	adds	r3, #1
 8000bec:	b29e      	uxth	r6, r3
 8000bee:	f841 4022 	str.w	r4, [r1, r2, lsl #2]
 8000bf2:	f847 4022 	str.w	r4, [r7, r2, lsl #2]
 8000bf6:	45b4      	cmp	ip, r6
 8000bf8:	d2f6      	bcs.n	8000be8 <customLoop+0xb8>
 8000bfa:	8906      	ldrh	r6, [r0, #8]
 8000bfc:	2200      	movs	r2, #0
 8000bfe:	497f      	ldr	r1, [pc, #508]	; (8000dfc <customLoop+0x2cc>)
 8000c00:	4c7f      	ldr	r4, [pc, #508]	; (8000e00 <customLoop+0x2d0>)
 8000c02:	b2ab      	uxth	r3, r5
 8000c04:	3501      	adds	r5, #1
 8000c06:	b2a8      	uxth	r0, r5
 8000c08:	f841 2023 	str.w	r2, [r1, r3, lsl #2]
 8000c0c:	f844 2023 	str.w	r2, [r4, r3, lsl #2]
 8000c10:	4286      	cmp	r6, r0
 8000c12:	d2f6      	bcs.n	8000c02 <customLoop+0xd2>
 8000c14:	2064      	movs	r0, #100	; 0x64
 8000c16:	e8bd 43f8 	ldmia.w	sp!, {r3, r4, r5, r6, r7, r8, r9, lr}
 8000c1a:	f000 bcdb 	b.w	80015d4 <HAL_Delay>
 8000c1e:	4b79      	ldr	r3, [pc, #484]	; (8000e04 <customLoop+0x2d4>)
 8000c20:	781a      	ldrb	r2, [r3, #0]
 8000c22:	2a07      	cmp	r2, #7
 8000c24:	f200 819d 	bhi.w	8000f62 <customLoop+0x432>
 8000c28:	e8df f012 	tbh	[pc, r2, lsl #1]
 8000c2c:	00ab00f4 	.word	0x00ab00f4
 8000c30:	00cf00c6 	.word	0x00cf00c6
 8000c34:	00bd00b4 	.word	0x00bd00b4
 8000c38:	009000a2 	.word	0x009000a2
 8000c3c:	4604      	mov	r4, r0
 8000c3e:	2601      	movs	r6, #1
 8000c40:	4605      	mov	r5, r0
 8000c42:	e780      	b.n	8000b46 <customLoop+0x16>
 8000c44:	4869      	ldr	r0, [pc, #420]	; (8000dec <customLoop+0x2bc>)
 8000c46:	2200      	movs	r2, #0
 8000c48:	2102      	movs	r1, #2
 8000c4a:	f001 fd37 	bl	80026bc <HAL_GPIO_WritePin>
 8000c4e:	4868      	ldr	r0, [pc, #416]	; (8000df0 <customLoop+0x2c0>)
 8000c50:	2f0c      	cmp	r7, #12
 8000c52:	88c4      	ldrh	r4, [r0, #6]
 8000c54:	d840      	bhi.n	8000cd8 <customLoop+0x1a8>
 8000c56:	2700      	movs	r7, #0
 8000c58:	4966      	ldr	r1, [pc, #408]	; (8000df4 <customLoop+0x2c4>)
 8000c5a:	4a6b      	ldr	r2, [pc, #428]	; (8000e08 <customLoop+0x2d8>)
 8000c5c:	f8df 81ac 	ldr.w	r8, [pc, #428]	; 8000e0c <customLoop+0x2dc>
 8000c60:	fa1f fc87 	uxth.w	ip, r7
 8000c64:	3701      	adds	r7, #1
 8000c66:	eb0c 034c 	add.w	r3, ip, ip, lsl #1
 8000c6a:	fa1f fe87 	uxth.w	lr, r7
 8000c6e:	eb06 0383 	add.w	r3, r6, r3, lsl #2
 8000c72:	4574      	cmp	r4, lr
 8000c74:	f832 3023 	ldrh.w	r3, [r2, r3, lsl #2]
 8000c78:	ea4f 2343 	mov.w	r3, r3, lsl #9
 8000c7c:	fba8 9303 	umull	r9, r3, r8, r3
 8000c80:	ea4f 0393 	mov.w	r3, r3, lsr #2
 8000c84:	f841 302c 	str.w	r3, [r1, ip, lsl #2]
 8000c88:	d2ea      	bcs.n	8000c60 <customLoop+0x130>
 8000c8a:	f8b0 c008 	ldrh.w	ip, [r0, #8]
 8000c8e:	495b      	ldr	r1, [pc, #364]	; (8000dfc <customLoop+0x2cc>)
 8000c90:	4f5e      	ldr	r7, [pc, #376]	; (8000e0c <customLoop+0x2dc>)
 8000c92:	b2a8      	uxth	r0, r5
 8000c94:	3501      	adds	r5, #1
 8000c96:	eb00 0340 	add.w	r3, r0, r0, lsl #1
 8000c9a:	b2ac      	uxth	r4, r5
 8000c9c:	eb06 0383 	add.w	r3, r6, r3, lsl #2
 8000ca0:	45a4      	cmp	ip, r4
 8000ca2:	f832 3023 	ldrh.w	r3, [r2, r3, lsl #2]
 8000ca6:	ea4f 2343 	mov.w	r3, r3, lsl #9
 8000caa:	fba7 e303 	umull	lr, r3, r7, r3
 8000cae:	ea4f 0393 	mov.w	r3, r3, lsr #2
 8000cb2:	f841 3020 	str.w	r3, [r1, r0, lsl #2]
 8000cb6:	d2ec      	bcs.n	8000c92 <customLoop+0x162>
 8000cb8:	2064      	movs	r0, #100	; 0x64
 8000cba:	e8bd 43f8 	ldmia.w	sp!, {r3, r4, r5, r6, r7, r8, r9, lr}
 8000cbe:	f000 bc89 	b.w	80015d4 <HAL_Delay>
 8000cc2:	4b50      	ldr	r3, [pc, #320]	; (8000e04 <customLoop+0x2d4>)
 8000cc4:	781a      	ldrb	r2, [r3, #0]
 8000cc6:	3a01      	subs	r2, #1
 8000cc8:	2a06      	cmp	r2, #6
 8000cca:	d84b      	bhi.n	8000d64 <customLoop+0x234>
 8000ccc:	e8df f002 	tbb	[pc, r2]
 8000cd0:	647f765b 	.word	0x647f765b
 8000cd4:	526d      	.short	0x526d
 8000cd6:	4a          	.byte	0x4a
 8000cd7:	00          	.byte	0x00
 8000cd8:	3e0c      	subs	r6, #12
 8000cda:	2700      	movs	r7, #0
 8000cdc:	4945      	ldr	r1, [pc, #276]	; (8000df4 <customLoop+0x2c4>)
 8000cde:	4a4a      	ldr	r2, [pc, #296]	; (8000e08 <customLoop+0x2d8>)
 8000ce0:	f8df 8128 	ldr.w	r8, [pc, #296]	; 8000e0c <customLoop+0x2dc>
 8000ce4:	fa1f fc87 	uxth.w	ip, r7
 8000ce8:	3701      	adds	r7, #1
 8000cea:	f10c 0301 	add.w	r3, ip, #1
 8000cee:	fa1f fe87 	uxth.w	lr, r7
 8000cf2:	eb03 0343 	add.w	r3, r3, r3, lsl #1
 8000cf6:	4574      	cmp	r4, lr
 8000cf8:	eb06 0383 	add.w	r3, r6, r3, lsl #2
 8000cfc:	f832 3023 	ldrh.w	r3, [r2, r3, lsl #2]
 8000d00:	ea4f 2343 	mov.w	r3, r3, lsl #9
 8000d04:	fba8 9303 	umull	r9, r3, r8, r3
 8000d08:	ea4f 0393 	mov.w	r3, r3, lsr #2
 8000d0c:	f841 302c 	str.w	r3, [r1, ip, lsl #2]
 8000d10:	d2e8      	bcs.n	8000ce4 <customLoop+0x1b4>
 8000d12:	f8b0 c008 	ldrh.w	ip, [r0, #8]
 8000d16:	4939      	ldr	r1, [pc, #228]	; (8000dfc <customLoop+0x2cc>)
 8000d18:	4f3c      	ldr	r7, [pc, #240]	; (8000e0c <customLoop+0x2dc>)
 8000d1a:	b2a8      	uxth	r0, r5
 8000d1c:	3501      	adds	r5, #1
 8000d1e:	1c43      	adds	r3, r0, #1
 8000d20:	b2ac      	uxth	r4, r5
 8000d22:	eb03 0343 	add.w	r3, r3, r3, lsl #1
 8000d26:	45a4      	cmp	ip, r4
 8000d28:	eb06 0383 	add.w	r3, r6, r3, lsl #2
 8000d2c:	f832 3023 	ldrh.w	r3, [r2, r3, lsl #2]
 8000d30:	ea4f 2343 	mov.w	r3, r3, lsl #9
 8000d34:	fba7 e303 	umull	lr, r3, r7, r3
 8000d38:	ea4f 0393 	mov.w	r3, r3, lsr #2
 8000d3c:	f841 3020 	str.w	r3, [r1, r0, lsl #2]
 8000d40:	d2eb      	bcs.n	8000d1a <customLoop+0x1ea>
 8000d42:	2064      	movs	r0, #100	; 0x64
 8000d44:	e8bd 43f8 	ldmia.w	sp!, {r3, r4, r5, r6, r7, r8, r9, lr}
 8000d48:	f000 bc44 	b.w	80015d4 <HAL_Delay>
 8000d4c:	2c03      	cmp	r4, #3
 8000d4e:	f000 810b 	beq.w	8000f68 <customLoop+0x438>
 8000d52:	2c04      	cmp	r4, #4
 8000d54:	f000 80f4 	beq.w	8000f40 <customLoop+0x410>
 8000d58:	2c01      	cmp	r4, #1
 8000d5a:	f8df 80b4 	ldr.w	r8, [pc, #180]	; 8000e10 <customLoop+0x2e0>
 8000d5e:	d101      	bne.n	8000d64 <customLoop+0x234>
 8000d60:	2206      	movs	r2, #6
 8000d62:	701a      	strb	r2, [r3, #0]
 8000d64:	f7ff fcf6 	bl	8000754 <refresh>
 8000d68:	2300      	movs	r3, #0
 8000d6a:	f8a8 3000 	strh.w	r3, [r8]
 8000d6e:	e728      	b.n	8000bc2 <customLoop+0x92>
 8000d70:	f8df 809c 	ldr.w	r8, [pc, #156]	; 8000e10 <customLoop+0x2e0>
 8000d74:	3c01      	subs	r4, #1
 8000d76:	2c03      	cmp	r4, #3
 8000d78:	d8f4      	bhi.n	8000d64 <customLoop+0x234>
 8000d7a:	e8df f004 	tbb	[pc, r4]
 8000d7e:	b5b8      	.short	0xb5b8
 8000d80:	a5ad      	.short	0xa5ad
 8000d82:	f8df 808c 	ldr.w	r8, [pc, #140]	; 8000e10 <customLoop+0x2e0>
 8000d86:	3c01      	subs	r4, #1
 8000d88:	2c03      	cmp	r4, #3
 8000d8a:	d8eb      	bhi.n	8000d64 <customLoop+0x234>
 8000d8c:	e8df f004 	tbb	[pc, r4]
 8000d90:	6b736568 	.word	0x6b736568
 8000d94:	f8df 8078 	ldr.w	r8, [pc, #120]	; 8000e10 <customLoop+0x2e0>
 8000d98:	3c01      	subs	r4, #1
 8000d9a:	2c03      	cmp	r4, #3
 8000d9c:	d855      	bhi.n	8000e4a <customLoop+0x31a>
 8000d9e:	e8df f004 	tbb	[pc, r4]
 8000da2:	8d90      	.short	0x8d90
 8000da4:	4f86      	.short	0x4f86
 8000da6:	f8df 8068 	ldr.w	r8, [pc, #104]	; 8000e10 <customLoop+0x2e0>
 8000daa:	3c01      	subs	r4, #1
 8000dac:	2c03      	cmp	r4, #3
 8000dae:	d84c      	bhi.n	8000e4a <customLoop+0x31a>
 8000db0:	e8df f004 	tbb	[pc, r4]
 8000db4:	6970777a 	.word	0x6970777a
 8000db8:	f8df 8054 	ldr.w	r8, [pc, #84]	; 8000e10 <customLoop+0x2e0>
 8000dbc:	3c01      	subs	r4, #1
 8000dbe:	2c03      	cmp	r4, #3
 8000dc0:	d8d0      	bhi.n	8000d64 <customLoop+0x234>
 8000dc2:	e8df f004 	tbb	[pc, r4]
 8000dc6:	ba3a      	.short	0xba3a
 8000dc8:	aab2      	.short	0xaab2
 8000dca:	f8df 8044 	ldr.w	r8, [pc, #68]	; 8000e10 <customLoop+0x2e0>
 8000dce:	3c01      	subs	r4, #1
 8000dd0:	2c03      	cmp	r4, #3
 8000dd2:	d8c7      	bhi.n	8000d64 <customLoop+0x234>
 8000dd4:	e8df f004 	tbb	[pc, r4]
 8000dd8:	8e969e41 	.word	0x8e969e41
 8000ddc:	58021000 	.word	0x58021000
 8000de0:	24004118 	.word	0x24004118
 8000de4:	8aa798f5 	.word	0x8aa798f5
 8000de8:	240040f4 	.word	0x240040f4
 8000dec:	58020000 	.word	0x58020000
 8000df0:	240041f4 	.word	0x240041f4
 8000df4:	240041d0 	.word	0x240041d0
 8000df8:	240040f8 	.word	0x240040f8
 8000dfc:	240041e0 	.word	0x240041e0
 8000e00:	24004108 	.word	0x24004108
 8000e04:	240041f0 	.word	0x240041f0
 8000e08:	24003f24 	.word	0x24003f24
 8000e0c:	cccccccd 	.word	0xcccccccd
 8000e10:	240041f2 	.word	0x240041f2
 8000e14:	2c03      	cmp	r4, #3
 8000e16:	f000 809b 	beq.w	8000f50 <customLoop+0x420>
 8000e1a:	2c04      	cmp	r4, #4
 8000e1c:	d109      	bne.n	8000e32 <customLoop+0x302>
 8000e1e:	4a57      	ldr	r2, [pc, #348]	; (8000f7c <customLoop+0x44c>)
 8000e20:	8813      	ldrh	r3, [r2, #0]
 8000e22:	2b00      	cmp	r3, #0
 8000e24:	f000 809d 	beq.w	8000f62 <customLoop+0x432>
 8000e28:	3b01      	subs	r3, #1
 8000e2a:	f8df 8154 	ldr.w	r8, [pc, #340]	; 8000f80 <customLoop+0x450>
 8000e2e:	8013      	strh	r3, [r2, #0]
 8000e30:	e798      	b.n	8000d64 <customLoop+0x234>
 8000e32:	2c02      	cmp	r4, #2
 8000e34:	f8df 8148 	ldr.w	r8, [pc, #328]	; 8000f80 <customLoop+0x450>
 8000e38:	d194      	bne.n	8000d64 <customLoop+0x234>
 8000e3a:	2201      	movs	r2, #1
 8000e3c:	701a      	strb	r2, [r3, #0]
 8000e3e:	e791      	b.n	8000d64 <customLoop+0x234>
 8000e40:	4a4e      	ldr	r2, [pc, #312]	; (8000f7c <customLoop+0x44c>)
 8000e42:	88d3      	ldrh	r3, [r2, #6]
 8000e44:	b10b      	cbz	r3, 8000e4a <customLoop+0x31a>
 8000e46:	3b01      	subs	r3, #1
 8000e48:	80d3      	strh	r3, [r2, #6]
 8000e4a:	f7ff fc83 	bl	8000754 <refresh>
 8000e4e:	f7ff fc81 	bl	8000754 <refresh>
 8000e52:	2300      	movs	r3, #0
 8000e54:	f8a8 3000 	strh.w	r3, [r8]
 8000e58:	e6b3      	b.n	8000bc2 <customLoop+0x92>
 8000e5a:	2202      	movs	r2, #2
 8000e5c:	701a      	strb	r2, [r3, #0]
 8000e5e:	e781      	b.n	8000d64 <customLoop+0x234>
 8000e60:	2200      	movs	r2, #0
 8000e62:	701a      	strb	r2, [r3, #0]
 8000e64:	e77e      	b.n	8000d64 <customLoop+0x234>
 8000e66:	4a45      	ldr	r2, [pc, #276]	; (8000f7c <customLoop+0x44c>)
 8000e68:	8853      	ldrh	r3, [r2, #2]
 8000e6a:	2b00      	cmp	r3, #0
 8000e6c:	f43f af7a 	beq.w	8000d64 <customLoop+0x234>
 8000e70:	3b01      	subs	r3, #1
 8000e72:	8053      	strh	r3, [r2, #2]
 8000e74:	e776      	b.n	8000d64 <customLoop+0x234>
 8000e76:	4a41      	ldr	r2, [pc, #260]	; (8000f7c <customLoop+0x44c>)
 8000e78:	8853      	ldrh	r3, [r2, #2]
 8000e7a:	2b0f      	cmp	r3, #15
 8000e7c:	f63f af72 	bhi.w	8000d64 <customLoop+0x234>
 8000e80:	3301      	adds	r3, #1
 8000e82:	8053      	strh	r3, [r2, #2]
 8000e84:	e76e      	b.n	8000d64 <customLoop+0x234>
 8000e86:	4a3d      	ldr	r2, [pc, #244]	; (8000f7c <customLoop+0x44c>)
 8000e88:	8913      	ldrh	r3, [r2, #8]
 8000e8a:	2b00      	cmp	r3, #0
 8000e8c:	d0dd      	beq.n	8000e4a <customLoop+0x31a>
 8000e8e:	3b01      	subs	r3, #1
 8000e90:	8113      	strh	r3, [r2, #8]
 8000e92:	e7da      	b.n	8000e4a <customLoop+0x31a>
 8000e94:	4a39      	ldr	r2, [pc, #228]	; (8000f7c <customLoop+0x44c>)
 8000e96:	8913      	ldrh	r3, [r2, #8]
 8000e98:	2b02      	cmp	r3, #2
 8000e9a:	d8d6      	bhi.n	8000e4a <customLoop+0x31a>
 8000e9c:	3301      	adds	r3, #1
 8000e9e:	8113      	strh	r3, [r2, #8]
 8000ea0:	e7d3      	b.n	8000e4a <customLoop+0x31a>
 8000ea2:	2206      	movs	r2, #6
 8000ea4:	701a      	strb	r2, [r3, #0]
 8000ea6:	e7d0      	b.n	8000e4a <customLoop+0x31a>
 8000ea8:	2204      	movs	r2, #4
 8000eaa:	701a      	strb	r2, [r3, #0]
 8000eac:	e7cd      	b.n	8000e4a <customLoop+0x31a>
 8000eae:	4a33      	ldr	r2, [pc, #204]	; (8000f7c <customLoop+0x44c>)
 8000eb0:	88d3      	ldrh	r3, [r2, #6]
 8000eb2:	2b02      	cmp	r3, #2
 8000eb4:	d8c9      	bhi.n	8000e4a <customLoop+0x31a>
 8000eb6:	3301      	adds	r3, #1
 8000eb8:	80d3      	strh	r3, [r2, #6]
 8000eba:	e7c6      	b.n	8000e4a <customLoop+0x31a>
 8000ebc:	2205      	movs	r2, #5
 8000ebe:	701a      	strb	r2, [r3, #0]
 8000ec0:	e7c3      	b.n	8000e4a <customLoop+0x31a>
 8000ec2:	2203      	movs	r2, #3
 8000ec4:	701a      	strb	r2, [r3, #0]
 8000ec6:	e7c0      	b.n	8000e4a <customLoop+0x31a>
 8000ec8:	4a2c      	ldr	r2, [pc, #176]	; (8000f7c <customLoop+0x44c>)
 8000eca:	7a93      	ldrb	r3, [r2, #10]
 8000ecc:	2b00      	cmp	r3, #0
 8000ece:	f43f af49 	beq.w	8000d64 <customLoop+0x234>
 8000ed2:	3b01      	subs	r3, #1
 8000ed4:	7293      	strb	r3, [r2, #10]
 8000ed6:	e745      	b.n	8000d64 <customLoop+0x234>
 8000ed8:	4a28      	ldr	r2, [pc, #160]	; (8000f7c <customLoop+0x44c>)
 8000eda:	7a93      	ldrb	r3, [r2, #10]
 8000edc:	2b04      	cmp	r3, #4
 8000ede:	f63f af41 	bhi.w	8000d64 <customLoop+0x234>
 8000ee2:	3301      	adds	r3, #1
 8000ee4:	7293      	strb	r3, [r2, #10]
 8000ee6:	e73d      	b.n	8000d64 <customLoop+0x234>
 8000ee8:	2207      	movs	r2, #7
 8000eea:	701a      	strb	r2, [r3, #0]
 8000eec:	e73a      	b.n	8000d64 <customLoop+0x234>
 8000eee:	2205      	movs	r2, #5
 8000ef0:	701a      	strb	r2, [r3, #0]
 8000ef2:	e737      	b.n	8000d64 <customLoop+0x234>
 8000ef4:	4a21      	ldr	r2, [pc, #132]	; (8000f7c <customLoop+0x44c>)
 8000ef6:	7953      	ldrb	r3, [r2, #5]
 8000ef8:	2b00      	cmp	r3, #0
 8000efa:	f43f af33 	beq.w	8000d64 <customLoop+0x234>
 8000efe:	3b01      	subs	r3, #1
 8000f00:	7153      	strb	r3, [r2, #5]
 8000f02:	e72f      	b.n	8000d64 <customLoop+0x234>
 8000f04:	4a1d      	ldr	r2, [pc, #116]	; (8000f7c <customLoop+0x44c>)
 8000f06:	7953      	ldrb	r3, [r2, #5]
 8000f08:	2b02      	cmp	r3, #2
 8000f0a:	f63f af2b 	bhi.w	8000d64 <customLoop+0x234>
 8000f0e:	3301      	adds	r3, #1
 8000f10:	7153      	strb	r3, [r2, #5]
 8000f12:	e727      	b.n	8000d64 <customLoop+0x234>
 8000f14:	2204      	movs	r2, #4
 8000f16:	701a      	strb	r2, [r3, #0]
 8000f18:	e724      	b.n	8000d64 <customLoop+0x234>
 8000f1a:	4a18      	ldr	r2, [pc, #96]	; (8000f7c <customLoop+0x44c>)
 8000f1c:	7913      	ldrb	r3, [r2, #4]
 8000f1e:	2b00      	cmp	r3, #0
 8000f20:	f43f af20 	beq.w	8000d64 <customLoop+0x234>
 8000f24:	3b01      	subs	r3, #1
 8000f26:	7113      	strb	r3, [r2, #4]
 8000f28:	e71c      	b.n	8000d64 <customLoop+0x234>
 8000f2a:	4a14      	ldr	r2, [pc, #80]	; (8000f7c <customLoop+0x44c>)
 8000f2c:	7913      	ldrb	r3, [r2, #4]
 8000f2e:	2b02      	cmp	r3, #2
 8000f30:	f63f af18 	bhi.w	8000d64 <customLoop+0x234>
 8000f34:	3301      	adds	r3, #1
 8000f36:	7113      	strb	r3, [r2, #4]
 8000f38:	e714      	b.n	8000d64 <customLoop+0x234>
 8000f3a:	2203      	movs	r2, #3
 8000f3c:	701a      	strb	r2, [r3, #0]
 8000f3e:	e711      	b.n	8000d64 <customLoop+0x234>
 8000f40:	4a0e      	ldr	r2, [pc, #56]	; (8000f7c <customLoop+0x44c>)
 8000f42:	7ad3      	ldrb	r3, [r2, #11]
 8000f44:	b16b      	cbz	r3, 8000f62 <customLoop+0x432>
 8000f46:	3b01      	subs	r3, #1
 8000f48:	f8df 8034 	ldr.w	r8, [pc, #52]	; 8000f80 <customLoop+0x450>
 8000f4c:	72d3      	strb	r3, [r2, #11]
 8000f4e:	e709      	b.n	8000d64 <customLoop+0x234>
 8000f50:	4a0a      	ldr	r2, [pc, #40]	; (8000f7c <customLoop+0x44c>)
 8000f52:	8813      	ldrh	r3, [r2, #0]
 8000f54:	2b0f      	cmp	r3, #15
 8000f56:	d804      	bhi.n	8000f62 <customLoop+0x432>
 8000f58:	3301      	adds	r3, #1
 8000f5a:	f8df 8024 	ldr.w	r8, [pc, #36]	; 8000f80 <customLoop+0x450>
 8000f5e:	8013      	strh	r3, [r2, #0]
 8000f60:	e700      	b.n	8000d64 <customLoop+0x234>
 8000f62:	f8df 801c 	ldr.w	r8, [pc, #28]	; 8000f80 <customLoop+0x450>
 8000f66:	e6fd      	b.n	8000d64 <customLoop+0x234>
 8000f68:	4a04      	ldr	r2, [pc, #16]	; (8000f7c <customLoop+0x44c>)
 8000f6a:	7ad3      	ldrb	r3, [r2, #11]
 8000f6c:	2b04      	cmp	r3, #4
 8000f6e:	d8f8      	bhi.n	8000f62 <customLoop+0x432>
 8000f70:	3301      	adds	r3, #1
 8000f72:	f8df 800c 	ldr.w	r8, [pc, #12]	; 8000f80 <customLoop+0x450>
 8000f76:	72d3      	strb	r3, [r2, #11]
 8000f78:	e6f4      	b.n	8000d64 <customLoop+0x234>
 8000f7a:	bf00      	nop
 8000f7c:	240041f4 	.word	0x240041f4
 8000f80:	240041f2 	.word	0x240041f2

08000f84 <MX_GPIO_Init>:
 8000f84:	e92d 47f0 	stmdb	sp!, {r4, r5, r6, r7, r8, r9, sl, lr}
 8000f88:	4b53      	ldr	r3, [pc, #332]	; (80010d8 <MX_GPIO_Init+0x154>)
 8000f8a:	b08c      	sub	sp, #48	; 0x30
 8000f8c:	2400      	movs	r4, #0
 8000f8e:	2102      	movs	r1, #2
 8000f90:	f8df a150 	ldr.w	sl, [pc, #336]	; 80010e4 <MX_GPIO_Init+0x160>
 8000f94:	2600      	movs	r6, #0
 8000f96:	9407      	str	r4, [sp, #28]
 8000f98:	4622      	mov	r2, r4
 8000f9a:	9406      	str	r4, [sp, #24]
 8000f9c:	4650      	mov	r0, sl
 8000f9e:	940a      	str	r4, [sp, #40]	; 0x28
 8000fa0:	2700      	movs	r7, #0
 8000fa2:	f8df 9144 	ldr.w	r9, [pc, #324]	; 80010e8 <MX_GPIO_Init+0x164>
 8000fa6:	f8df 8144 	ldr.w	r8, [pc, #324]	; 80010ec <MX_GPIO_Init+0x168>
 8000faa:	e9cd 4408 	strd	r4, r4, [sp, #32]
 8000fae:	f8d3 50e0 	ldr.w	r5, [r3, #224]	; 0xe0
 8000fb2:	f045 0510 	orr.w	r5, r5, #16
 8000fb6:	f8c3 50e0 	str.w	r5, [r3, #224]	; 0xe0
 8000fba:	f8d3 50e0 	ldr.w	r5, [r3, #224]	; 0xe0
 8000fbe:	f005 0510 	and.w	r5, r5, #16
 8000fc2:	9501      	str	r5, [sp, #4]
 8000fc4:	9d01      	ldr	r5, [sp, #4]
 8000fc6:	f8d3 50e0 	ldr.w	r5, [r3, #224]	; 0xe0
 8000fca:	f045 0501 	orr.w	r5, r5, #1
 8000fce:	f8c3 50e0 	str.w	r5, [r3, #224]	; 0xe0
 8000fd2:	f8d3 50e0 	ldr.w	r5, [r3, #224]	; 0xe0
 8000fd6:	f005 0501 	and.w	r5, r5, #1
 8000fda:	9502      	str	r5, [sp, #8]
 8000fdc:	9d02      	ldr	r5, [sp, #8]
 8000fde:	f8d3 50e0 	ldr.w	r5, [r3, #224]	; 0xe0
 8000fe2:	f045 0504 	orr.w	r5, r5, #4
 8000fe6:	f8c3 50e0 	str.w	r5, [r3, #224]	; 0xe0
 8000fea:	f8d3 50e0 	ldr.w	r5, [r3, #224]	; 0xe0
 8000fee:	f005 0504 	and.w	r5, r5, #4
 8000ff2:	9503      	str	r5, [sp, #12]
 8000ff4:	9d03      	ldr	r5, [sp, #12]
 8000ff6:	f8d3 50e0 	ldr.w	r5, [r3, #224]	; 0xe0
 8000ffa:	f045 0508 	orr.w	r5, r5, #8
 8000ffe:	f8c3 50e0 	str.w	r5, [r3, #224]	; 0xe0
 8001002:	f8d3 50e0 	ldr.w	r5, [r3, #224]	; 0xe0
 8001006:	f005 0508 	and.w	r5, r5, #8
 800100a:	9504      	str	r5, [sp, #16]
 800100c:	9d04      	ldr	r5, [sp, #16]
 800100e:	f8d3 50e0 	ldr.w	r5, [r3, #224]	; 0xe0
 8001012:	430d      	orrs	r5, r1
 8001014:	f8c3 50e0 	str.w	r5, [r3, #224]	; 0xe0
 8001018:	f8d3 30e0 	ldr.w	r3, [r3, #224]	; 0xe0
 800101c:	4d2f      	ldr	r5, [pc, #188]	; (80010dc <MX_GPIO_Init+0x158>)
 800101e:	400b      	ands	r3, r1
 8001020:	9305      	str	r3, [sp, #20]
 8001022:	9b05      	ldr	r3, [sp, #20]
 8001024:	f001 fb4a 	bl	80026bc <HAL_GPIO_WritePin>
 8001028:	4622      	mov	r2, r4
 800102a:	4648      	mov	r0, r9
 800102c:	21ff      	movs	r1, #255	; 0xff
 800102e:	f001 fb45 	bl	80026bc <HAL_GPIO_WritePin>
 8001032:	4622      	mov	r2, r4
 8001034:	4640      	mov	r0, r8
 8001036:	2120      	movs	r1, #32
 8001038:	f001 fb40 	bl	80026bc <HAL_GPIO_WritePin>
 800103c:	4622      	mov	r2, r4
 800103e:	4628      	mov	r0, r5
 8001040:	2103      	movs	r1, #3
 8001042:	f001 fb3b 	bl	80026bc <HAL_GPIO_WritePin>
 8001046:	223c      	movs	r2, #60	; 0x3c
 8001048:	2300      	movs	r3, #0
 800104a:	a906      	add	r1, sp, #24
 800104c:	4628      	mov	r0, r5
 800104e:	9408      	str	r4, [sp, #32]
 8001050:	e9cd 2306 	strd	r2, r3, [sp, #24]
 8001054:	f001 f9f2 	bl	800243c <HAL_GPIO_Init>
 8001058:	2202      	movs	r2, #2
 800105a:	2301      	movs	r3, #1
 800105c:	4650      	mov	r0, sl
 800105e:	a906      	add	r1, sp, #24
 8001060:	e9cd 2306 	strd	r2, r3, [sp, #24]
 8001064:	e9cd 6708 	strd	r6, r7, [sp, #32]
 8001068:	f001 f9e8 	bl	800243c <HAL_GPIO_Init>
 800106c:	f04f 0c01 	mov.w	ip, #1
 8001070:	2220      	movs	r2, #32
 8001072:	f44f 1304 	mov.w	r3, #2162688	; 0x210000
 8001076:	a906      	add	r1, sp, #24
 8001078:	4819      	ldr	r0, [pc, #100]	; (80010e0 <MX_GPIO_Init+0x15c>)
 800107a:	f8cd c020 	str.w	ip, [sp, #32]
 800107e:	e9cd 2306 	strd	r2, r3, [sp, #24]
 8001082:	f001 f9db 	bl	800243c <HAL_GPIO_Init>
 8001086:	22ff      	movs	r2, #255	; 0xff
 8001088:	2301      	movs	r3, #1
 800108a:	4648      	mov	r0, r9
 800108c:	a906      	add	r1, sp, #24
 800108e:	e9cd 2306 	strd	r2, r3, [sp, #24]
 8001092:	e9cd 6708 	strd	r6, r7, [sp, #32]
 8001096:	f001 f9d1 	bl	800243c <HAL_GPIO_Init>
 800109a:	2220      	movs	r2, #32
 800109c:	2301      	movs	r3, #1
 800109e:	4640      	mov	r0, r8
 80010a0:	a906      	add	r1, sp, #24
 80010a2:	e9cd 2306 	strd	r2, r3, [sp, #24]
 80010a6:	e9cd 6708 	strd	r6, r7, [sp, #32]
 80010aa:	f001 f9c7 	bl	800243c <HAL_GPIO_Init>
 80010ae:	2301      	movs	r3, #1
 80010b0:	2203      	movs	r2, #3
 80010b2:	a906      	add	r1, sp, #24
 80010b4:	4628      	mov	r0, r5
 80010b6:	e9cd 2306 	strd	r2, r3, [sp, #24]
 80010ba:	e9cd 6708 	strd	r6, r7, [sp, #32]
 80010be:	f001 f9bd 	bl	800243c <HAL_GPIO_Init>
 80010c2:	4622      	mov	r2, r4
 80010c4:	4621      	mov	r1, r4
 80010c6:	2017      	movs	r0, #23
 80010c8:	f001 f958 	bl	800237c <HAL_NVIC_SetPriority>
 80010cc:	2017      	movs	r0, #23
 80010ce:	f001 f98f 	bl	80023f0 <HAL_NVIC_EnableIRQ>
 80010d2:	b00c      	add	sp, #48	; 0x30
 80010d4:	e8bd 87f0 	ldmia.w	sp!, {r4, r5, r6, r7, r8, r9, sl, pc}
 80010d8:	58024400 	.word	0x58024400
 80010dc:	58021000 	.word	0x58021000
 80010e0:	58020800 	.word	0x58020800
 80010e4:	58020000 	.word	0x58020000
 80010e8:	58020c00 	.word	0x58020c00
 80010ec:	58020400 	.word	0x58020400

080010f0 <HAL_GPIO_EXTI_Callback>:
 80010f0:	2820      	cmp	r0, #32
 80010f2:	d000      	beq.n	80010f6 <HAL_GPIO_EXTI_Callback+0x6>
 80010f4:	4770      	bx	lr
 80010f6:	f7ff bba3 	b.w	8000840 <customButtonInterrupt>
 80010fa:	bf00      	nop

080010fc <MX_I2S1_Init>:
 80010fc:	b510      	push	{r4, lr}
 80010fe:	480c      	ldr	r0, [pc, #48]	; (8001130 <MX_I2S1_Init+0x34>)
 8001100:	2300      	movs	r3, #0
 8001102:	2104      	movs	r1, #4
 8001104:	4c0b      	ldr	r4, [pc, #44]	; (8001134 <MX_I2S1_Init+0x38>)
 8001106:	f644 6220 	movw	r2, #20000	; 0x4e20
 800110a:	6103      	str	r3, [r0, #16]
 800110c:	6283      	str	r3, [r0, #40]	; 0x28
 800110e:	6142      	str	r2, [r0, #20]
 8001110:	e9c0 4100 	strd	r4, r1, [r0]
 8001114:	e9c0 3302 	strd	r3, r3, [r0, #8]
 8001118:	e9c0 3306 	strd	r3, r3, [r0, #24]
 800111c:	e9c0 3308 	strd	r3, r3, [r0, #32]
 8001120:	f001 fade 	bl	80026e0 <HAL_I2S_Init>
 8001124:	b900      	cbnz	r0, 8001128 <MX_I2S1_Init+0x2c>
 8001126:	bd10      	pop	{r4, pc}
 8001128:	e8bd 4010 	ldmia.w	sp!, {r4, lr}
 800112c:	f000 b8ec 	b.w	8001308 <Error_Handler>
 8001130:	24004264 	.word	0x24004264
 8001134:	40013000 	.word	0x40013000

08001138 <HAL_I2S_MspInit>:
 8001138:	b5f0      	push	{r4, r5, r6, r7, lr}
 800113a:	2400      	movs	r4, #0
 800113c:	b0b7      	sub	sp, #220	; 0xdc
 800113e:	4605      	mov	r5, r0
 8001140:	22bc      	movs	r2, #188	; 0xbc
 8001142:	4621      	mov	r1, r4
 8001144:	a807      	add	r0, sp, #28
 8001146:	9406      	str	r4, [sp, #24]
 8001148:	e9cd 4402 	strd	r4, r4, [sp, #8]
 800114c:	e9cd 4404 	strd	r4, r4, [sp, #16]
 8001150:	f003 fdb6 	bl	8004cc0 <memset>
 8001154:	682a      	ldr	r2, [r5, #0]
 8001156:	4b1c      	ldr	r3, [pc, #112]	; (80011c8 <HAL_I2S_MspInit+0x90>)
 8001158:	429a      	cmp	r2, r3
 800115a:	d001      	beq.n	8001160 <HAL_I2S_MspInit+0x28>
 800115c:	b037      	add	sp, #220	; 0xdc
 800115e:	bdf0      	pop	{r4, r5, r6, r7, pc}
 8001160:	f44f 5380 	mov.w	r3, #4096	; 0x1000
 8001164:	a807      	add	r0, sp, #28
 8001166:	941e      	str	r4, [sp, #120]	; 0x78
 8001168:	9307      	str	r3, [sp, #28]
 800116a:	f002 facb 	bl	8003704 <HAL_RCCEx_PeriphCLKConfig>
 800116e:	bb40      	cbnz	r0, 80011c2 <HAL_I2S_MspInit+0x8a>
 8001170:	4b16      	ldr	r3, [pc, #88]	; (80011cc <HAL_I2S_MspInit+0x94>)
 8001172:	2605      	movs	r6, #5
 8001174:	24b0      	movs	r4, #176	; 0xb0
 8001176:	2502      	movs	r5, #2
 8001178:	f8d3 20f0 	ldr.w	r2, [r3, #240]	; 0xf0
 800117c:	a902      	add	r1, sp, #8
 800117e:	4814      	ldr	r0, [pc, #80]	; (80011d0 <HAL_I2S_MspInit+0x98>)
 8001180:	2700      	movs	r7, #0
 8001182:	f442 5280 	orr.w	r2, r2, #4096	; 0x1000
 8001186:	f8c3 20f0 	str.w	r2, [r3, #240]	; 0xf0
 800118a:	f8d3 20f0 	ldr.w	r2, [r3, #240]	; 0xf0
 800118e:	f402 5280 	and.w	r2, r2, #4096	; 0x1000
 8001192:	9200      	str	r2, [sp, #0]
 8001194:	9a00      	ldr	r2, [sp, #0]
 8001196:	f8d3 20e0 	ldr.w	r2, [r3, #224]	; 0xe0
 800119a:	f042 0201 	orr.w	r2, r2, #1
 800119e:	f8c3 20e0 	str.w	r2, [r3, #224]	; 0xe0
 80011a2:	f8d3 30e0 	ldr.w	r3, [r3, #224]	; 0xe0
 80011a6:	9606      	str	r6, [sp, #24]
 80011a8:	2600      	movs	r6, #0
 80011aa:	f003 0301 	and.w	r3, r3, #1
 80011ae:	9301      	str	r3, [sp, #4]
 80011b0:	9b01      	ldr	r3, [sp, #4]
 80011b2:	e9cd 4502 	strd	r4, r5, [sp, #8]
 80011b6:	e9cd 6704 	strd	r6, r7, [sp, #16]
 80011ba:	f001 f93f 	bl	800243c <HAL_GPIO_Init>
 80011be:	b037      	add	sp, #220	; 0xdc
 80011c0:	bdf0      	pop	{r4, r5, r6, r7, pc}
 80011c2:	f000 f8a1 	bl	8001308 <Error_Handler>
 80011c6:	e7d3      	b.n	8001170 <HAL_I2S_MspInit+0x38>
 80011c8:	40013000 	.word	0x40013000
 80011cc:	58024400 	.word	0x58024400
 80011d0:	58020000 	.word	0x58020000

080011d4 <SystemClock_Config>:
 80011d4:	b5f0      	push	{r4, r5, r6, r7, lr}
 80011d6:	b09f      	sub	sp, #124	; 0x7c
 80011d8:	224c      	movs	r2, #76	; 0x4c
 80011da:	2100      	movs	r1, #0
 80011dc:	a80b      	add	r0, sp, #44	; 0x2c
 80011de:	f003 fd6f 	bl	8004cc0 <memset>
 80011e2:	2220      	movs	r2, #32
 80011e4:	2100      	movs	r1, #0
 80011e6:	a802      	add	r0, sp, #8
 80011e8:	f003 fd6a 	bl	8004cc0 <memset>
 80011ec:	2002      	movs	r0, #2
 80011ee:	f001 fbf7 	bl	80029e0 <HAL_PWREx_ConfigSupply>
 80011f2:	4b28      	ldr	r3, [pc, #160]	; (8001294 <SystemClock_Config+0xc0>)
 80011f4:	2200      	movs	r2, #0
 80011f6:	9201      	str	r2, [sp, #4]
 80011f8:	6ad9      	ldr	r1, [r3, #44]	; 0x2c
 80011fa:	4a27      	ldr	r2, [pc, #156]	; (8001298 <SystemClock_Config+0xc4>)
 80011fc:	f021 0101 	bic.w	r1, r1, #1
 8001200:	4610      	mov	r0, r2
 8001202:	62d9      	str	r1, [r3, #44]	; 0x2c
 8001204:	6adb      	ldr	r3, [r3, #44]	; 0x2c
 8001206:	f003 0301 	and.w	r3, r3, #1
 800120a:	9301      	str	r3, [sp, #4]
 800120c:	6993      	ldr	r3, [r2, #24]
 800120e:	f423 4340 	bic.w	r3, r3, #49152	; 0xc000
 8001212:	f443 4380 	orr.w	r3, r3, #16384	; 0x4000
 8001216:	6193      	str	r3, [r2, #24]
 8001218:	6993      	ldr	r3, [r2, #24]
 800121a:	f403 4340 	and.w	r3, r3, #49152	; 0xc000
 800121e:	9301      	str	r3, [sp, #4]
 8001220:	9b01      	ldr	r3, [sp, #4]
 8001222:	6983      	ldr	r3, [r0, #24]
 8001224:	049b      	lsls	r3, r3, #18
 8001226:	d5fc      	bpl.n	8001222 <SystemClock_Config+0x4e>
 8001228:	491c      	ldr	r1, [pc, #112]	; (800129c <SystemClock_Config+0xc8>)
 800122a:	2302      	movs	r3, #2
 800122c:	2401      	movs	r4, #1
 800122e:	2740      	movs	r7, #64	; 0x40
 8001230:	6a8a      	ldr	r2, [r1, #40]	; 0x28
 8001232:	2600      	movs	r6, #0
 8001234:	2504      	movs	r5, #4
 8001236:	a80b      	add	r0, sp, #44	; 0x2c
 8001238:	f022 0203 	bic.w	r2, r2, #3
 800123c:	628a      	str	r2, [r1, #40]	; 0x28
 800123e:	210b      	movs	r1, #11
 8001240:	220c      	movs	r2, #12
 8001242:	930b      	str	r3, [sp, #44]	; 0x2c
 8001244:	9314      	str	r3, [sp, #80]	; 0x50
 8001246:	931a      	str	r3, [sp, #104]	; 0x68
 8001248:	931c      	str	r3, [sp, #112]	; 0x70
 800124a:	9117      	str	r1, [sp, #92]	; 0x5c
 800124c:	921b      	str	r2, [sp, #108]	; 0x6c
 800124e:	e9cd 3318 	strd	r3, r3, [sp, #96]	; 0x60
 8001252:	f44f 73a4 	mov.w	r3, #328	; 0x148
 8001256:	e9cd 470e 	strd	r4, r7, [sp, #56]	; 0x38
 800125a:	e9cd 6515 	strd	r6, r5, [sp, #84]	; 0x54
 800125e:	931d      	str	r3, [sp, #116]	; 0x74
 8001260:	f001 fc68 	bl	8002b34 <HAL_RCC_OscConfig>
 8001264:	b108      	cbz	r0, 800126a <SystemClock_Config+0x96>
 8001266:	b672      	cpsid	i
 8001268:	e7fe      	b.n	8001268 <SystemClock_Config+0x94>
 800126a:	2200      	movs	r2, #0
 800126c:	2300      	movs	r3, #0
 800126e:	263f      	movs	r6, #63	; 0x3f
 8001270:	2700      	movs	r7, #0
 8001272:	4621      	mov	r1, r4
 8001274:	a802      	add	r0, sp, #8
 8001276:	e9cd 6702 	strd	r6, r7, [sp, #8]
 800127a:	e9cd 2304 	strd	r2, r3, [sp, #16]
 800127e:	e9cd 2306 	strd	r2, r3, [sp, #24]
 8001282:	e9cd 2308 	strd	r2, r3, [sp, #32]
 8001286:	f001 ffdb 	bl	8003240 <HAL_RCC_ClockConfig>
 800128a:	b108      	cbz	r0, 8001290 <SystemClock_Config+0xbc>
 800128c:	b672      	cpsid	i
 800128e:	e7fe      	b.n	800128e <SystemClock_Config+0xba>
 8001290:	b01f      	add	sp, #124	; 0x7c
 8001292:	bdf0      	pop	{r4, r5, r6, r7, pc}
 8001294:	58000400 	.word	0x58000400
 8001298:	58024800 	.word	0x58024800
 800129c:	58024400 	.word	0x58024400

080012a0 <main>:
 80012a0:	b500      	push	{lr}
 80012a2:	b0ab      	sub	sp, #172	; 0xac
 80012a4:	4c11      	ldr	r4, [pc, #68]	; (80012ec <main+0x4c>)
 80012a6:	f000 f953 	bl	8001550 <HAL_Init>
 80012aa:	f7ff ff93 	bl	80011d4 <SystemClock_Config>
 80012ae:	f7ff fe69 	bl	8000f84 <MX_GPIO_Init>
 80012b2:	f7ff ff23 	bl	80010fc <MX_I2S1_Init>
 80012b6:	f7ff f80f 	bl	80002d8 <MX_ADC1_Init>
 80012ba:	f000 f8bb 	bl	8001434 <MX_TIM16_Init>
 80012be:	2254      	movs	r2, #84	; 0x54
 80012c0:	490b      	ldr	r1, [pc, #44]	; (80012f0 <main+0x50>)
 80012c2:	eb0d 0002 	add.w	r0, sp, r2
 80012c6:	f003 fced 	bl	8004ca4 <memcpy>
 80012ca:	f104 0110 	add.w	r1, r4, #16
 80012ce:	2254      	movs	r2, #84	; 0x54
 80012d0:	4668      	mov	r0, sp
 80012d2:	f003 fce7 	bl	8004ca4 <memcpy>
 80012d6:	e894 000f 	ldmia.w	r4, {r0, r1, r2, r3}
 80012da:	f7ff fba9 	bl	8000a30 <customSetup>
 80012de:	4805      	ldr	r0, [pc, #20]	; (80012f4 <main+0x54>)
 80012e0:	f003 fb9a 	bl	8004a18 <HAL_TIM_Base_Start_IT>
 80012e4:	f7ff fc24 	bl	8000b30 <customLoop>
 80012e8:	e7fc      	b.n	80012e4 <main+0x44>
 80012ea:	bf00      	nop
 80012ec:	24004200 	.word	0x24004200
 80012f0:	24004264 	.word	0x24004264
 80012f4:	240042b8 	.word	0x240042b8

080012f8 <HAL_TIM_PeriodElapsedCallback>:
 80012f8:	4b02      	ldr	r3, [pc, #8]	; (8001304 <HAL_TIM_PeriodElapsedCallback+0xc>)
 80012fa:	4283      	cmp	r3, r0
 80012fc:	d000      	beq.n	8001300 <HAL_TIM_PeriodElapsedCallback+0x8>
 80012fe:	4770      	bx	lr
 8001300:	f7ff bab0 	b.w	8000864 <customTimerInterrupt>
 8001304:	240042b8 	.word	0x240042b8

08001308 <Error_Handler>:
 8001308:	b672      	cpsid	i
 800130a:	e7fe      	b.n	800130a <Error_Handler+0x2>

0800130c <HAL_MspInit>:
 800130c:	4b07      	ldr	r3, [pc, #28]	; (800132c <HAL_MspInit+0x20>)
 800130e:	b082      	sub	sp, #8
 8001310:	f8d3 20f4 	ldr.w	r2, [r3, #244]	; 0xf4
 8001314:	f042 0202 	orr.w	r2, r2, #2
 8001318:	f8c3 20f4 	str.w	r2, [r3, #244]	; 0xf4
 800131c:	f8d3 30f4 	ldr.w	r3, [r3, #244]	; 0xf4
 8001320:	f003 0302 	and.w	r3, r3, #2
 8001324:	9301      	str	r3, [sp, #4]
 8001326:	9b01      	ldr	r3, [sp, #4]
 8001328:	b002      	add	sp, #8
 800132a:	4770      	bx	lr
 800132c:	58024400 	.word	0x58024400

08001330 <NMI_Handler>:
 8001330:	e7fe      	b.n	8001330 <NMI_Handler>
 8001332:	bf00      	nop

08001334 <HardFault_Handler>:
 8001334:	e7fe      	b.n	8001334 <HardFault_Handler>
 8001336:	bf00      	nop

08001338 <MemManage_Handler>:
 8001338:	e7fe      	b.n	8001338 <MemManage_Handler>
 800133a:	bf00      	nop

0800133c <BusFault_Handler>:
 800133c:	e7fe      	b.n	800133c <BusFault_Handler>
 800133e:	bf00      	nop

08001340 <UsageFault_Handler>:
 8001340:	e7fe      	b.n	8001340 <UsageFault_Handler>
 8001342:	bf00      	nop

08001344 <SVC_Handler>:
 8001344:	4770      	bx	lr
 8001346:	bf00      	nop

08001348 <DebugMon_Handler>:
 8001348:	4770      	bx	lr
 800134a:	bf00      	nop

0800134c <PendSV_Handler>:
 800134c:	4770      	bx	lr
 800134e:	bf00      	nop

08001350 <SysTick_Handler>:
 8001350:	f000 b92e 	b.w	80015b0 <HAL_IncTick>

08001354 <EXTI9_5_IRQHandler>:
 8001354:	2020      	movs	r0, #32
 8001356:	f001 b9b5 	b.w	80026c4 <HAL_GPIO_EXTI_IRQHandler>
 800135a:	bf00      	nop

0800135c <TIM16_IRQHandler>:
 800135c:	4801      	ldr	r0, [pc, #4]	; (8001364 <TIM16_IRQHandler+0x8>)
 800135e:	f003 bbbf 	b.w	8004ae0 <HAL_TIM_IRQHandler>
 8001362:	bf00      	nop
 8001364:	240042b8 	.word	0x240042b8

08001368 <SystemInit>:
 8001368:	4927      	ldr	r1, [pc, #156]	; (8001408 <SystemInit+0xa0>)
 800136a:	4a28      	ldr	r2, [pc, #160]	; (800140c <SystemInit+0xa4>)
 800136c:	f8d1 3088 	ldr.w	r3, [r1, #136]	; 0x88
 8001370:	f443 0370 	orr.w	r3, r3, #15728640	; 0xf00000
 8001374:	b410      	push	{r4}
 8001376:	f8c1 3088 	str.w	r3, [r1, #136]	; 0x88
 800137a:	6813      	ldr	r3, [r2, #0]
 800137c:	f003 030f 	and.w	r3, r3, #15
 8001380:	2b06      	cmp	r3, #6
 8001382:	d805      	bhi.n	8001390 <SystemInit+0x28>
 8001384:	6813      	ldr	r3, [r2, #0]
 8001386:	f023 030f 	bic.w	r3, r3, #15
 800138a:	f043 0307 	orr.w	r3, r3, #7
 800138e:	6013      	str	r3, [r2, #0]
 8001390:	4b1f      	ldr	r3, [pc, #124]	; (8001410 <SystemInit+0xa8>)
 8001392:	2400      	movs	r4, #0
 8001394:	4a1f      	ldr	r2, [pc, #124]	; (8001414 <SystemInit+0xac>)
 8001396:	6819      	ldr	r1, [r3, #0]
 8001398:	481c      	ldr	r0, [pc, #112]	; (800140c <SystemInit+0xa4>)
 800139a:	f041 0101 	orr.w	r1, r1, #1
 800139e:	6019      	str	r1, [r3, #0]
 80013a0:	611c      	str	r4, [r3, #16]
 80013a2:	6819      	ldr	r1, [r3, #0]
 80013a4:	400a      	ands	r2, r1
 80013a6:	601a      	str	r2, [r3, #0]
 80013a8:	6803      	ldr	r3, [r0, #0]
 80013aa:	071b      	lsls	r3, r3, #28
 80013ac:	d505      	bpl.n	80013ba <SystemInit+0x52>
 80013ae:	6803      	ldr	r3, [r0, #0]
 80013b0:	f023 030f 	bic.w	r3, r3, #15
 80013b4:	f043 0307 	orr.w	r3, r3, #7
 80013b8:	6003      	str	r3, [r0, #0]
 80013ba:	4b15      	ldr	r3, [pc, #84]	; (8001410 <SystemInit+0xa8>)
 80013bc:	2200      	movs	r2, #0
 80013be:	4916      	ldr	r1, [pc, #88]	; (8001418 <SystemInit+0xb0>)
 80013c0:	4c16      	ldr	r4, [pc, #88]	; (800141c <SystemInit+0xb4>)
 80013c2:	4817      	ldr	r0, [pc, #92]	; (8001420 <SystemInit+0xb8>)
 80013c4:	619a      	str	r2, [r3, #24]
 80013c6:	61da      	str	r2, [r3, #28]
 80013c8:	621a      	str	r2, [r3, #32]
 80013ca:	629c      	str	r4, [r3, #40]	; 0x28
 80013cc:	62d8      	str	r0, [r3, #44]	; 0x2c
 80013ce:	6319      	str	r1, [r3, #48]	; 0x30
 80013d0:	635a      	str	r2, [r3, #52]	; 0x34
 80013d2:	6399      	str	r1, [r3, #56]	; 0x38
 80013d4:	63da      	str	r2, [r3, #60]	; 0x3c
 80013d6:	6419      	str	r1, [r3, #64]	; 0x40
 80013d8:	645a      	str	r2, [r3, #68]	; 0x44
 80013da:	6818      	ldr	r0, [r3, #0]
 80013dc:	4c11      	ldr	r4, [pc, #68]	; (8001424 <SystemInit+0xbc>)
 80013de:	f420 2080 	bic.w	r0, r0, #262144	; 0x40000
 80013e2:	4911      	ldr	r1, [pc, #68]	; (8001428 <SystemInit+0xc0>)
 80013e4:	6018      	str	r0, [r3, #0]
 80013e6:	661a      	str	r2, [r3, #96]	; 0x60
 80013e8:	6823      	ldr	r3, [r4, #0]
 80013ea:	4019      	ands	r1, r3
 80013ec:	f1b1 5f00 	cmp.w	r1, #536870912	; 0x20000000
 80013f0:	d202      	bcs.n	80013f8 <SystemInit+0x90>
 80013f2:	4b0e      	ldr	r3, [pc, #56]	; (800142c <SystemInit+0xc4>)
 80013f4:	2201      	movs	r2, #1
 80013f6:	601a      	str	r2, [r3, #0]
 80013f8:	4b0d      	ldr	r3, [pc, #52]	; (8001430 <SystemInit+0xc8>)
 80013fa:	f243 02d2 	movw	r2, #12498	; 0x30d2
 80013fe:	f85d 4b04 	ldr.w	r4, [sp], #4
 8001402:	601a      	str	r2, [r3, #0]
 8001404:	4770      	bx	lr
 8001406:	bf00      	nop
 8001408:	e000ed00 	.word	0xe000ed00
 800140c:	52002000 	.word	0x52002000
 8001410:	58024400 	.word	0x58024400
 8001414:	eaf6ed7f 	.word	0xeaf6ed7f
 8001418:	01010280 	.word	0x01010280
 800141c:	02020200 	.word	0x02020200
 8001420:	01ff0000 	.word	0x01ff0000
 8001424:	5c001000 	.word	0x5c001000
 8001428:	ffff0000 	.word	0xffff0000
 800142c:	51008108 	.word	0x51008108
 8001430:	52004000 	.word	0x52004000

08001434 <MX_TIM16_Init>:
 8001434:	b510      	push	{r4, lr}
 8001436:	480a      	ldr	r0, [pc, #40]	; (8001460 <MX_TIM16_Init+0x2c>)
 8001438:	2300      	movs	r3, #0
 800143a:	214f      	movs	r1, #79	; 0x4f
 800143c:	4c09      	ldr	r4, [pc, #36]	; (8001464 <MX_TIM16_Init+0x30>)
 800143e:	2227      	movs	r2, #39	; 0x27
 8001440:	6183      	str	r3, [r0, #24]
 8001442:	e9c0 4100 	strd	r4, r1, [r0]
 8001446:	e9c0 3202 	strd	r3, r2, [r0, #8]
 800144a:	e9c0 3304 	strd	r3, r3, [r0, #16]
 800144e:	f003 fa35 	bl	80048bc <HAL_TIM_Base_Init>
 8001452:	b900      	cbnz	r0, 8001456 <MX_TIM16_Init+0x22>
 8001454:	bd10      	pop	{r4, pc}
 8001456:	e8bd 4010 	ldmia.w	sp!, {r4, lr}
 800145a:	f7ff bf55 	b.w	8001308 <Error_Handler>
 800145e:	bf00      	nop
 8001460:	240042b8 	.word	0x240042b8
 8001464:	40014400 	.word	0x40014400

08001468 <HAL_TIM_Base_MspInit>:
 8001468:	4b0f      	ldr	r3, [pc, #60]	; (80014a8 <HAL_TIM_Base_MspInit+0x40>)
 800146a:	6802      	ldr	r2, [r0, #0]
 800146c:	429a      	cmp	r2, r3
 800146e:	d000      	beq.n	8001472 <HAL_TIM_Base_MspInit+0xa>
 8001470:	4770      	bx	lr
 8001472:	4b0e      	ldr	r3, [pc, #56]	; (80014ac <HAL_TIM_Base_MspInit+0x44>)
 8001474:	2200      	movs	r2, #0
 8001476:	2075      	movs	r0, #117	; 0x75
 8001478:	4611      	mov	r1, r2
 800147a:	b510      	push	{r4, lr}
 800147c:	f8d3 40f0 	ldr.w	r4, [r3, #240]	; 0xf0
 8001480:	b082      	sub	sp, #8
 8001482:	f444 3400 	orr.w	r4, r4, #131072	; 0x20000
 8001486:	f8c3 40f0 	str.w	r4, [r3, #240]	; 0xf0
 800148a:	f8d3 30f0 	ldr.w	r3, [r3, #240]	; 0xf0
 800148e:	f403 3300 	and.w	r3, r3, #131072	; 0x20000
 8001492:	9301      	str	r3, [sp, #4]
 8001494:	9b01      	ldr	r3, [sp, #4]
 8001496:	f000 ff71 	bl	800237c <HAL_NVIC_SetPriority>
 800149a:	2075      	movs	r0, #117	; 0x75
 800149c:	b002      	add	sp, #8
 800149e:	e8bd 4010 	ldmia.w	sp!, {r4, lr}
 80014a2:	f000 bfa5 	b.w	80023f0 <HAL_NVIC_EnableIRQ>
 80014a6:	bf00      	nop
 80014a8:	40014400 	.word	0x40014400
 80014ac:	58024400 	.word	0x58024400

080014b0 <Reset_Handler>:
 80014b0:	f8df d034 	ldr.w	sp, [pc, #52]	; 80014e8 <LoopFillZerobss+0xe>
 80014b4:	f7ff ff58 	bl	8001368 <SystemInit>
 80014b8:	480c      	ldr	r0, [pc, #48]	; (80014ec <LoopFillZerobss+0x12>)
 80014ba:	490d      	ldr	r1, [pc, #52]	; (80014f0 <LoopFillZerobss+0x16>)
 80014bc:	4a0d      	ldr	r2, [pc, #52]	; (80014f4 <LoopFillZerobss+0x1a>)
 80014be:	2300      	movs	r3, #0
 80014c0:	e002      	b.n	80014c8 <LoopCopyDataInit>

080014c2 <CopyDataInit>:
 80014c2:	58d4      	ldr	r4, [r2, r3]
 80014c4:	50c4      	str	r4, [r0, r3]
 80014c6:	3304      	adds	r3, #4

080014c8 <LoopCopyDataInit>:
 80014c8:	18c4      	adds	r4, r0, r3
 80014ca:	428c      	cmp	r4, r1
 80014cc:	d3f9      	bcc.n	80014c2 <CopyDataInit>
 80014ce:	4a0a      	ldr	r2, [pc, #40]	; (80014f8 <LoopFillZerobss+0x1e>)
 80014d0:	4c0a      	ldr	r4, [pc, #40]	; (80014fc <LoopFillZerobss+0x22>)
 80014d2:	2300      	movs	r3, #0
 80014d4:	e001      	b.n	80014da <LoopFillZerobss>

080014d6 <FillZerobss>:
 80014d6:	6013      	str	r3, [r2, #0]
 80014d8:	3204      	adds	r2, #4

080014da <LoopFillZerobss>:
 80014da:	42a2      	cmp	r2, r4
 80014dc:	d3fb      	bcc.n	80014d6 <FillZerobss>
 80014de:	f003 fbbd 	bl	8004c5c <__libc_init_array>
 80014e2:	f7ff fedd 	bl	80012a0 <main>
 80014e6:	4770      	bx	lr
 80014e8:	24080000 	.word	0x24080000
 80014ec:	24000000 	.word	0x24000000
 80014f0:	240040d8 	.word	0x240040d8
 80014f4:	08004d14 	.word	0x08004d14
 80014f8:	240040d8 	.word	0x240040d8
 80014fc:	24004308 	.word	0x24004308

08001500 <ADC3_IRQHandler>:
 8001500:	e7fe      	b.n	8001500 <ADC3_IRQHandler>
	...

08001504 <HAL_InitTick>:
 8001504:	4b0f      	ldr	r3, [pc, #60]	; (8001544 <HAL_InitTick+0x40>)
 8001506:	781b      	ldrb	r3, [r3, #0]
 8001508:	b90b      	cbnz	r3, 800150e <HAL_InitTick+0xa>
 800150a:	2001      	movs	r0, #1
 800150c:	4770      	bx	lr
 800150e:	b510      	push	{r4, lr}
 8001510:	4604      	mov	r4, r0
 8001512:	f44f 707a 	mov.w	r0, #1000	; 0x3e8
 8001516:	4a0c      	ldr	r2, [pc, #48]	; (8001548 <HAL_InitTick+0x44>)
 8001518:	fbb0 f3f3 	udiv	r3, r0, r3
 800151c:	6810      	ldr	r0, [r2, #0]
 800151e:	fbb0 f0f3 	udiv	r0, r0, r3
 8001522:	f000 ff73 	bl	800240c <HAL_SYSTICK_Config>
 8001526:	2c0f      	cmp	r4, #15
 8001528:	d800      	bhi.n	800152c <HAL_InitTick+0x28>
 800152a:	b108      	cbz	r0, 8001530 <HAL_InitTick+0x2c>
 800152c:	2001      	movs	r0, #1
 800152e:	bd10      	pop	{r4, pc}
 8001530:	2200      	movs	r2, #0
 8001532:	4621      	mov	r1, r4
 8001534:	f04f 30ff 	mov.w	r0, #4294967295
 8001538:	f000 ff20 	bl	800237c <HAL_NVIC_SetPriority>
 800153c:	4b03      	ldr	r3, [pc, #12]	; (800154c <HAL_InitTick+0x48>)
 800153e:	2000      	movs	r0, #0
 8001540:	601c      	str	r4, [r3, #0]
 8001542:	bd10      	pop	{r4, pc}
 8001544:	240040d0 	.word	0x240040d0
 8001548:	240040c8 	.word	0x240040c8
 800154c:	240040d4 	.word	0x240040d4

08001550 <HAL_Init>:
 8001550:	b538      	push	{r3, r4, r5, lr}
 8001552:	2003      	movs	r0, #3
 8001554:	4c12      	ldr	r4, [pc, #72]	; (80015a0 <HAL_Init+0x50>)
 8001556:	f000 fefd 	bl	8002354 <HAL_NVIC_SetPriorityGrouping>
 800155a:	4d12      	ldr	r5, [pc, #72]	; (80015a4 <HAL_Init+0x54>)
 800155c:	f001 fdd0 	bl	8003100 <HAL_RCC_GetSysClockFreq>
 8001560:	4b11      	ldr	r3, [pc, #68]	; (80015a8 <HAL_Init+0x58>)
 8001562:	4602      	mov	r2, r0
 8001564:	200f      	movs	r0, #15
 8001566:	6999      	ldr	r1, [r3, #24]
 8001568:	699b      	ldr	r3, [r3, #24]
 800156a:	f3c1 2103 	ubfx	r1, r1, #8, #4
 800156e:	4003      	ands	r3, r0
 8001570:	5c61      	ldrb	r1, [r4, r1]
 8001572:	5ce3      	ldrb	r3, [r4, r3]
 8001574:	f001 011f 	and.w	r1, r1, #31
 8001578:	4c0c      	ldr	r4, [pc, #48]	; (80015ac <HAL_Init+0x5c>)
 800157a:	f003 031f 	and.w	r3, r3, #31
 800157e:	40ca      	lsrs	r2, r1
 8001580:	fa22 f303 	lsr.w	r3, r2, r3
 8001584:	6022      	str	r2, [r4, #0]
 8001586:	602b      	str	r3, [r5, #0]
 8001588:	f7ff ffbc 	bl	8001504 <HAL_InitTick>
 800158c:	b110      	cbz	r0, 8001594 <HAL_Init+0x44>
 800158e:	2401      	movs	r4, #1
 8001590:	4620      	mov	r0, r4
 8001592:	bd38      	pop	{r3, r4, r5, pc}
 8001594:	4604      	mov	r4, r0
 8001596:	f7ff feb9 	bl	800130c <HAL_MspInit>
 800159a:	4620      	mov	r0, r4
 800159c:	bd38      	pop	{r3, r4, r5, pc}
 800159e:	bf00      	nop
 80015a0:	08004cfc 	.word	0x08004cfc
 80015a4:	240040cc 	.word	0x240040cc
 80015a8:	58024400 	.word	0x58024400
 80015ac:	240040c8 	.word	0x240040c8

080015b0 <HAL_IncTick>:
 80015b0:	4a03      	ldr	r2, [pc, #12]	; (80015c0 <HAL_IncTick+0x10>)
 80015b2:	4b04      	ldr	r3, [pc, #16]	; (80015c4 <HAL_IncTick+0x14>)
 80015b4:	6811      	ldr	r1, [r2, #0]
 80015b6:	781b      	ldrb	r3, [r3, #0]
 80015b8:	440b      	add	r3, r1
 80015ba:	6013      	str	r3, [r2, #0]
 80015bc:	4770      	bx	lr
 80015be:	bf00      	nop
 80015c0:	24004304 	.word	0x24004304
 80015c4:	240040d0 	.word	0x240040d0

080015c8 <HAL_GetTick>:
 80015c8:	4b01      	ldr	r3, [pc, #4]	; (80015d0 <HAL_GetTick+0x8>)
 80015ca:	6818      	ldr	r0, [r3, #0]
 80015cc:	4770      	bx	lr
 80015ce:	bf00      	nop
 80015d0:	24004304 	.word	0x24004304

080015d4 <HAL_Delay>:
 80015d4:	b538      	push	{r3, r4, r5, lr}
 80015d6:	4604      	mov	r4, r0
 80015d8:	f7ff fff6 	bl	80015c8 <HAL_GetTick>
 80015dc:	4605      	mov	r5, r0
 80015de:	1c63      	adds	r3, r4, #1
 80015e0:	d002      	beq.n	80015e8 <HAL_Delay+0x14>
 80015e2:	4b04      	ldr	r3, [pc, #16]	; (80015f4 <HAL_Delay+0x20>)
 80015e4:	781b      	ldrb	r3, [r3, #0]
 80015e6:	441c      	add	r4, r3
 80015e8:	f7ff ffee 	bl	80015c8 <HAL_GetTick>
 80015ec:	1b43      	subs	r3, r0, r5
 80015ee:	42a3      	cmp	r3, r4
 80015f0:	d3fa      	bcc.n	80015e8 <HAL_Delay+0x14>
 80015f2:	bd38      	pop	{r3, r4, r5, pc}
 80015f4:	240040d0 	.word	0x240040d0

080015f8 <HAL_GetREVID>:
 80015f8:	4b01      	ldr	r3, [pc, #4]	; (8001600 <HAL_GetREVID+0x8>)
 80015fa:	6818      	ldr	r0, [r3, #0]
 80015fc:	0c00      	lsrs	r0, r0, #16
 80015fe:	4770      	bx	lr
 8001600:	5c001000 	.word	0x5c001000

08001604 <HAL_ADC_PollForConversion>:
 8001604:	4a41      	ldr	r2, [pc, #260]	; (800170c <HAL_ADC_PollForConversion+0x108>)
 8001606:	6803      	ldr	r3, [r0, #0]
 8001608:	4293      	cmp	r3, r2
 800160a:	e92d 41f0 	stmdb	sp!, {r4, r5, r6, r7, r8, lr}
 800160e:	4605      	mov	r5, r0
 8001610:	460e      	mov	r6, r1
 8001612:	d043      	beq.n	800169c <HAL_ADC_PollForConversion+0x98>
 8001614:	f502 7280 	add.w	r2, r2, #256	; 0x100
 8001618:	4293      	cmp	r3, r2
 800161a:	d03f      	beq.n	800169c <HAL_ADC_PollForConversion+0x98>
 800161c:	4a3c      	ldr	r2, [pc, #240]	; (8001710 <HAL_ADC_PollForConversion+0x10c>)
 800161e:	692c      	ldr	r4, [r5, #16]
 8001620:	6897      	ldr	r7, [r2, #8]
 8001622:	2c08      	cmp	r4, #8
 8001624:	f007 071f 	and.w	r7, r7, #31
 8001628:	d00a      	beq.n	8001640 <HAL_ADC_PollForConversion+0x3c>
 800162a:	2f09      	cmp	r7, #9
 800162c:	d84f      	bhi.n	80016ce <HAL_ADC_PollForConversion+0xca>
 800162e:	f240 2121 	movw	r1, #545	; 0x221
 8001632:	40f9      	lsrs	r1, r7
 8001634:	07c9      	lsls	r1, r1, #31
 8001636:	d54a      	bpl.n	80016ce <HAL_ADC_PollForConversion+0xca>
 8001638:	68db      	ldr	r3, [r3, #12]
 800163a:	07da      	lsls	r2, r3, #31
 800163c:	d44b      	bmi.n	80016d6 <HAL_ADC_PollForConversion+0xd2>
 800163e:	2404      	movs	r4, #4
 8001640:	f7ff ffc2 	bl	80015c8 <HAL_GetTick>
 8001644:	682a      	ldr	r2, [r5, #0]
 8001646:	4680      	mov	r8, r0
 8001648:	1c73      	adds	r3, r6, #1
 800164a:	d129      	bne.n	80016a0 <HAL_ADC_PollForConversion+0x9c>
 800164c:	6813      	ldr	r3, [r2, #0]
 800164e:	421c      	tst	r4, r3
 8001650:	d0fc      	beq.n	800164c <HAL_ADC_PollForConversion+0x48>
 8001652:	6d6b      	ldr	r3, [r5, #84]	; 0x54
 8001654:	f443 7300 	orr.w	r3, r3, #512	; 0x200
 8001658:	656b      	str	r3, [r5, #84]	; 0x54
 800165a:	68d3      	ldr	r3, [r2, #12]
 800165c:	f413 6f40 	tst.w	r3, #3072	; 0xc00
 8001660:	d10f      	bne.n	8001682 <HAL_ADC_PollForConversion+0x7e>
 8001662:	7d6b      	ldrb	r3, [r5, #21]
 8001664:	b96b      	cbnz	r3, 8001682 <HAL_ADC_PollForConversion+0x7e>
 8001666:	6813      	ldr	r3, [r2, #0]
 8001668:	0718      	lsls	r0, r3, #28
 800166a:	d50a      	bpl.n	8001682 <HAL_ADC_PollForConversion+0x7e>
 800166c:	6d6b      	ldr	r3, [r5, #84]	; 0x54
 800166e:	f423 7380 	bic.w	r3, r3, #256	; 0x100
 8001672:	656b      	str	r3, [r5, #84]	; 0x54
 8001674:	6d6b      	ldr	r3, [r5, #84]	; 0x54
 8001676:	04d9      	lsls	r1, r3, #19
 8001678:	d403      	bmi.n	8001682 <HAL_ADC_PollForConversion+0x7e>
 800167a:	6d6b      	ldr	r3, [r5, #84]	; 0x54
 800167c:	f043 0301 	orr.w	r3, r3, #1
 8001680:	656b      	str	r3, [r5, #84]	; 0x54
 8001682:	4b24      	ldr	r3, [pc, #144]	; (8001714 <HAL_ADC_PollForConversion+0x110>)
 8001684:	429a      	cmp	r2, r3
 8001686:	d031      	beq.n	80016ec <HAL_ADC_PollForConversion+0xe8>
 8001688:	68d0      	ldr	r0, [r2, #12]
 800168a:	2c08      	cmp	r4, #8
 800168c:	d02a      	beq.n	80016e4 <HAL_ADC_PollForConversion+0xe0>
 800168e:	f410 4080 	ands.w	r0, r0, #16384	; 0x4000
 8001692:	d137      	bne.n	8001704 <HAL_ADC_PollForConversion+0x100>
 8001694:	230c      	movs	r3, #12
 8001696:	6013      	str	r3, [r2, #0]
 8001698:	e8bd 81f0 	ldmia.w	sp!, {r4, r5, r6, r7, r8, pc}
 800169c:	4a1e      	ldr	r2, [pc, #120]	; (8001718 <HAL_ADC_PollForConversion+0x114>)
 800169e:	e7be      	b.n	800161e <HAL_ADC_PollForConversion+0x1a>
 80016a0:	6813      	ldr	r3, [r2, #0]
 80016a2:	4223      	tst	r3, r4
 80016a4:	d1d5      	bne.n	8001652 <HAL_ADC_PollForConversion+0x4e>
 80016a6:	f7ff ff8f 	bl	80015c8 <HAL_GetTick>
 80016aa:	eba0 0008 	sub.w	r0, r0, r8
 80016ae:	682a      	ldr	r2, [r5, #0]
 80016b0:	42b0      	cmp	r0, r6
 80016b2:	d801      	bhi.n	80016b8 <HAL_ADC_PollForConversion+0xb4>
 80016b4:	2e00      	cmp	r6, #0
 80016b6:	d1c7      	bne.n	8001648 <HAL_ADC_PollForConversion+0x44>
 80016b8:	6813      	ldr	r3, [r2, #0]
 80016ba:	4023      	ands	r3, r4
 80016bc:	d1c4      	bne.n	8001648 <HAL_ADC_PollForConversion+0x44>
 80016be:	6d6a      	ldr	r2, [r5, #84]	; 0x54
 80016c0:	2003      	movs	r0, #3
 80016c2:	f885 3050 	strb.w	r3, [r5, #80]	; 0x50
 80016c6:	f042 0204 	orr.w	r2, r2, #4
 80016ca:	656a      	str	r2, [r5, #84]	; 0x54
 80016cc:	e7e4      	b.n	8001698 <HAL_ADC_PollForConversion+0x94>
 80016ce:	6893      	ldr	r3, [r2, #8]
 80016d0:	f413 4f40 	tst.w	r3, #49152	; 0xc000
 80016d4:	d0b3      	beq.n	800163e <HAL_ADC_PollForConversion+0x3a>
 80016d6:	6d6b      	ldr	r3, [r5, #84]	; 0x54
 80016d8:	2001      	movs	r0, #1
 80016da:	f043 0320 	orr.w	r3, r3, #32
 80016de:	656b      	str	r3, [r5, #84]	; 0x54
 80016e0:	e8bd 81f0 	ldmia.w	sp!, {r4, r5, r6, r7, r8, pc}
 80016e4:	2000      	movs	r0, #0
 80016e6:	6014      	str	r4, [r2, #0]
 80016e8:	e8bd 81f0 	ldmia.w	sp!, {r4, r5, r6, r7, r8, pc}
 80016ec:	2f09      	cmp	r7, #9
 80016ee:	d902      	bls.n	80016f6 <HAL_ADC_PollForConversion+0xf2>
 80016f0:	4b06      	ldr	r3, [pc, #24]	; (800170c <HAL_ADC_PollForConversion+0x108>)
 80016f2:	68d8      	ldr	r0, [r3, #12]
 80016f4:	e7c9      	b.n	800168a <HAL_ADC_PollForConversion+0x86>
 80016f6:	f240 2321 	movw	r3, #545	; 0x221
 80016fa:	fa23 f707 	lsr.w	r7, r3, r7
 80016fe:	07fb      	lsls	r3, r7, #31
 8001700:	d4c2      	bmi.n	8001688 <HAL_ADC_PollForConversion+0x84>
 8001702:	e7f5      	b.n	80016f0 <HAL_ADC_PollForConversion+0xec>
 8001704:	2000      	movs	r0, #0
 8001706:	e8bd 81f0 	ldmia.w	sp!, {r4, r5, r6, r7, r8, pc}
 800170a:	bf00      	nop
 800170c:	40022000 	.word	0x40022000
 8001710:	58026300 	.word	0x58026300
 8001714:	40022100 	.word	0x40022100
 8001718:	40022300 	.word	0x40022300

0800171c <HAL_ADC_GetValue>:
 800171c:	6803      	ldr	r3, [r0, #0]
 800171e:	6c18      	ldr	r0, [r3, #64]	; 0x40
 8001720:	4770      	bx	lr
 8001722:	bf00      	nop

08001724 <HAL_ADC_ConfigChannel>:
 8001724:	b5f0      	push	{r4, r5, r6, r7, lr}
 8001726:	2200      	movs	r2, #0
 8001728:	b083      	sub	sp, #12
 800172a:	9201      	str	r2, [sp, #4]
 800172c:	f890 2050 	ldrb.w	r2, [r0, #80]	; 0x50
 8001730:	2a01      	cmp	r2, #1
 8001732:	f000 813a 	beq.w	80019aa <HAL_ADC_ConfigChannel+0x286>
 8001736:	4603      	mov	r3, r0
 8001738:	2001      	movs	r0, #1
 800173a:	681a      	ldr	r2, [r3, #0]
 800173c:	f883 0050 	strb.w	r0, [r3, #80]	; 0x50
 8001740:	6894      	ldr	r4, [r2, #8]
 8001742:	0766      	lsls	r6, r4, #29
 8001744:	f100 8099 	bmi.w	800187a <HAL_ADC_ConfigChannel+0x156>
 8001748:	680c      	ldr	r4, [r1, #0]
 800174a:	f3c4 0513 	ubfx	r5, r4, #0, #20
 800174e:	2d00      	cmp	r5, #0
 8001750:	f040 809e 	bne.w	8001890 <HAL_ADC_ConfigChannel+0x16c>
 8001754:	f3c4 6c84 	ubfx	ip, r4, #26, #5
 8001758:	fa00 f00c 	lsl.w	r0, r0, ip
 800175c:	684c      	ldr	r4, [r1, #4]
 800175e:	261f      	movs	r6, #31
 8001760:	69d5      	ldr	r5, [r2, #28]
 8001762:	09a7      	lsrs	r7, r4, #6
 8001764:	4034      	ands	r4, r6
 8001766:	4328      	orrs	r0, r5
 8001768:	f102 0530 	add.w	r5, r2, #48	; 0x30
 800176c:	f007 070c 	and.w	r7, r7, #12
 8001770:	40a6      	lsls	r6, r4
 8001772:	61d0      	str	r0, [r2, #28]
 8001774:	fa0c f404 	lsl.w	r4, ip, r4
 8001778:	5978      	ldr	r0, [r7, r5]
 800177a:	ea20 0006 	bic.w	r0, r0, r6
 800177e:	4320      	orrs	r0, r4
 8001780:	5178      	str	r0, [r7, r5]
 8001782:	6890      	ldr	r0, [r2, #8]
 8001784:	0745      	lsls	r5, r0, #29
 8001786:	f100 8081 	bmi.w	800188c <HAL_ADC_ConfigChannel+0x168>
 800178a:	6895      	ldr	r5, [r2, #8]
 800178c:	f015 0508 	ands.w	r5, r5, #8
 8001790:	d157      	bne.n	8001842 <HAL_ADC_ConfigChannel+0x11e>
 8001792:	680c      	ldr	r4, [r1, #0]
 8001794:	f102 0614 	add.w	r6, r2, #20
 8001798:	2007      	movs	r0, #7
 800179a:	688f      	ldr	r7, [r1, #8]
 800179c:	ea4f 5cd4 	mov.w	ip, r4, lsr #23
 80017a0:	f3c4 5404 	ubfx	r4, r4, #20, #5
 80017a4:	f00c 0c04 	and.w	ip, ip, #4
 80017a8:	fa00 fe04 	lsl.w	lr, r0, r4
 80017ac:	fa07 f404 	lsl.w	r4, r7, r4
 80017b0:	4fc4      	ldr	r7, [pc, #784]	; (8001ac4 <HAL_ADC_ConfigChannel+0x3a0>)
 80017b2:	f85c 0006 	ldr.w	r0, [ip, r6]
 80017b6:	ea20 000e 	bic.w	r0, r0, lr
 80017ba:	4320      	orrs	r0, r4
 80017bc:	f84c 0006 	str.w	r0, [ip, r6]
 80017c0:	6838      	ldr	r0, [r7, #0]
 80017c2:	f000 4070 	and.w	r0, r0, #4026531840	; 0xf0000000
 80017c6:	f1b0 5f80 	cmp.w	r0, #268435456	; 0x10000000
 80017ca:	f000 8098 	beq.w	80018fe <HAL_ADC_ConfigChannel+0x1da>
 80017ce:	68d0      	ldr	r0, [r2, #12]
 80017d0:	68d6      	ldr	r6, [r2, #12]
 80017d2:	f010 0f10 	tst.w	r0, #16
 80017d6:	6948      	ldr	r0, [r1, #20]
 80017d8:	f040 8107 	bne.w	80019ea <HAL_ADC_ConfigChannel+0x2c6>
 80017dc:	f3c6 0682 	ubfx	r6, r6, #2, #3
 80017e0:	0076      	lsls	r6, r6, #1
 80017e2:	fa00 f606 	lsl.w	r6, r0, r6
 80017e6:	690f      	ldr	r7, [r1, #16]
 80017e8:	2f04      	cmp	r7, #4
 80017ea:	f000 80e1 	beq.w	80019b0 <HAL_ADC_ConfigChannel+0x28c>
 80017ee:	f102 0460 	add.w	r4, r2, #96	; 0x60
 80017f2:	6808      	ldr	r0, [r1, #0]
 80017f4:	f854 c027 	ldr.w	ip, [r4, r7, lsl #2]
 80017f8:	f000 40f8 	and.w	r0, r0, #2080374784	; 0x7c000000
 80017fc:	f00c 4c00 	and.w	ip, ip, #2147483648	; 0x80000000
 8001800:	ea40 000c 	orr.w	r0, r0, ip
 8001804:	4330      	orrs	r0, r6
 8001806:	f844 0027 	str.w	r0, [r4, r7, lsl #2]
 800180a:	7e4f      	ldrb	r7, [r1, #25]
 800180c:	690e      	ldr	r6, [r1, #16]
 800180e:	2f01      	cmp	r7, #1
 8001810:	f854 0026 	ldr.w	r0, [r4, r6, lsl #2]
 8001814:	bf0c      	ite	eq
 8001816:	f04f 4700 	moveq.w	r7, #2147483648	; 0x80000000
 800181a:	2700      	movne	r7, #0
 800181c:	f020 4000 	bic.w	r0, r0, #2147483648	; 0x80000000
 8001820:	4338      	orrs	r0, r7
 8001822:	f844 0026 	str.w	r0, [r4, r6, lsl #2]
 8001826:	7e0c      	ldrb	r4, [r1, #24]
 8001828:	6908      	ldr	r0, [r1, #16]
 800182a:	2c01      	cmp	r4, #1
 800182c:	d104      	bne.n	8001838 <HAL_ADC_ConfigChannel+0x114>
 800182e:	f000 001f 	and.w	r0, r0, #31
 8001832:	f44f 6500 	mov.w	r5, #2048	; 0x800
 8001836:	4085      	lsls	r5, r0
 8001838:	6910      	ldr	r0, [r2, #16]
 800183a:	f420 40f0 	bic.w	r0, r0, #30720	; 0x7800
 800183e:	4305      	orrs	r5, r0
 8001840:	6115      	str	r5, [r2, #16]
 8001842:	6890      	ldr	r0, [r2, #8]
 8001844:	07c4      	lsls	r4, r0, #31
 8001846:	d416      	bmi.n	8001876 <HAL_ADC_ConfigChannel+0x152>
 8001848:	68ce      	ldr	r6, [r1, #12]
 800184a:	6808      	ldr	r0, [r1, #0]
 800184c:	f006 0718 	and.w	r7, r6, #24
 8001850:	4c9d      	ldr	r4, [pc, #628]	; (8001ac8 <HAL_ADC_ConfigChannel+0x3a4>)
 8001852:	f8d2 50c0 	ldr.w	r5, [r2, #192]	; 0xc0
 8001856:	40fc      	lsrs	r4, r7
 8001858:	f3c0 0713 	ubfx	r7, r0, #0, #20
 800185c:	f8df c28c 	ldr.w	ip, [pc, #652]	; 8001aec <HAL_ADC_ConfigChannel+0x3c8>
 8001860:	4004      	ands	r4, r0
 8001862:	ea25 0507 	bic.w	r5, r5, r7
 8001866:	4566      	cmp	r6, ip
 8001868:	ea44 0405 	orr.w	r4, r4, r5
 800186c:	f8c2 40c0 	str.w	r4, [r2, #192]	; 0xc0
 8001870:	d04d      	beq.n	800190e <HAL_ADC_ConfigChannel+0x1ea>
 8001872:	2800      	cmp	r0, #0
 8001874:	db15      	blt.n	80018a2 <HAL_ADC_ConfigChannel+0x17e>
 8001876:	2000      	movs	r0, #0
 8001878:	e003      	b.n	8001882 <HAL_ADC_ConfigChannel+0x15e>
 800187a:	6d5a      	ldr	r2, [r3, #84]	; 0x54
 800187c:	f042 0220 	orr.w	r2, r2, #32
 8001880:	655a      	str	r2, [r3, #84]	; 0x54
 8001882:	2200      	movs	r2, #0
 8001884:	f883 2050 	strb.w	r2, [r3, #80]	; 0x50
 8001888:	b003      	add	sp, #12
 800188a:	bdf0      	pop	{r4, r5, r6, r7, pc}
 800188c:	6890      	ldr	r0, [r2, #8]
 800188e:	e7d8      	b.n	8001842 <HAL_ADC_ConfigChannel+0x11e>
 8001890:	fa94 f5a4 	rbit	r5, r4
 8001894:	b115      	cbz	r5, 800189c <HAL_ADC_ConfigChannel+0x178>
 8001896:	fab5 f585 	clz	r5, r5
 800189a:	40a8      	lsls	r0, r5
 800189c:	f3c4 6c84 	ubfx	ip, r4, #26, #5
 80018a0:	e75c      	b.n	800175c <HAL_ADC_ConfigChannel+0x38>
 80018a2:	498a      	ldr	r1, [pc, #552]	; (8001acc <HAL_ADC_ConfigChannel+0x3a8>)
 80018a4:	428a      	cmp	r2, r1
 80018a6:	f000 80c6 	beq.w	8001a36 <HAL_ADC_ConfigChannel+0x312>
 80018aa:	f501 7180 	add.w	r1, r1, #256	; 0x100
 80018ae:	428a      	cmp	r2, r1
 80018b0:	f000 80c1 	beq.w	8001a36 <HAL_ADC_ConfigChannel+0x312>
 80018b4:	4e86      	ldr	r6, [pc, #536]	; (8001ad0 <HAL_ADC_ConfigChannel+0x3ac>)
 80018b6:	4d87      	ldr	r5, [pc, #540]	; (8001ad4 <HAL_ADC_ConfigChannel+0x3b0>)
 80018b8:	68a9      	ldr	r1, [r5, #8]
 80018ba:	68b4      	ldr	r4, [r6, #8]
 80018bc:	f001 76e0 	and.w	r6, r1, #29360128	; 0x1c00000
 80018c0:	43e4      	mvns	r4, r4
 80018c2:	f004 0401 	and.w	r4, r4, #1
 80018c6:	2c00      	cmp	r4, #0
 80018c8:	f000 80c3 	beq.w	8001a52 <HAL_ADC_ConfigChannel+0x32e>
 80018cc:	4c82      	ldr	r4, [pc, #520]	; (8001ad8 <HAL_ADC_ConfigChannel+0x3b4>)
 80018ce:	42a0      	cmp	r0, r4
 80018d0:	f000 810e 	beq.w	8001af0 <HAL_ADC_ConfigChannel+0x3cc>
 80018d4:	4c81      	ldr	r4, [pc, #516]	; (8001adc <HAL_ADC_ConfigChannel+0x3b8>)
 80018d6:	42a0      	cmp	r0, r4
 80018d8:	f000 812d 	beq.w	8001b36 <HAL_ADC_ConfigChannel+0x412>
 80018dc:	4c80      	ldr	r4, [pc, #512]	; (8001ae0 <HAL_ADC_ConfigChannel+0x3bc>)
 80018de:	42a0      	cmp	r0, r4
 80018e0:	d1c9      	bne.n	8001876 <HAL_ADC_ConfigChannel+0x152>
 80018e2:	0249      	lsls	r1, r1, #9
 80018e4:	d4c7      	bmi.n	8001876 <HAL_ADC_ConfigChannel+0x152>
 80018e6:	497a      	ldr	r1, [pc, #488]	; (8001ad0 <HAL_ADC_ConfigChannel+0x3ac>)
 80018e8:	428a      	cmp	r2, r1
 80018ea:	d1c4      	bne.n	8001876 <HAL_ADC_ConfigChannel+0x152>
 80018ec:	68aa      	ldr	r2, [r5, #8]
 80018ee:	2000      	movs	r0, #0
 80018f0:	f022 72e0 	bic.w	r2, r2, #29360128	; 0x1c00000
 80018f4:	4332      	orrs	r2, r6
 80018f6:	f442 0280 	orr.w	r2, r2, #4194304	; 0x400000
 80018fa:	60aa      	str	r2, [r5, #8]
 80018fc:	e7c1      	b.n	8001882 <HAL_ADC_ConfigChannel+0x15e>
 80018fe:	68d6      	ldr	r6, [r2, #12]
 8001900:	6948      	ldr	r0, [r1, #20]
 8001902:	f3c6 0682 	ubfx	r6, r6, #2, #3
 8001906:	0076      	lsls	r6, r6, #1
 8001908:	fa00 f606 	lsl.w	r6, r0, r6
 800190c:	e76b      	b.n	80017e6 <HAL_ADC_ConfigChannel+0xc2>
 800190e:	2f00      	cmp	r7, #0
 8001910:	d071      	beq.n	80019f6 <HAL_ADC_ConfigChannel+0x2d2>
 8001912:	fa90 f4a0 	rbit	r4, r0
 8001916:	2c00      	cmp	r4, #0
 8001918:	f000 80af 	beq.w	8001a7a <HAL_ADC_ConfigChannel+0x356>
 800191c:	fab4 f484 	clz	r4, r4
 8001920:	3401      	adds	r4, #1
 8001922:	f004 041f 	and.w	r4, r4, #31
 8001926:	2c09      	cmp	r4, #9
 8001928:	f240 80a7 	bls.w	8001a7a <HAL_ADC_ConfigChannel+0x356>
 800192c:	fa90 f5a0 	rbit	r5, r0
 8001930:	2d00      	cmp	r5, #0
 8001932:	f000 8114 	beq.w	8001b5e <HAL_ADC_ConfigChannel+0x43a>
 8001936:	fab5 f585 	clz	r5, r5
 800193a:	3501      	adds	r5, #1
 800193c:	06ad      	lsls	r5, r5, #26
 800193e:	f005 45f8 	and.w	r5, r5, #2080374784	; 0x7c000000
 8001942:	fa90 f4a0 	rbit	r4, r0
 8001946:	2c00      	cmp	r4, #0
 8001948:	f000 8107 	beq.w	8001b5a <HAL_ADC_ConfigChannel+0x436>
 800194c:	2601      	movs	r6, #1
 800194e:	fab4 f484 	clz	r4, r4
 8001952:	4434      	add	r4, r6
 8001954:	f004 041f 	and.w	r4, r4, #31
 8001958:	fa06 f404 	lsl.w	r4, r6, r4
 800195c:	4325      	orrs	r5, r4
 800195e:	fa90 f0a0 	rbit	r0, r0
 8001962:	2800      	cmp	r0, #0
 8001964:	f000 80f7 	beq.w	8001b56 <HAL_ADC_ConfigChannel+0x432>
 8001968:	fab0 f480 	clz	r4, r0
 800196c:	3401      	adds	r4, #1
 800196e:	f004 041f 	and.w	r4, r4, #31
 8001972:	eb04 0444 	add.w	r4, r4, r4, lsl #1
 8001976:	f1a4 001e 	sub.w	r0, r4, #30
 800197a:	0500      	lsls	r0, r0, #20
 800197c:	f040 7000 	orr.w	r0, r0, #33554432	; 0x2000000
 8001980:	4328      	orrs	r0, r5
 8001982:	f04f 0c07 	mov.w	ip, #7
 8001986:	f102 0514 	add.w	r5, r2, #20
 800198a:	688e      	ldr	r6, [r1, #8]
 800198c:	0dc7      	lsrs	r7, r0, #23
 800198e:	f3c0 5004 	ubfx	r0, r0, #20, #5
 8001992:	f007 0704 	and.w	r7, r7, #4
 8001996:	fa0c fc00 	lsl.w	ip, ip, r0
 800199a:	4086      	lsls	r6, r0
 800199c:	597c      	ldr	r4, [r7, r5]
 800199e:	ea24 000c 	bic.w	r0, r4, ip
 80019a2:	4330      	orrs	r0, r6
 80019a4:	5178      	str	r0, [r7, r5]
 80019a6:	6808      	ldr	r0, [r1, #0]
 80019a8:	e763      	b.n	8001872 <HAL_ADC_ConfigChannel+0x14e>
 80019aa:	2002      	movs	r0, #2
 80019ac:	b003      	add	sp, #12
 80019ae:	bdf0      	pop	{r4, r5, r6, r7, pc}
 80019b0:	6e10      	ldr	r0, [r2, #96]	; 0x60
 80019b2:	680d      	ldr	r5, [r1, #0]
 80019b4:	f000 40f8 	and.w	r0, r0, #2080374784	; 0x7c000000
 80019b8:	06ac      	lsls	r4, r5, #26
 80019ba:	ebb0 6f85 	cmp.w	r0, r5, lsl #26
 80019be:	d030      	beq.n	8001a22 <HAL_ADC_ConfigChannel+0x2fe>
 80019c0:	6e50      	ldr	r0, [r2, #100]	; 0x64
 80019c2:	f000 40f8 	and.w	r0, r0, #2080374784	; 0x7c000000
 80019c6:	4284      	cmp	r4, r0
 80019c8:	d026      	beq.n	8001a18 <HAL_ADC_ConfigChannel+0x2f4>
 80019ca:	6e90      	ldr	r0, [r2, #104]	; 0x68
 80019cc:	f000 40f8 	and.w	r0, r0, #2080374784	; 0x7c000000
 80019d0:	4284      	cmp	r4, r0
 80019d2:	d02b      	beq.n	8001a2c <HAL_ADC_ConfigChannel+0x308>
 80019d4:	6ed0      	ldr	r0, [r2, #108]	; 0x6c
 80019d6:	f000 40f8 	and.w	r0, r0, #2080374784	; 0x7c000000
 80019da:	4284      	cmp	r4, r0
 80019dc:	f47f af31 	bne.w	8001842 <HAL_ADC_ConfigChannel+0x11e>
 80019e0:	6ed0      	ldr	r0, [r2, #108]	; 0x6c
 80019e2:	f020 4000 	bic.w	r0, r0, #2147483648	; 0x80000000
 80019e6:	66d0      	str	r0, [r2, #108]	; 0x6c
 80019e8:	e72b      	b.n	8001842 <HAL_ADC_ConfigChannel+0x11e>
 80019ea:	0876      	lsrs	r6, r6, #1
 80019ec:	f006 0608 	and.w	r6, r6, #8
 80019f0:	fa00 f606 	lsl.w	r6, r0, r6
 80019f4:	e6f7      	b.n	80017e6 <HAL_ADC_ConfigChannel+0xc2>
 80019f6:	0e80      	lsrs	r0, r0, #26
 80019f8:	1c44      	adds	r4, r0, #1
 80019fa:	f004 061f 	and.w	r6, r4, #31
 80019fe:	2e09      	cmp	r6, #9
 8001a00:	d82d      	bhi.n	8001a5e <HAL_ADC_ConfigChannel+0x33a>
 8001a02:	06a5      	lsls	r5, r4, #26
 8001a04:	2401      	movs	r4, #1
 8001a06:	eb06 0046 	add.w	r0, r6, r6, lsl #1
 8001a0a:	f005 45f8 	and.w	r5, r5, #2080374784	; 0x7c000000
 8001a0e:	fa04 f606 	lsl.w	r6, r4, r6
 8001a12:	0500      	lsls	r0, r0, #20
 8001a14:	4335      	orrs	r5, r6
 8001a16:	e7b3      	b.n	8001980 <HAL_ADC_ConfigChannel+0x25c>
 8001a18:	6e50      	ldr	r0, [r2, #100]	; 0x64
 8001a1a:	f020 4000 	bic.w	r0, r0, #2147483648	; 0x80000000
 8001a1e:	6650      	str	r0, [r2, #100]	; 0x64
 8001a20:	e7d3      	b.n	80019ca <HAL_ADC_ConfigChannel+0x2a6>
 8001a22:	6e10      	ldr	r0, [r2, #96]	; 0x60
 8001a24:	f020 4000 	bic.w	r0, r0, #2147483648	; 0x80000000
 8001a28:	6610      	str	r0, [r2, #96]	; 0x60
 8001a2a:	e7c9      	b.n	80019c0 <HAL_ADC_ConfigChannel+0x29c>
 8001a2c:	6e90      	ldr	r0, [r2, #104]	; 0x68
 8001a2e:	f020 4000 	bic.w	r0, r0, #2147483648	; 0x80000000
 8001a32:	6690      	str	r0, [r2, #104]	; 0x68
 8001a34:	e7ce      	b.n	80019d4 <HAL_ADC_ConfigChannel+0x2b0>
 8001a36:	492b      	ldr	r1, [pc, #172]	; (8001ae4 <HAL_ADC_ConfigChannel+0x3c0>)
 8001a38:	4e24      	ldr	r6, [pc, #144]	; (8001acc <HAL_ADC_ConfigChannel+0x3a8>)
 8001a3a:	4c2b      	ldr	r4, [pc, #172]	; (8001ae8 <HAL_ADC_ConfigChannel+0x3c4>)
 8001a3c:	460d      	mov	r5, r1
 8001a3e:	6889      	ldr	r1, [r1, #8]
 8001a40:	68b7      	ldr	r7, [r6, #8]
 8001a42:	68a4      	ldr	r4, [r4, #8]
 8001a44:	f001 76e0 	and.w	r6, r1, #29360128	; 0x1c00000
 8001a48:	433c      	orrs	r4, r7
 8001a4a:	43e4      	mvns	r4, r4
 8001a4c:	f004 0401 	and.w	r4, r4, #1
 8001a50:	e739      	b.n	80018c6 <HAL_ADC_ConfigChannel+0x1a2>
 8001a52:	6d5a      	ldr	r2, [r3, #84]	; 0x54
 8001a54:	2001      	movs	r0, #1
 8001a56:	f042 0220 	orr.w	r2, r2, #32
 8001a5a:	655a      	str	r2, [r3, #84]	; 0x54
 8001a5c:	e711      	b.n	8001882 <HAL_ADC_ConfigChannel+0x15e>
 8001a5e:	eb06 0046 	add.w	r0, r6, r6, lsl #1
 8001a62:	2701      	movs	r7, #1
 8001a64:	06a5      	lsls	r5, r4, #26
 8001a66:	381e      	subs	r0, #30
 8001a68:	fa07 f606 	lsl.w	r6, r7, r6
 8001a6c:	f005 45f8 	and.w	r5, r5, #2080374784	; 0x7c000000
 8001a70:	0500      	lsls	r0, r0, #20
 8001a72:	4335      	orrs	r5, r6
 8001a74:	f040 7000 	orr.w	r0, r0, #33554432	; 0x2000000
 8001a78:	e782      	b.n	8001980 <HAL_ADC_ConfigChannel+0x25c>
 8001a7a:	fa90 f5a0 	rbit	r5, r0
 8001a7e:	2d00      	cmp	r5, #0
 8001a80:	d075      	beq.n	8001b6e <HAL_ADC_ConfigChannel+0x44a>
 8001a82:	fab5 f585 	clz	r5, r5
 8001a86:	3501      	adds	r5, #1
 8001a88:	06ad      	lsls	r5, r5, #26
 8001a8a:	f005 45f8 	and.w	r5, r5, #2080374784	; 0x7c000000
 8001a8e:	fa90 f4a0 	rbit	r4, r0
 8001a92:	2c00      	cmp	r4, #0
 8001a94:	d069      	beq.n	8001b6a <HAL_ADC_ConfigChannel+0x446>
 8001a96:	2601      	movs	r6, #1
 8001a98:	fab4 f484 	clz	r4, r4
 8001a9c:	4434      	add	r4, r6
 8001a9e:	f004 041f 	and.w	r4, r4, #31
 8001aa2:	fa06 f404 	lsl.w	r4, r6, r4
 8001aa6:	4325      	orrs	r5, r4
 8001aa8:	fa90 f0a0 	rbit	r0, r0
 8001aac:	2800      	cmp	r0, #0
 8001aae:	d059      	beq.n	8001b64 <HAL_ADC_ConfigChannel+0x440>
 8001ab0:	fab0 f480 	clz	r4, r0
 8001ab4:	3401      	adds	r4, #1
 8001ab6:	f004 041f 	and.w	r4, r4, #31
 8001aba:	eb04 0444 	add.w	r4, r4, r4, lsl #1
 8001abe:	0520      	lsls	r0, r4, #20
 8001ac0:	e75e      	b.n	8001980 <HAL_ADC_ConfigChannel+0x25c>
 8001ac2:	bf00      	nop
 8001ac4:	5c001000 	.word	0x5c001000
 8001ac8:	000fffff 	.word	0x000fffff
 8001acc:	40022000 	.word	0x40022000
 8001ad0:	58026000 	.word	0x58026000
 8001ad4:	58026300 	.word	0x58026300
 8001ad8:	cb840000 	.word	0xcb840000
 8001adc:	c7520000 	.word	0xc7520000
 8001ae0:	cfb80000 	.word	0xcfb80000
 8001ae4:	40022300 	.word	0x40022300
 8001ae8:	40022100 	.word	0x40022100
 8001aec:	47ff0000 	.word	0x47ff0000
 8001af0:	0208      	lsls	r0, r1, #8
 8001af2:	f53f aec0 	bmi.w	8001876 <HAL_ADC_ConfigChannel+0x152>
 8001af6:	491f      	ldr	r1, [pc, #124]	; (8001b74 <HAL_ADC_ConfigChannel+0x450>)
 8001af8:	428a      	cmp	r2, r1
 8001afa:	f47f aebc 	bne.w	8001876 <HAL_ADC_ConfigChannel+0x152>
 8001afe:	4a1e      	ldr	r2, [pc, #120]	; (8001b78 <HAL_ADC_ConfigChannel+0x454>)
 8001b00:	481e      	ldr	r0, [pc, #120]	; (8001b7c <HAL_ADC_ConfigChannel+0x458>)
 8001b02:	6812      	ldr	r2, [r2, #0]
 8001b04:	68a9      	ldr	r1, [r5, #8]
 8001b06:	0992      	lsrs	r2, r2, #6
 8001b08:	f021 71e0 	bic.w	r1, r1, #29360128	; 0x1c00000
 8001b0c:	fba0 0202 	umull	r0, r2, r0, r2
 8001b10:	4331      	orrs	r1, r6
 8001b12:	0992      	lsrs	r2, r2, #6
 8001b14:	f441 0100 	orr.w	r1, r1, #8388608	; 0x800000
 8001b18:	3201      	adds	r2, #1
 8001b1a:	60a9      	str	r1, [r5, #8]
 8001b1c:	0052      	lsls	r2, r2, #1
 8001b1e:	9201      	str	r2, [sp, #4]
 8001b20:	9a01      	ldr	r2, [sp, #4]
 8001b22:	2a00      	cmp	r2, #0
 8001b24:	f43f aea7 	beq.w	8001876 <HAL_ADC_ConfigChannel+0x152>
 8001b28:	9a01      	ldr	r2, [sp, #4]
 8001b2a:	3a01      	subs	r2, #1
 8001b2c:	9201      	str	r2, [sp, #4]
 8001b2e:	9a01      	ldr	r2, [sp, #4]
 8001b30:	2a00      	cmp	r2, #0
 8001b32:	d1f9      	bne.n	8001b28 <HAL_ADC_ConfigChannel+0x404>
 8001b34:	e69f      	b.n	8001876 <HAL_ADC_ConfigChannel+0x152>
 8001b36:	f011 7080 	ands.w	r0, r1, #16777216	; 0x1000000
 8001b3a:	f47f ae9c 	bne.w	8001876 <HAL_ADC_ConfigChannel+0x152>
 8001b3e:	490d      	ldr	r1, [pc, #52]	; (8001b74 <HAL_ADC_ConfigChannel+0x450>)
 8001b40:	428a      	cmp	r2, r1
 8001b42:	f47f ae98 	bne.w	8001876 <HAL_ADC_ConfigChannel+0x152>
 8001b46:	68aa      	ldr	r2, [r5, #8]
 8001b48:	f022 72e0 	bic.w	r2, r2, #29360128	; 0x1c00000
 8001b4c:	4332      	orrs	r2, r6
 8001b4e:	f042 7280 	orr.w	r2, r2, #16777216	; 0x1000000
 8001b52:	60aa      	str	r2, [r5, #8]
 8001b54:	e695      	b.n	8001882 <HAL_ADC_ConfigChannel+0x15e>
 8001b56:	480a      	ldr	r0, [pc, #40]	; (8001b80 <HAL_ADC_ConfigChannel+0x45c>)
 8001b58:	e712      	b.n	8001980 <HAL_ADC_ConfigChannel+0x25c>
 8001b5a:	2402      	movs	r4, #2
 8001b5c:	e6fe      	b.n	800195c <HAL_ADC_ConfigChannel+0x238>
 8001b5e:	f04f 6580 	mov.w	r5, #67108864	; 0x4000000
 8001b62:	e6ee      	b.n	8001942 <HAL_ADC_ConfigChannel+0x21e>
 8001b64:	f44f 1040 	mov.w	r0, #3145728	; 0x300000
 8001b68:	e70a      	b.n	8001980 <HAL_ADC_ConfigChannel+0x25c>
 8001b6a:	2402      	movs	r4, #2
 8001b6c:	e79b      	b.n	8001aa6 <HAL_ADC_ConfigChannel+0x382>
 8001b6e:	f04f 6580 	mov.w	r5, #67108864	; 0x4000000
 8001b72:	e78c      	b.n	8001a8e <HAL_ADC_ConfigChannel+0x36a>
 8001b74:	58026000 	.word	0x58026000
 8001b78:	240040c8 	.word	0x240040c8
 8001b7c:	053e2d63 	.word	0x053e2d63
 8001b80:	fe500000 	.word	0xfe500000

08001b84 <ADC_ConversionStop>:
 8001b84:	6803      	ldr	r3, [r0, #0]
 8001b86:	689a      	ldr	r2, [r3, #8]
 8001b88:	f012 0f04 	tst.w	r2, #4
 8001b8c:	689a      	ldr	r2, [r3, #8]
 8001b8e:	b570      	push	{r4, r5, r6, lr}
 8001b90:	4604      	mov	r4, r0
 8001b92:	d103      	bne.n	8001b9c <ADC_ConversionStop+0x18>
 8001b94:	0712      	lsls	r2, r2, #28
 8001b96:	d401      	bmi.n	8001b9c <ADC_ConversionStop+0x18>
 8001b98:	2000      	movs	r0, #0
 8001b9a:	bd70      	pop	{r4, r5, r6, pc}
 8001b9c:	68da      	ldr	r2, [r3, #12]
 8001b9e:	0196      	lsls	r6, r2, #6
 8001ba0:	d41a      	bmi.n	8001bd8 <ADC_ConversionStop+0x54>
 8001ba2:	2902      	cmp	r1, #2
 8001ba4:	689a      	ldr	r2, [r3, #8]
 8001ba6:	d045      	beq.n	8001c34 <ADC_ConversionStop+0xb0>
 8001ba8:	0756      	lsls	r6, r2, #29
 8001baa:	d508      	bpl.n	8001bbe <ADC_ConversionStop+0x3a>
 8001bac:	689a      	ldr	r2, [r3, #8]
 8001bae:	0790      	lsls	r0, r2, #30
 8001bb0:	d405      	bmi.n	8001bbe <ADC_ConversionStop+0x3a>
 8001bb2:	6898      	ldr	r0, [r3, #8]
 8001bb4:	4a2f      	ldr	r2, [pc, #188]	; (8001c74 <ADC_ConversionStop+0xf0>)
 8001bb6:	4002      	ands	r2, r0
 8001bb8:	f042 0210 	orr.w	r2, r2, #16
 8001bbc:	609a      	str	r2, [r3, #8]
 8001bbe:	2901      	cmp	r1, #1
 8001bc0:	d01e      	beq.n	8001c00 <ADC_ConversionStop+0x7c>
 8001bc2:	689a      	ldr	r2, [r3, #8]
 8001bc4:	0712      	lsls	r2, r2, #28
 8001bc6:	d502      	bpl.n	8001bce <ADC_ConversionStop+0x4a>
 8001bc8:	689a      	ldr	r2, [r3, #8]
 8001bca:	0790      	lsls	r0, r2, #30
 8001bcc:	d539      	bpl.n	8001c42 <ADC_ConversionStop+0xbe>
 8001bce:	2903      	cmp	r1, #3
 8001bd0:	bf14      	ite	ne
 8001bd2:	2504      	movne	r5, #4
 8001bd4:	250c      	moveq	r5, #12
 8001bd6:	e014      	b.n	8001c02 <ADC_ConversionStop+0x7e>
 8001bd8:	8aa0      	ldrh	r0, [r4, #20]
 8001bda:	f240 1201 	movw	r2, #257	; 0x101
 8001bde:	4290      	cmp	r0, r2
 8001be0:	d1df      	bne.n	8001ba2 <ADC_ConversionStop+0x1e>
 8001be2:	681a      	ldr	r2, [r3, #0]
 8001be4:	0650      	lsls	r0, r2, #25
 8001be6:	d406      	bmi.n	8001bf6 <ADC_ConversionStop+0x72>
 8001be8:	4a23      	ldr	r2, [pc, #140]	; (8001c78 <ADC_ConversionStop+0xf4>)
 8001bea:	e001      	b.n	8001bf0 <ADC_ConversionStop+0x6c>
 8001bec:	3a01      	subs	r2, #1
 8001bee:	d018      	beq.n	8001c22 <ADC_ConversionStop+0x9e>
 8001bf0:	6819      	ldr	r1, [r3, #0]
 8001bf2:	0649      	lsls	r1, r1, #25
 8001bf4:	d5fa      	bpl.n	8001bec <ADC_ConversionStop+0x68>
 8001bf6:	2240      	movs	r2, #64	; 0x40
 8001bf8:	601a      	str	r2, [r3, #0]
 8001bfa:	689a      	ldr	r2, [r3, #8]
 8001bfc:	0752      	lsls	r2, r2, #29
 8001bfe:	d427      	bmi.n	8001c50 <ADC_ConversionStop+0xcc>
 8001c00:	2504      	movs	r5, #4
 8001c02:	f7ff fce1 	bl	80015c8 <HAL_GetTick>
 8001c06:	6823      	ldr	r3, [r4, #0]
 8001c08:	4606      	mov	r6, r0
 8001c0a:	689b      	ldr	r3, [r3, #8]
 8001c0c:	421d      	tst	r5, r3
 8001c0e:	d0c3      	beq.n	8001b98 <ADC_ConversionStop+0x14>
 8001c10:	f7ff fcda 	bl	80015c8 <HAL_GetTick>
 8001c14:	1b83      	subs	r3, r0, r6
 8001c16:	2b05      	cmp	r3, #5
 8001c18:	6823      	ldr	r3, [r4, #0]
 8001c1a:	d9f6      	bls.n	8001c0a <ADC_ConversionStop+0x86>
 8001c1c:	689a      	ldr	r2, [r3, #8]
 8001c1e:	422a      	tst	r2, r5
 8001c20:	d0f3      	beq.n	8001c0a <ADC_ConversionStop+0x86>
 8001c22:	6d63      	ldr	r3, [r4, #84]	; 0x54
 8001c24:	2001      	movs	r0, #1
 8001c26:	f043 0310 	orr.w	r3, r3, #16
 8001c2a:	6563      	str	r3, [r4, #84]	; 0x54
 8001c2c:	6da3      	ldr	r3, [r4, #88]	; 0x58
 8001c2e:	4303      	orrs	r3, r0
 8001c30:	65a3      	str	r3, [r4, #88]	; 0x58
 8001c32:	bd70      	pop	{r4, r5, r6, pc}
 8001c34:	0715      	lsls	r5, r2, #28
 8001c36:	d502      	bpl.n	8001c3e <ADC_ConversionStop+0xba>
 8001c38:	689a      	ldr	r2, [r3, #8]
 8001c3a:	0792      	lsls	r2, r2, #30
 8001c3c:	d513      	bpl.n	8001c66 <ADC_ConversionStop+0xe2>
 8001c3e:	2508      	movs	r5, #8
 8001c40:	e7df      	b.n	8001c02 <ADC_ConversionStop+0x7e>
 8001c42:	6898      	ldr	r0, [r3, #8]
 8001c44:	4a0b      	ldr	r2, [pc, #44]	; (8001c74 <ADC_ConversionStop+0xf0>)
 8001c46:	4002      	ands	r2, r0
 8001c48:	f042 0220 	orr.w	r2, r2, #32
 8001c4c:	609a      	str	r2, [r3, #8]
 8001c4e:	e7be      	b.n	8001bce <ADC_ConversionStop+0x4a>
 8001c50:	689a      	ldr	r2, [r3, #8]
 8001c52:	0796      	lsls	r6, r2, #30
 8001c54:	d4d4      	bmi.n	8001c00 <ADC_ConversionStop+0x7c>
 8001c56:	6899      	ldr	r1, [r3, #8]
 8001c58:	2504      	movs	r5, #4
 8001c5a:	4a06      	ldr	r2, [pc, #24]	; (8001c74 <ADC_ConversionStop+0xf0>)
 8001c5c:	400a      	ands	r2, r1
 8001c5e:	f042 0210 	orr.w	r2, r2, #16
 8001c62:	609a      	str	r2, [r3, #8]
 8001c64:	e7cd      	b.n	8001c02 <ADC_ConversionStop+0x7e>
 8001c66:	6899      	ldr	r1, [r3, #8]
 8001c68:	4a02      	ldr	r2, [pc, #8]	; (8001c74 <ADC_ConversionStop+0xf0>)
 8001c6a:	400a      	ands	r2, r1
 8001c6c:	f042 0220 	orr.w	r2, r2, #32
 8001c70:	609a      	str	r2, [r3, #8]
 8001c72:	e7e4      	b.n	8001c3e <ADC_ConversionStop+0xba>
 8001c74:	7fffffc0 	.word	0x7fffffc0
 8001c78:	000cdc00 	.word	0x000cdc00

08001c7c <ADC_Enable>:
 8001c7c:	6803      	ldr	r3, [r0, #0]
 8001c7e:	689a      	ldr	r2, [r3, #8]
 8001c80:	07d1      	lsls	r1, r2, #31
 8001c82:	d501      	bpl.n	8001c88 <ADC_Enable+0xc>
 8001c84:	2000      	movs	r0, #0
 8001c86:	4770      	bx	lr
 8001c88:	6899      	ldr	r1, [r3, #8]
 8001c8a:	4a21      	ldr	r2, [pc, #132]	; (8001d10 <ADC_Enable+0x94>)
 8001c8c:	4211      	tst	r1, r2
 8001c8e:	b570      	push	{r4, r5, r6, lr}
 8001c90:	4604      	mov	r4, r0
 8001c92:	d008      	beq.n	8001ca6 <ADC_Enable+0x2a>
 8001c94:	6d63      	ldr	r3, [r4, #84]	; 0x54
 8001c96:	2001      	movs	r0, #1
 8001c98:	f043 0310 	orr.w	r3, r3, #16
 8001c9c:	6563      	str	r3, [r4, #84]	; 0x54
 8001c9e:	6da3      	ldr	r3, [r4, #88]	; 0x58
 8001ca0:	4303      	orrs	r3, r0
 8001ca2:	65a3      	str	r3, [r4, #88]	; 0x58
 8001ca4:	bd70      	pop	{r4, r5, r6, pc}
 8001ca6:	6899      	ldr	r1, [r3, #8]
 8001ca8:	4a1a      	ldr	r2, [pc, #104]	; (8001d14 <ADC_Enable+0x98>)
 8001caa:	400a      	ands	r2, r1
 8001cac:	f042 0201 	orr.w	r2, r2, #1
 8001cb0:	609a      	str	r2, [r3, #8]
 8001cb2:	f7ff fc89 	bl	80015c8 <HAL_GetTick>
 8001cb6:	6823      	ldr	r3, [r4, #0]
 8001cb8:	4a17      	ldr	r2, [pc, #92]	; (8001d18 <ADC_Enable+0x9c>)
 8001cba:	4605      	mov	r5, r0
 8001cbc:	4293      	cmp	r3, r2
 8001cbe:	d01f      	beq.n	8001d00 <ADC_Enable+0x84>
 8001cc0:	f502 7280 	add.w	r2, r2, #256	; 0x100
 8001cc4:	4293      	cmp	r3, r2
 8001cc6:	d01b      	beq.n	8001d00 <ADC_Enable+0x84>
 8001cc8:	4a14      	ldr	r2, [pc, #80]	; (8001d1c <ADC_Enable+0xa0>)
 8001cca:	6892      	ldr	r2, [r2, #8]
 8001ccc:	681a      	ldr	r2, [r3, #0]
 8001cce:	07d6      	lsls	r6, r2, #31
 8001cd0:	d414      	bmi.n	8001cfc <ADC_Enable+0x80>
 8001cd2:	4e10      	ldr	r6, [pc, #64]	; (8001d14 <ADC_Enable+0x98>)
 8001cd4:	689a      	ldr	r2, [r3, #8]
 8001cd6:	07d0      	lsls	r0, r2, #31
 8001cd8:	d404      	bmi.n	8001ce4 <ADC_Enable+0x68>
 8001cda:	689a      	ldr	r2, [r3, #8]
 8001cdc:	4032      	ands	r2, r6
 8001cde:	f042 0201 	orr.w	r2, r2, #1
 8001ce2:	609a      	str	r2, [r3, #8]
 8001ce4:	f7ff fc70 	bl	80015c8 <HAL_GetTick>
 8001ce8:	1b43      	subs	r3, r0, r5
 8001cea:	2b02      	cmp	r3, #2
 8001cec:	6823      	ldr	r3, [r4, #0]
 8001cee:	d902      	bls.n	8001cf6 <ADC_Enable+0x7a>
 8001cf0:	681a      	ldr	r2, [r3, #0]
 8001cf2:	07d1      	lsls	r1, r2, #31
 8001cf4:	d5ce      	bpl.n	8001c94 <ADC_Enable+0x18>
 8001cf6:	681a      	ldr	r2, [r3, #0]
 8001cf8:	07d2      	lsls	r2, r2, #31
 8001cfa:	d5eb      	bpl.n	8001cd4 <ADC_Enable+0x58>
 8001cfc:	2000      	movs	r0, #0
 8001cfe:	bd70      	pop	{r4, r5, r6, pc}
 8001d00:	4a07      	ldr	r2, [pc, #28]	; (8001d20 <ADC_Enable+0xa4>)
 8001d02:	6892      	ldr	r2, [r2, #8]
 8001d04:	06d2      	lsls	r2, r2, #27
 8001d06:	d0e1      	beq.n	8001ccc <ADC_Enable+0x50>
 8001d08:	4a06      	ldr	r2, [pc, #24]	; (8001d24 <ADC_Enable+0xa8>)
 8001d0a:	4293      	cmp	r3, r2
 8001d0c:	d1de      	bne.n	8001ccc <ADC_Enable+0x50>
 8001d0e:	e7f5      	b.n	8001cfc <ADC_Enable+0x80>
 8001d10:	8000003f 	.word	0x8000003f
 8001d14:	7fffffc0 	.word	0x7fffffc0
 8001d18:	40022000 	.word	0x40022000
 8001d1c:	58026300 	.word	0x58026300
 8001d20:	40022300 	.word	0x40022300
 8001d24:	40022100 	.word	0x40022100

08001d28 <HAL_ADC_Start>:
 8001d28:	4a39      	ldr	r2, [pc, #228]	; (8001e10 <HAL_ADC_Start+0xe8>)
 8001d2a:	6803      	ldr	r3, [r0, #0]
 8001d2c:	4293      	cmp	r3, r2
 8001d2e:	b570      	push	{r4, r5, r6, lr}
 8001d30:	4604      	mov	r4, r0
 8001d32:	d045      	beq.n	8001dc0 <HAL_ADC_Start+0x98>
 8001d34:	f502 7280 	add.w	r2, r2, #256	; 0x100
 8001d38:	4293      	cmp	r3, r2
 8001d3a:	d041      	beq.n	8001dc0 <HAL_ADC_Start+0x98>
 8001d3c:	4a35      	ldr	r2, [pc, #212]	; (8001e14 <HAL_ADC_Start+0xec>)
 8001d3e:	6896      	ldr	r6, [r2, #8]
 8001d40:	689d      	ldr	r5, [r3, #8]
 8001d42:	f015 0504 	ands.w	r5, r5, #4
 8001d46:	d141      	bne.n	8001dcc <HAL_ADC_Start+0xa4>
 8001d48:	f894 3050 	ldrb.w	r3, [r4, #80]	; 0x50
 8001d4c:	2b01      	cmp	r3, #1
 8001d4e:	d03d      	beq.n	8001dcc <HAL_ADC_Start+0xa4>
 8001d50:	2301      	movs	r3, #1
 8001d52:	4620      	mov	r0, r4
 8001d54:	f884 3050 	strb.w	r3, [r4, #80]	; 0x50
 8001d58:	f7ff ff90 	bl	8001c7c <ADC_Enable>
 8001d5c:	2800      	cmp	r0, #0
 8001d5e:	d137      	bne.n	8001dd0 <HAL_ADC_Start+0xa8>
 8001d60:	6d61      	ldr	r1, [r4, #84]	; 0x54
 8001d62:	f006 061f 	and.w	r6, r6, #31
 8001d66:	4a2c      	ldr	r2, [pc, #176]	; (8001e18 <HAL_ADC_Start+0xf0>)
 8001d68:	6823      	ldr	r3, [r4, #0]
 8001d6a:	400a      	ands	r2, r1
 8001d6c:	492b      	ldr	r1, [pc, #172]	; (8001e1c <HAL_ADC_Start+0xf4>)
 8001d6e:	f442 7280 	orr.w	r2, r2, #256	; 0x100
 8001d72:	428b      	cmp	r3, r1
 8001d74:	6562      	str	r2, [r4, #84]	; 0x54
 8001d76:	d044      	beq.n	8001e02 <HAL_ADC_Start+0xda>
 8001d78:	4619      	mov	r1, r3
 8001d7a:	6d62      	ldr	r2, [r4, #84]	; 0x54
 8001d7c:	f422 1280 	bic.w	r2, r2, #1048576	; 0x100000
 8001d80:	6562      	str	r2, [r4, #84]	; 0x54
 8001d82:	6d62      	ldr	r2, [r4, #84]	; 0x54
 8001d84:	f412 5280 	ands.w	r2, r2, #4096	; 0x1000
 8001d88:	d03f      	beq.n	8001e0a <HAL_ADC_Start+0xe2>
 8001d8a:	6da2      	ldr	r2, [r4, #88]	; 0x58
 8001d8c:	f022 0206 	bic.w	r2, r2, #6
 8001d90:	65a2      	str	r2, [r4, #88]	; 0x58
 8001d92:	251c      	movs	r5, #28
 8001d94:	2200      	movs	r2, #0
 8001d96:	428b      	cmp	r3, r1
 8001d98:	601d      	str	r5, [r3, #0]
 8001d9a:	f884 2050 	strb.w	r2, [r4, #80]	; 0x50
 8001d9e:	d020      	beq.n	8001de2 <HAL_ADC_Start+0xba>
 8001da0:	2e09      	cmp	r6, #9
 8001da2:	d918      	bls.n	8001dd6 <HAL_ADC_Start+0xae>
 8001da4:	6d63      	ldr	r3, [r4, #84]	; 0x54
 8001da6:	f443 1380 	orr.w	r3, r3, #1048576	; 0x100000
 8001daa:	6563      	str	r3, [r4, #84]	; 0x54
 8001dac:	68cb      	ldr	r3, [r1, #12]
 8001dae:	019b      	lsls	r3, r3, #6
 8001db0:	d505      	bpl.n	8001dbe <HAL_ADC_Start+0x96>
 8001db2:	6d63      	ldr	r3, [r4, #84]	; 0x54
 8001db4:	f423 5340 	bic.w	r3, r3, #12288	; 0x3000
 8001db8:	f443 5380 	orr.w	r3, r3, #4096	; 0x1000
 8001dbc:	6563      	str	r3, [r4, #84]	; 0x54
 8001dbe:	bd70      	pop	{r4, r5, r6, pc}
 8001dc0:	4a17      	ldr	r2, [pc, #92]	; (8001e20 <HAL_ADC_Start+0xf8>)
 8001dc2:	6896      	ldr	r6, [r2, #8]
 8001dc4:	689d      	ldr	r5, [r3, #8]
 8001dc6:	f015 0504 	ands.w	r5, r5, #4
 8001dca:	d0bd      	beq.n	8001d48 <HAL_ADC_Start+0x20>
 8001dcc:	2002      	movs	r0, #2
 8001dce:	bd70      	pop	{r4, r5, r6, pc}
 8001dd0:	f884 5050 	strb.w	r5, [r4, #80]	; 0x50
 8001dd4:	bd70      	pop	{r4, r5, r6, pc}
 8001dd6:	f240 2221 	movw	r2, #545	; 0x221
 8001dda:	fa22 f606 	lsr.w	r6, r2, r6
 8001dde:	07f5      	lsls	r5, r6, #31
 8001de0:	d5e0      	bpl.n	8001da4 <HAL_ADC_Start+0x7c>
 8001de2:	68da      	ldr	r2, [r3, #12]
 8001de4:	0192      	lsls	r2, r2, #6
 8001de6:	d505      	bpl.n	8001df4 <HAL_ADC_Start+0xcc>
 8001de8:	6d62      	ldr	r2, [r4, #84]	; 0x54
 8001dea:	f422 5240 	bic.w	r2, r2, #12288	; 0x3000
 8001dee:	f442 5280 	orr.w	r2, r2, #4096	; 0x1000
 8001df2:	6562      	str	r2, [r4, #84]	; 0x54
 8001df4:	6899      	ldr	r1, [r3, #8]
 8001df6:	4a0b      	ldr	r2, [pc, #44]	; (8001e24 <HAL_ADC_Start+0xfc>)
 8001df8:	400a      	ands	r2, r1
 8001dfa:	f042 0204 	orr.w	r2, r2, #4
 8001dfe:	609a      	str	r2, [r3, #8]
 8001e00:	bd70      	pop	{r4, r5, r6, pc}
 8001e02:	4903      	ldr	r1, [pc, #12]	; (8001e10 <HAL_ADC_Start+0xe8>)
 8001e04:	2e00      	cmp	r6, #0
 8001e06:	d0b8      	beq.n	8001d7a <HAL_ADC_Start+0x52>
 8001e08:	e7bb      	b.n	8001d82 <HAL_ADC_Start+0x5a>
 8001e0a:	65a2      	str	r2, [r4, #88]	; 0x58
 8001e0c:	e7c1      	b.n	8001d92 <HAL_ADC_Start+0x6a>
 8001e0e:	bf00      	nop
 8001e10:	40022000 	.word	0x40022000
 8001e14:	58026300 	.word	0x58026300
 8001e18:	fffff0fe 	.word	0xfffff0fe
 8001e1c:	40022100 	.word	0x40022100
 8001e20:	40022300 	.word	0x40022300
 8001e24:	7fffffc0 	.word	0x7fffffc0

08001e28 <ADC_Disable>:
 8001e28:	b538      	push	{r3, r4, r5, lr}
 8001e2a:	6803      	ldr	r3, [r0, #0]
 8001e2c:	689a      	ldr	r2, [r3, #8]
 8001e2e:	0795      	lsls	r5, r2, #30
 8001e30:	d502      	bpl.n	8001e38 <ADC_Disable+0x10>
 8001e32:	689b      	ldr	r3, [r3, #8]
 8001e34:	2000      	movs	r0, #0
 8001e36:	bd38      	pop	{r3, r4, r5, pc}
 8001e38:	689a      	ldr	r2, [r3, #8]
 8001e3a:	07d4      	lsls	r4, r2, #31
 8001e3c:	d529      	bpl.n	8001e92 <ADC_Disable+0x6a>
 8001e3e:	689a      	ldr	r2, [r3, #8]
 8001e40:	4604      	mov	r4, r0
 8001e42:	f002 020d 	and.w	r2, r2, #13
 8001e46:	2a01      	cmp	r2, #1
 8001e48:	d008      	beq.n	8001e5c <ADC_Disable+0x34>
 8001e4a:	6d63      	ldr	r3, [r4, #84]	; 0x54
 8001e4c:	2001      	movs	r0, #1
 8001e4e:	f043 0310 	orr.w	r3, r3, #16
 8001e52:	6563      	str	r3, [r4, #84]	; 0x54
 8001e54:	6da3      	ldr	r3, [r4, #88]	; 0x58
 8001e56:	4303      	orrs	r3, r0
 8001e58:	65a3      	str	r3, [r4, #88]	; 0x58
 8001e5a:	bd38      	pop	{r3, r4, r5, pc}
 8001e5c:	6898      	ldr	r0, [r3, #8]
 8001e5e:	2103      	movs	r1, #3
 8001e60:	4a0d      	ldr	r2, [pc, #52]	; (8001e98 <ADC_Disable+0x70>)
 8001e62:	4002      	ands	r2, r0
 8001e64:	f042 0202 	orr.w	r2, r2, #2
 8001e68:	609a      	str	r2, [r3, #8]
 8001e6a:	6019      	str	r1, [r3, #0]
 8001e6c:	f7ff fbac 	bl	80015c8 <HAL_GetTick>
 8001e70:	6823      	ldr	r3, [r4, #0]
 8001e72:	4605      	mov	r5, r0
 8001e74:	689b      	ldr	r3, [r3, #8]
 8001e76:	07d9      	lsls	r1, r3, #31
 8001e78:	d50b      	bpl.n	8001e92 <ADC_Disable+0x6a>
 8001e7a:	f7ff fba5 	bl	80015c8 <HAL_GetTick>
 8001e7e:	1b40      	subs	r0, r0, r5
 8001e80:	6823      	ldr	r3, [r4, #0]
 8001e82:	2802      	cmp	r0, #2
 8001e84:	d902      	bls.n	8001e8c <ADC_Disable+0x64>
 8001e86:	689a      	ldr	r2, [r3, #8]
 8001e88:	07d2      	lsls	r2, r2, #31
 8001e8a:	d4de      	bmi.n	8001e4a <ADC_Disable+0x22>
 8001e8c:	689b      	ldr	r3, [r3, #8]
 8001e8e:	07db      	lsls	r3, r3, #31
 8001e90:	d4f3      	bmi.n	8001e7a <ADC_Disable+0x52>
 8001e92:	2000      	movs	r0, #0
 8001e94:	bd38      	pop	{r3, r4, r5, pc}
 8001e96:	bf00      	nop
 8001e98:	7fffffc0 	.word	0x7fffffc0

08001e9c <HAL_ADC_Stop>:
 8001e9c:	f890 3050 	ldrb.w	r3, [r0, #80]	; 0x50
 8001ea0:	2b01      	cmp	r3, #1
 8001ea2:	d01b      	beq.n	8001edc <HAL_ADC_Stop+0x40>
 8001ea4:	2301      	movs	r3, #1
 8001ea6:	2103      	movs	r1, #3
 8001ea8:	b510      	push	{r4, lr}
 8001eaa:	f880 3050 	strb.w	r3, [r0, #80]	; 0x50
 8001eae:	4604      	mov	r4, r0
 8001eb0:	f7ff fe68 	bl	8001b84 <ADC_ConversionStop>
 8001eb4:	b118      	cbz	r0, 8001ebe <HAL_ADC_Stop+0x22>
 8001eb6:	2300      	movs	r3, #0
 8001eb8:	f884 3050 	strb.w	r3, [r4, #80]	; 0x50
 8001ebc:	bd10      	pop	{r4, pc}
 8001ebe:	4620      	mov	r0, r4
 8001ec0:	f7ff ffb2 	bl	8001e28 <ADC_Disable>
 8001ec4:	2800      	cmp	r0, #0
 8001ec6:	d1f6      	bne.n	8001eb6 <HAL_ADC_Stop+0x1a>
 8001ec8:	6d62      	ldr	r2, [r4, #84]	; 0x54
 8001eca:	4b05      	ldr	r3, [pc, #20]	; (8001ee0 <HAL_ADC_Stop+0x44>)
 8001ecc:	4013      	ands	r3, r2
 8001ece:	f043 0301 	orr.w	r3, r3, #1
 8001ed2:	6563      	str	r3, [r4, #84]	; 0x54
 8001ed4:	2300      	movs	r3, #0
 8001ed6:	f884 3050 	strb.w	r3, [r4, #80]	; 0x50
 8001eda:	bd10      	pop	{r4, pc}
 8001edc:	2002      	movs	r0, #2
 8001ede:	4770      	bx	lr
 8001ee0:	ffffeefe 	.word	0xffffeefe

08001ee4 <ADC_ConfigureBoostMode>:
 8001ee4:	b538      	push	{r3, r4, r5, lr}
 8001ee6:	4a5a      	ldr	r2, [pc, #360]	; (8002050 <ADC_ConfigureBoostMode+0x16c>)
 8001ee8:	4604      	mov	r4, r0
 8001eea:	6803      	ldr	r3, [r0, #0]
 8001eec:	4293      	cmp	r3, r2
 8001eee:	d029      	beq.n	8001f44 <ADC_ConfigureBoostMode+0x60>
 8001ef0:	f502 7280 	add.w	r2, r2, #256	; 0x100
 8001ef4:	4293      	cmp	r3, r2
 8001ef6:	d025      	beq.n	8001f44 <ADC_ConfigureBoostMode+0x60>
 8001ef8:	4b56      	ldr	r3, [pc, #344]	; (8002054 <ADC_ConfigureBoostMode+0x170>)
 8001efa:	689b      	ldr	r3, [r3, #8]
 8001efc:	f413 3f40 	tst.w	r3, #196608	; 0x30000
 8001f00:	bf14      	ite	ne
 8001f02:	2301      	movne	r3, #1
 8001f04:	2300      	moveq	r3, #0
 8001f06:	b333      	cbz	r3, 8001f56 <ADC_ConfigureBoostMode+0x72>
 8001f08:	f001 fac4 	bl	8003494 <HAL_RCC_GetHCLKFreq>
 8001f0c:	6863      	ldr	r3, [r4, #4]
 8001f0e:	4605      	mov	r5, r0
 8001f10:	f5b3 3f00 	cmp.w	r3, #131072	; 0x20000
 8001f14:	f000 808b 	beq.w	800202e <ADC_ConfigureBoostMode+0x14a>
 8001f18:	f5b3 3f40 	cmp.w	r3, #196608	; 0x30000
 8001f1c:	d06f      	beq.n	8001ffe <ADC_ConfigureBoostMode+0x11a>
 8001f1e:	f5b3 3f80 	cmp.w	r3, #65536	; 0x10000
 8001f22:	f000 8084 	beq.w	800202e <ADC_ConfigureBoostMode+0x14a>
 8001f26:	f7ff fb67 	bl	80015f8 <HAL_GetREVID>
 8001f2a:	f241 0303 	movw	r3, #4099	; 0x1003
 8001f2e:	4298      	cmp	r0, r3
 8001f30:	d84e      	bhi.n	8001fd0 <ADC_ConfigureBoostMode+0xec>
 8001f32:	4b49      	ldr	r3, [pc, #292]	; (8002058 <ADC_ConfigureBoostMode+0x174>)
 8001f34:	429d      	cmp	r5, r3
 8001f36:	d92d      	bls.n	8001f94 <ADC_ConfigureBoostMode+0xb0>
 8001f38:	6822      	ldr	r2, [r4, #0]
 8001f3a:	6893      	ldr	r3, [r2, #8]
 8001f3c:	f443 7380 	orr.w	r3, r3, #256	; 0x100
 8001f40:	6093      	str	r3, [r2, #8]
 8001f42:	bd38      	pop	{r3, r4, r5, pc}
 8001f44:	4b45      	ldr	r3, [pc, #276]	; (800205c <ADC_ConfigureBoostMode+0x178>)
 8001f46:	689b      	ldr	r3, [r3, #8]
 8001f48:	f413 3f40 	tst.w	r3, #196608	; 0x30000
 8001f4c:	bf14      	ite	ne
 8001f4e:	2301      	movne	r3, #1
 8001f50:	2300      	moveq	r3, #0
 8001f52:	2b00      	cmp	r3, #0
 8001f54:	d1d8      	bne.n	8001f08 <ADC_ConfigureBoostMode+0x24>
 8001f56:	f44f 2000 	mov.w	r0, #524288	; 0x80000
 8001f5a:	f002 fb2d 	bl	80045b8 <HAL_RCCEx_GetPeriphCLKFreq>
 8001f5e:	6863      	ldr	r3, [r4, #4]
 8001f60:	4605      	mov	r5, r0
 8001f62:	f5b3 1f10 	cmp.w	r3, #2359296	; 0x240000
 8001f66:	d06c      	beq.n	8002042 <ADC_ConfigureBoostMode+0x15e>
 8001f68:	d808      	bhi.n	8001f7c <ADC_ConfigureBoostMode+0x98>
 8001f6a:	f5b3 1fe0 	cmp.w	r3, #1835008	; 0x1c0000
 8001f6e:	d050      	beq.n	8002012 <ADC_ConfigureBoostMode+0x12e>
 8001f70:	d916      	bls.n	8001fa0 <ADC_ConfigureBoostMode+0xbc>
 8001f72:	f5b3 1f00 	cmp.w	r3, #2097152	; 0x200000
 8001f76:	d1d6      	bne.n	8001f26 <ADC_ConfigureBoostMode+0x42>
 8001f78:	0945      	lsrs	r5, r0, #5
 8001f7a:	e7d4      	b.n	8001f26 <ADC_ConfigureBoostMode+0x42>
 8001f7c:	f5b3 1f20 	cmp.w	r3, #2621440	; 0x280000
 8001f80:	d045      	beq.n	800200e <ADC_ConfigureBoostMode+0x12a>
 8001f82:	f5b3 1f30 	cmp.w	r3, #2883584	; 0x2c0000
 8001f86:	d1ce      	bne.n	8001f26 <ADC_ConfigureBoostMode+0x42>
 8001f88:	f7ff fb36 	bl	80015f8 <HAL_GetREVID>
 8001f8c:	f241 0303 	movw	r3, #4099	; 0x1003
 8001f90:	4298      	cmp	r0, r3
 8001f92:	d840      	bhi.n	8002016 <ADC_ConfigureBoostMode+0x132>
 8001f94:	6822      	ldr	r2, [r4, #0]
 8001f96:	6893      	ldr	r3, [r2, #8]
 8001f98:	f423 7380 	bic.w	r3, r3, #256	; 0x100
 8001f9c:	6093      	str	r3, [r2, #8]
 8001f9e:	bd38      	pop	{r3, r4, r5, pc}
 8001fa0:	f5b3 1f80 	cmp.w	r3, #1048576	; 0x100000
 8001fa4:	d006      	beq.n	8001fb4 <ADC_ConfigureBoostMode+0xd0>
 8001fa6:	d90a      	bls.n	8001fbe <ADC_ConfigureBoostMode+0xda>
 8001fa8:	f5b3 1fa0 	cmp.w	r3, #1310720	; 0x140000
 8001fac:	d002      	beq.n	8001fb4 <ADC_ConfigureBoostMode+0xd0>
 8001fae:	f5b3 1fc0 	cmp.w	r3, #1572864	; 0x180000
 8001fb2:	d1b8      	bne.n	8001f26 <ADC_ConfigureBoostMode+0x42>
 8001fb4:	0c9b      	lsrs	r3, r3, #18
 8001fb6:	005b      	lsls	r3, r3, #1
 8001fb8:	fbb5 f5f3 	udiv	r5, r5, r3
 8001fbc:	e7b3      	b.n	8001f26 <ADC_ConfigureBoostMode+0x42>
 8001fbe:	f5b3 2f00 	cmp.w	r3, #524288	; 0x80000
 8001fc2:	d0f7      	beq.n	8001fb4 <ADC_ConfigureBoostMode+0xd0>
 8001fc4:	f423 2200 	bic.w	r2, r3, #524288	; 0x80000
 8001fc8:	f5b2 2f80 	cmp.w	r2, #262144	; 0x40000
 8001fcc:	d0f2      	beq.n	8001fb4 <ADC_ConfigureBoostMode+0xd0>
 8001fce:	e7aa      	b.n	8001f26 <ADC_ConfigureBoostMode+0x42>
 8001fd0:	4b23      	ldr	r3, [pc, #140]	; (8002060 <ADC_ConfigureBoostMode+0x17c>)
 8001fd2:	429d      	cmp	r5, r3
 8001fd4:	d805      	bhi.n	8001fe2 <ADC_ConfigureBoostMode+0xfe>
 8001fd6:	6822      	ldr	r2, [r4, #0]
 8001fd8:	6893      	ldr	r3, [r2, #8]
 8001fda:	f423 7340 	bic.w	r3, r3, #768	; 0x300
 8001fde:	6093      	str	r3, [r2, #8]
 8001fe0:	bd38      	pop	{r3, r4, r5, pc}
 8001fe2:	4b20      	ldr	r3, [pc, #128]	; (8002064 <ADC_ConfigureBoostMode+0x180>)
 8001fe4:	429d      	cmp	r5, r3
 8001fe6:	d91a      	bls.n	800201e <ADC_ConfigureBoostMode+0x13a>
 8001fe8:	4b1f      	ldr	r3, [pc, #124]	; (8002068 <ADC_ConfigureBoostMode+0x184>)
 8001fea:	6822      	ldr	r2, [r4, #0]
 8001fec:	429d      	cmp	r5, r3
 8001fee:	6893      	ldr	r3, [r2, #8]
 8001ff0:	d829      	bhi.n	8002046 <ADC_ConfigureBoostMode+0x162>
 8001ff2:	f423 7340 	bic.w	r3, r3, #768	; 0x300
 8001ff6:	f443 7300 	orr.w	r3, r3, #512	; 0x200
 8001ffa:	6093      	str	r3, [r2, #8]
 8001ffc:	bd38      	pop	{r3, r4, r5, pc}
 8001ffe:	0885      	lsrs	r5, r0, #2
 8002000:	f7ff fafa 	bl	80015f8 <HAL_GetREVID>
 8002004:	f241 0303 	movw	r3, #4099	; 0x1003
 8002008:	4298      	cmp	r0, r3
 800200a:	d8e1      	bhi.n	8001fd0 <ADC_ConfigureBoostMode+0xec>
 800200c:	e791      	b.n	8001f32 <ADC_ConfigureBoostMode+0x4e>
 800200e:	09c5      	lsrs	r5, r0, #7
 8002010:	e789      	b.n	8001f26 <ADC_ConfigureBoostMode+0x42>
 8002012:	0905      	lsrs	r5, r0, #4
 8002014:	e787      	b.n	8001f26 <ADC_ConfigureBoostMode+0x42>
 8002016:	4b12      	ldr	r3, [pc, #72]	; (8002060 <ADC_ConfigureBoostMode+0x17c>)
 8002018:	ebb3 2f15 	cmp.w	r3, r5, lsr #8
 800201c:	d2db      	bcs.n	8001fd6 <ADC_ConfigureBoostMode+0xf2>
 800201e:	6822      	ldr	r2, [r4, #0]
 8002020:	6893      	ldr	r3, [r2, #8]
 8002022:	f423 7340 	bic.w	r3, r3, #768	; 0x300
 8002026:	f443 7380 	orr.w	r3, r3, #256	; 0x100
 800202a:	6093      	str	r3, [r2, #8]
 800202c:	bd38      	pop	{r3, r4, r5, pc}
 800202e:	0c1b      	lsrs	r3, r3, #16
 8002030:	fbb5 f5f3 	udiv	r5, r5, r3
 8002034:	f7ff fae0 	bl	80015f8 <HAL_GetREVID>
 8002038:	f241 0303 	movw	r3, #4099	; 0x1003
 800203c:	4298      	cmp	r0, r3
 800203e:	d8c7      	bhi.n	8001fd0 <ADC_ConfigureBoostMode+0xec>
 8002040:	e777      	b.n	8001f32 <ADC_ConfigureBoostMode+0x4e>
 8002042:	0985      	lsrs	r5, r0, #6
 8002044:	e76f      	b.n	8001f26 <ADC_ConfigureBoostMode+0x42>
 8002046:	f443 7340 	orr.w	r3, r3, #768	; 0x300
 800204a:	6093      	str	r3, [r2, #8]
 800204c:	bd38      	pop	{r3, r4, r5, pc}
 800204e:	bf00      	nop
 8002050:	40022000 	.word	0x40022000
 8002054:	58026300 	.word	0x58026300
 8002058:	01312d00 	.word	0x01312d00
 800205c:	40022300 	.word	0x40022300
 8002060:	00bebc21 	.word	0x00bebc21
 8002064:	017d7841 	.word	0x017d7841
 8002068:	02faf081 	.word	0x02faf081

0800206c <HAL_ADC_Init>:
 800206c:	b570      	push	{r4, r5, r6, lr}
 800206e:	2300      	movs	r3, #0
 8002070:	b082      	sub	sp, #8
 8002072:	9301      	str	r3, [sp, #4]
 8002074:	2800      	cmp	r0, #0
 8002076:	f000 80d0 	beq.w	800221a <HAL_ADC_Init+0x1ae>
 800207a:	6d45      	ldr	r5, [r0, #84]	; 0x54
 800207c:	4604      	mov	r4, r0
 800207e:	2d00      	cmp	r5, #0
 8002080:	f000 80ba 	beq.w	80021f8 <HAL_ADC_Init+0x18c>
 8002084:	6822      	ldr	r2, [r4, #0]
 8002086:	6893      	ldr	r3, [r2, #8]
 8002088:	009d      	lsls	r5, r3, #2
 800208a:	d503      	bpl.n	8002094 <HAL_ADC_Init+0x28>
 800208c:	6891      	ldr	r1, [r2, #8]
 800208e:	4b71      	ldr	r3, [pc, #452]	; (8002254 <HAL_ADC_Init+0x1e8>)
 8002090:	400b      	ands	r3, r1
 8002092:	6093      	str	r3, [r2, #8]
 8002094:	6893      	ldr	r3, [r2, #8]
 8002096:	00d8      	lsls	r0, r3, #3
 8002098:	d416      	bmi.n	80020c8 <HAL_ADC_Init+0x5c>
 800209a:	4b6f      	ldr	r3, [pc, #444]	; (8002258 <HAL_ADC_Init+0x1ec>)
 800209c:	4d6f      	ldr	r5, [pc, #444]	; (800225c <HAL_ADC_Init+0x1f0>)
 800209e:	681b      	ldr	r3, [r3, #0]
 80020a0:	6890      	ldr	r0, [r2, #8]
 80020a2:	099b      	lsrs	r3, r3, #6
 80020a4:	496e      	ldr	r1, [pc, #440]	; (8002260 <HAL_ADC_Init+0x1f4>)
 80020a6:	fba5 5303 	umull	r5, r3, r5, r3
 80020aa:	4001      	ands	r1, r0
 80020ac:	099b      	lsrs	r3, r3, #6
 80020ae:	f041 5180 	orr.w	r1, r1, #268435456	; 0x10000000
 80020b2:	3301      	adds	r3, #1
 80020b4:	6091      	str	r1, [r2, #8]
 80020b6:	9301      	str	r3, [sp, #4]
 80020b8:	9b01      	ldr	r3, [sp, #4]
 80020ba:	b12b      	cbz	r3, 80020c8 <HAL_ADC_Init+0x5c>
 80020bc:	9b01      	ldr	r3, [sp, #4]
 80020be:	3b01      	subs	r3, #1
 80020c0:	9301      	str	r3, [sp, #4]
 80020c2:	9b01      	ldr	r3, [sp, #4]
 80020c4:	2b00      	cmp	r3, #0
 80020c6:	d1f9      	bne.n	80020bc <HAL_ADC_Init+0x50>
 80020c8:	6893      	ldr	r3, [r2, #8]
 80020ca:	00d9      	lsls	r1, r3, #3
 80020cc:	d424      	bmi.n	8002118 <HAL_ADC_Init+0xac>
 80020ce:	6d63      	ldr	r3, [r4, #84]	; 0x54
 80020d0:	2501      	movs	r5, #1
 80020d2:	f043 0310 	orr.w	r3, r3, #16
 80020d6:	6563      	str	r3, [r4, #84]	; 0x54
 80020d8:	6da3      	ldr	r3, [r4, #88]	; 0x58
 80020da:	432b      	orrs	r3, r5
 80020dc:	65a3      	str	r3, [r4, #88]	; 0x58
 80020de:	6893      	ldr	r3, [r2, #8]
 80020e0:	f013 0f04 	tst.w	r3, #4
 80020e4:	6d63      	ldr	r3, [r4, #84]	; 0x54
 80020e6:	d11d      	bne.n	8002124 <HAL_ADC_Init+0xb8>
 80020e8:	06db      	lsls	r3, r3, #27
 80020ea:	d41b      	bmi.n	8002124 <HAL_ADC_Init+0xb8>
 80020ec:	6d63      	ldr	r3, [r4, #84]	; 0x54
 80020ee:	f423 7381 	bic.w	r3, r3, #258	; 0x102
 80020f2:	f043 0302 	orr.w	r3, r3, #2
 80020f6:	6563      	str	r3, [r4, #84]	; 0x54
 80020f8:	6893      	ldr	r3, [r2, #8]
 80020fa:	07de      	lsls	r6, r3, #31
 80020fc:	d428      	bmi.n	8002150 <HAL_ADC_Init+0xe4>
 80020fe:	4b59      	ldr	r3, [pc, #356]	; (8002264 <HAL_ADC_Init+0x1f8>)
 8002100:	429a      	cmp	r2, r3
 8002102:	d017      	beq.n	8002134 <HAL_ADC_Init+0xc8>
 8002104:	f503 7380 	add.w	r3, r3, #256	; 0x100
 8002108:	429a      	cmp	r2, r3
 800210a:	d013      	beq.n	8002134 <HAL_ADC_Init+0xc8>
 800210c:	4b56      	ldr	r3, [pc, #344]	; (8002268 <HAL_ADC_Init+0x1fc>)
 800210e:	689b      	ldr	r3, [r3, #8]
 8002110:	07d9      	lsls	r1, r3, #31
 8002112:	d41d      	bmi.n	8002150 <HAL_ADC_Init+0xe4>
 8002114:	4a55      	ldr	r2, [pc, #340]	; (800226c <HAL_ADC_Init+0x200>)
 8002116:	e015      	b.n	8002144 <HAL_ADC_Init+0xd8>
 8002118:	6893      	ldr	r3, [r2, #8]
 800211a:	2500      	movs	r5, #0
 800211c:	f013 0f04 	tst.w	r3, #4
 8002120:	6d63      	ldr	r3, [r4, #84]	; 0x54
 8002122:	d0e1      	beq.n	80020e8 <HAL_ADC_Init+0x7c>
 8002124:	6d63      	ldr	r3, [r4, #84]	; 0x54
 8002126:	2501      	movs	r5, #1
 8002128:	f043 0310 	orr.w	r3, r3, #16
 800212c:	4628      	mov	r0, r5
 800212e:	6563      	str	r3, [r4, #84]	; 0x54
 8002130:	b002      	add	sp, #8
 8002132:	bd70      	pop	{r4, r5, r6, pc}
 8002134:	4a4b      	ldr	r2, [pc, #300]	; (8002264 <HAL_ADC_Init+0x1f8>)
 8002136:	4b4e      	ldr	r3, [pc, #312]	; (8002270 <HAL_ADC_Init+0x204>)
 8002138:	6892      	ldr	r2, [r2, #8]
 800213a:	689b      	ldr	r3, [r3, #8]
 800213c:	4313      	orrs	r3, r2
 800213e:	07d8      	lsls	r0, r3, #31
 8002140:	d406      	bmi.n	8002150 <HAL_ADC_Init+0xe4>
 8002142:	4a4c      	ldr	r2, [pc, #304]	; (8002274 <HAL_ADC_Init+0x208>)
 8002144:	6893      	ldr	r3, [r2, #8]
 8002146:	6861      	ldr	r1, [r4, #4]
 8002148:	f423 137c 	bic.w	r3, r3, #4128768	; 0x3f0000
 800214c:	430b      	orrs	r3, r1
 800214e:	6093      	str	r3, [r2, #8]
 8002150:	f7ff fa52 	bl	80015f8 <HAL_GetREVID>
 8002154:	f241 0303 	movw	r3, #4099	; 0x1003
 8002158:	68a1      	ldr	r1, [r4, #8]
 800215a:	4298      	cmp	r0, r3
 800215c:	7f23      	ldrb	r3, [r4, #28]
 800215e:	d851      	bhi.n	8002204 <HAL_ADC_Init+0x198>
 8002160:	7d66      	ldrb	r6, [r4, #21]
 8002162:	041a      	lsls	r2, r3, #16
 8002164:	6b20      	ldr	r0, [r4, #48]	; 0x30
 8002166:	ea42 3246 	orr.w	r2, r2, r6, lsl #13
 800216a:	4302      	orrs	r2, r0
 800216c:	430a      	orrs	r2, r1
 800216e:	2b01      	cmp	r3, #1
 8002170:	d103      	bne.n	800217a <HAL_ADC_Init+0x10e>
 8002172:	6a23      	ldr	r3, [r4, #32]
 8002174:	3b01      	subs	r3, #1
 8002176:	ea42 4243 	orr.w	r2, r2, r3, lsl #17
 800217a:	6a63      	ldr	r3, [r4, #36]	; 0x24
 800217c:	b123      	cbz	r3, 8002188 <HAL_ADC_Init+0x11c>
 800217e:	f403 7378 	and.w	r3, r3, #992	; 0x3e0
 8002182:	6aa1      	ldr	r1, [r4, #40]	; 0x28
 8002184:	430b      	orrs	r3, r1
 8002186:	431a      	orrs	r2, r3
 8002188:	6823      	ldr	r3, [r4, #0]
 800218a:	493b      	ldr	r1, [pc, #236]	; (8002278 <HAL_ADC_Init+0x20c>)
 800218c:	68d8      	ldr	r0, [r3, #12]
 800218e:	4001      	ands	r1, r0
 8002190:	430a      	orrs	r2, r1
 8002192:	60da      	str	r2, [r3, #12]
 8002194:	689a      	ldr	r2, [r3, #8]
 8002196:	f012 0f04 	tst.w	r2, #4
 800219a:	689a      	ldr	r2, [r3, #8]
 800219c:	d11c      	bne.n	80021d8 <HAL_ADC_Init+0x16c>
 800219e:	0712      	lsls	r2, r2, #28
 80021a0:	d41a      	bmi.n	80021d8 <HAL_ADC_Init+0x16c>
 80021a2:	68d9      	ldr	r1, [r3, #12]
 80021a4:	4a35      	ldr	r2, [pc, #212]	; (800227c <HAL_ADC_Init+0x210>)
 80021a6:	7d20      	ldrb	r0, [r4, #20]
 80021a8:	400a      	ands	r2, r1
 80021aa:	6ae1      	ldr	r1, [r4, #44]	; 0x2c
 80021ac:	ea42 3280 	orr.w	r2, r2, r0, lsl #14
 80021b0:	430a      	orrs	r2, r1
 80021b2:	60da      	str	r2, [r3, #12]
 80021b4:	f894 2038 	ldrb.w	r2, [r4, #56]	; 0x38
 80021b8:	2a01      	cmp	r2, #1
 80021ba:	d03a      	beq.n	8002232 <HAL_ADC_Init+0x1c6>
 80021bc:	691a      	ldr	r2, [r3, #16]
 80021be:	f022 0201 	bic.w	r2, r2, #1
 80021c2:	611a      	str	r2, [r3, #16]
 80021c4:	691a      	ldr	r2, [r3, #16]
 80021c6:	4620      	mov	r0, r4
 80021c8:	6b61      	ldr	r1, [r4, #52]	; 0x34
 80021ca:	f022 4270 	bic.w	r2, r2, #4026531840	; 0xf0000000
 80021ce:	430a      	orrs	r2, r1
 80021d0:	611a      	str	r2, [r3, #16]
 80021d2:	f7ff fe87 	bl	8001ee4 <ADC_ConfigureBoostMode>
 80021d6:	6823      	ldr	r3, [r4, #0]
 80021d8:	68e2      	ldr	r2, [r4, #12]
 80021da:	2a01      	cmp	r2, #1
 80021dc:	d021      	beq.n	8002222 <HAL_ADC_Init+0x1b6>
 80021de:	6b1a      	ldr	r2, [r3, #48]	; 0x30
 80021e0:	f022 020f 	bic.w	r2, r2, #15
 80021e4:	631a      	str	r2, [r3, #48]	; 0x30
 80021e6:	6d63      	ldr	r3, [r4, #84]	; 0x54
 80021e8:	4628      	mov	r0, r5
 80021ea:	f023 0303 	bic.w	r3, r3, #3
 80021ee:	f043 0301 	orr.w	r3, r3, #1
 80021f2:	6563      	str	r3, [r4, #84]	; 0x54
 80021f4:	b002      	add	sp, #8
 80021f6:	bd70      	pop	{r4, r5, r6, pc}
 80021f8:	f7fe f8c0 	bl	800037c <HAL_ADC_MspInit>
 80021fc:	65a5      	str	r5, [r4, #88]	; 0x58
 80021fe:	f884 5050 	strb.w	r5, [r4, #80]	; 0x50
 8002202:	e73f      	b.n	8002084 <HAL_ADC_Init+0x18>
 8002204:	2910      	cmp	r1, #16
 8002206:	d1ab      	bne.n	8002160 <HAL_ADC_Init+0xf4>
 8002208:	7d60      	ldrb	r0, [r4, #21]
 800220a:	041a      	lsls	r2, r3, #16
 800220c:	6b21      	ldr	r1, [r4, #48]	; 0x30
 800220e:	ea42 3240 	orr.w	r2, r2, r0, lsl #13
 8002212:	430a      	orrs	r2, r1
 8002214:	f042 021c 	orr.w	r2, r2, #28
 8002218:	e7a9      	b.n	800216e <HAL_ADC_Init+0x102>
 800221a:	2501      	movs	r5, #1
 800221c:	4628      	mov	r0, r5
 800221e:	b002      	add	sp, #8
 8002220:	bd70      	pop	{r4, r5, r6, pc}
 8002222:	6b19      	ldr	r1, [r3, #48]	; 0x30
 8002224:	69a2      	ldr	r2, [r4, #24]
 8002226:	f021 010f 	bic.w	r1, r1, #15
 800222a:	3a01      	subs	r2, #1
 800222c:	430a      	orrs	r2, r1
 800222e:	631a      	str	r2, [r3, #48]	; 0x30
 8002230:	e7d9      	b.n	80021e6 <HAL_ADC_Init+0x17a>
 8002232:	e9d4 120f 	ldrd	r1, r2, [r4, #60]	; 0x3c
 8002236:	6c66      	ldr	r6, [r4, #68]	; 0x44
 8002238:	3901      	subs	r1, #1
 800223a:	6ca0      	ldr	r0, [r4, #72]	; 0x48
 800223c:	4332      	orrs	r2, r6
 800223e:	691e      	ldr	r6, [r3, #16]
 8002240:	ea42 4201 	orr.w	r2, r2, r1, lsl #16
 8002244:	490e      	ldr	r1, [pc, #56]	; (8002280 <HAL_ADC_Init+0x214>)
 8002246:	4302      	orrs	r2, r0
 8002248:	4031      	ands	r1, r6
 800224a:	430a      	orrs	r2, r1
 800224c:	f042 0201 	orr.w	r2, r2, #1
 8002250:	611a      	str	r2, [r3, #16]
 8002252:	e7b7      	b.n	80021c4 <HAL_ADC_Init+0x158>
 8002254:	5fffffc0 	.word	0x5fffffc0
 8002258:	240040c8 	.word	0x240040c8
 800225c:	053e2d63 	.word	0x053e2d63
 8002260:	6fffffc0 	.word	0x6fffffc0
 8002264:	40022000 	.word	0x40022000
 8002268:	58026000 	.word	0x58026000
 800226c:	58026300 	.word	0x58026300
 8002270:	40022100 	.word	0x40022100
 8002274:	40022300 	.word	0x40022300
 8002278:	fff0c003 	.word	0xfff0c003
 800227c:	ffffbffc 	.word	0xffffbffc
 8002280:	fc00f81e 	.word	0xfc00f81e

08002284 <HAL_ADCEx_MultiModeConfigChannel>:
 8002284:	b4f0      	push	{r4, r5, r6, r7}
 8002286:	f890 2050 	ldrb.w	r2, [r0, #80]	; 0x50
 800228a:	b09a      	sub	sp, #104	; 0x68
 800228c:	680e      	ldr	r6, [r1, #0]
 800228e:	2a01      	cmp	r2, #1
 8002290:	d04d      	beq.n	800232e <HAL_ADCEx_MultiModeConfigChannel+0xaa>
 8002292:	4603      	mov	r3, r0
 8002294:	4c2b      	ldr	r4, [pc, #172]	; (8002344 <HAL_ADCEx_MultiModeConfigChannel+0xc0>)
 8002296:	2200      	movs	r2, #0
 8002298:	2001      	movs	r0, #1
 800229a:	681d      	ldr	r5, [r3, #0]
 800229c:	9216      	str	r2, [sp, #88]	; 0x58
 800229e:	42a5      	cmp	r5, r4
 80022a0:	f883 0050 	strb.w	r0, [r3, #80]	; 0x50
 80022a4:	9217      	str	r2, [sp, #92]	; 0x5c
 80022a6:	d008      	beq.n	80022ba <HAL_ADCEx_MultiModeConfigChannel+0x36>
 80022a8:	6d59      	ldr	r1, [r3, #84]	; 0x54
 80022aa:	f883 2050 	strb.w	r2, [r3, #80]	; 0x50
 80022ae:	f041 0120 	orr.w	r1, r1, #32
 80022b2:	6559      	str	r1, [r3, #84]	; 0x54
 80022b4:	b01a      	add	sp, #104	; 0x68
 80022b6:	bcf0      	pop	{r4, r5, r6, r7}
 80022b8:	4770      	bx	lr
 80022ba:	4c23      	ldr	r4, [pc, #140]	; (8002348 <HAL_ADCEx_MultiModeConfigChannel+0xc4>)
 80022bc:	68a2      	ldr	r2, [r4, #8]
 80022be:	0752      	lsls	r2, r2, #29
 80022c0:	d50b      	bpl.n	80022da <HAL_ADCEx_MultiModeConfigChannel+0x56>
 80022c2:	68aa      	ldr	r2, [r5, #8]
 80022c4:	6d5a      	ldr	r2, [r3, #84]	; 0x54
 80022c6:	2001      	movs	r0, #1
 80022c8:	f042 0220 	orr.w	r2, r2, #32
 80022cc:	655a      	str	r2, [r3, #84]	; 0x54
 80022ce:	2200      	movs	r2, #0
 80022d0:	f883 2050 	strb.w	r2, [r3, #80]	; 0x50
 80022d4:	b01a      	add	sp, #104	; 0x68
 80022d6:	bcf0      	pop	{r4, r5, r6, r7}
 80022d8:	4770      	bx	lr
 80022da:	68a8      	ldr	r0, [r5, #8]
 80022dc:	f010 0004 	ands.w	r0, r0, #4
 80022e0:	d1f0      	bne.n	80022c4 <HAL_ADCEx_MultiModeConfigChannel+0x40>
 80022e2:	b1c6      	cbz	r6, 8002316 <HAL_ADCEx_MultiModeConfigChannel+0x92>
 80022e4:	f8df c068 	ldr.w	ip, [pc, #104]	; 8002350 <HAL_ADCEx_MultiModeConfigChannel+0xcc>
 80022e8:	684f      	ldr	r7, [r1, #4]
 80022ea:	f8dc 2008 	ldr.w	r2, [ip, #8]
 80022ee:	f422 4240 	bic.w	r2, r2, #49152	; 0xc000
 80022f2:	433a      	orrs	r2, r7
 80022f4:	f8cc 2008 	str.w	r2, [ip, #8]
 80022f8:	68ad      	ldr	r5, [r5, #8]
 80022fa:	68a2      	ldr	r2, [r4, #8]
 80022fc:	432a      	orrs	r2, r5
 80022fe:	07d4      	lsls	r4, r2, #31
 8002300:	d413      	bmi.n	800232a <HAL_ADCEx_MultiModeConfigChannel+0xa6>
 8002302:	688a      	ldr	r2, [r1, #8]
 8002304:	f8dc 4008 	ldr.w	r4, [ip, #8]
 8002308:	4910      	ldr	r1, [pc, #64]	; (800234c <HAL_ADCEx_MultiModeConfigChannel+0xc8>)
 800230a:	4316      	orrs	r6, r2
 800230c:	4021      	ands	r1, r4
 800230e:	430e      	orrs	r6, r1
 8002310:	f8cc 6008 	str.w	r6, [ip, #8]
 8002314:	e7db      	b.n	80022ce <HAL_ADCEx_MultiModeConfigChannel+0x4a>
 8002316:	490e      	ldr	r1, [pc, #56]	; (8002350 <HAL_ADCEx_MultiModeConfigChannel+0xcc>)
 8002318:	688a      	ldr	r2, [r1, #8]
 800231a:	f422 4240 	bic.w	r2, r2, #49152	; 0xc000
 800231e:	608a      	str	r2, [r1, #8]
 8002320:	68a8      	ldr	r0, [r5, #8]
 8002322:	68a2      	ldr	r2, [r4, #8]
 8002324:	4302      	orrs	r2, r0
 8002326:	07d0      	lsls	r0, r2, #31
 8002328:	d505      	bpl.n	8002336 <HAL_ADCEx_MultiModeConfigChannel+0xb2>
 800232a:	2000      	movs	r0, #0
 800232c:	e7cf      	b.n	80022ce <HAL_ADCEx_MultiModeConfigChannel+0x4a>
 800232e:	2002      	movs	r0, #2
 8002330:	b01a      	add	sp, #104	; 0x68
 8002332:	bcf0      	pop	{r4, r5, r6, r7}
 8002334:	4770      	bx	lr
 8002336:	688c      	ldr	r4, [r1, #8]
 8002338:	4630      	mov	r0, r6
 800233a:	4a04      	ldr	r2, [pc, #16]	; (800234c <HAL_ADCEx_MultiModeConfigChannel+0xc8>)
 800233c:	4022      	ands	r2, r4
 800233e:	608a      	str	r2, [r1, #8]
 8002340:	e7c5      	b.n	80022ce <HAL_ADCEx_MultiModeConfigChannel+0x4a>
 8002342:	bf00      	nop
 8002344:	40022000 	.word	0x40022000
 8002348:	40022100 	.word	0x40022100
 800234c:	fffff0e0 	.word	0xfffff0e0
 8002350:	40022300 	.word	0x40022300

08002354 <HAL_NVIC_SetPriorityGrouping>:
 8002354:	4907      	ldr	r1, [pc, #28]	; (8002374 <HAL_NVIC_SetPriorityGrouping+0x20>)
 8002356:	0200      	lsls	r0, r0, #8
 8002358:	4b07      	ldr	r3, [pc, #28]	; (8002378 <HAL_NVIC_SetPriorityGrouping+0x24>)
 800235a:	68ca      	ldr	r2, [r1, #12]
 800235c:	f400 60e0 	and.w	r0, r0, #1792	; 0x700
 8002360:	b410      	push	{r4}
 8002362:	f64f 04ff 	movw	r4, #63743	; 0xf8ff
 8002366:	4022      	ands	r2, r4
 8002368:	f85d 4b04 	ldr.w	r4, [sp], #4
 800236c:	4310      	orrs	r0, r2
 800236e:	4303      	orrs	r3, r0
 8002370:	60cb      	str	r3, [r1, #12]
 8002372:	4770      	bx	lr
 8002374:	e000ed00 	.word	0xe000ed00
 8002378:	05fa0000 	.word	0x05fa0000

0800237c <HAL_NVIC_SetPriority>:
 800237c:	4b19      	ldr	r3, [pc, #100]	; (80023e4 <HAL_NVIC_SetPriority+0x68>)
 800237e:	68db      	ldr	r3, [r3, #12]
 8002380:	f3c3 2302 	ubfx	r3, r3, #8, #3
 8002384:	b430      	push	{r4, r5}
 8002386:	f1c3 0507 	rsb	r5, r3, #7
 800238a:	1d1c      	adds	r4, r3, #4
 800238c:	2d04      	cmp	r5, #4
 800238e:	bf28      	it	cs
 8002390:	2504      	movcs	r5, #4
 8002392:	2c06      	cmp	r4, #6
 8002394:	d919      	bls.n	80023ca <HAL_NVIC_SetPriority+0x4e>
 8002396:	3b03      	subs	r3, #3
 8002398:	f04f 34ff 	mov.w	r4, #4294967295
 800239c:	409c      	lsls	r4, r3
 800239e:	ea22 0204 	bic.w	r2, r2, r4
 80023a2:	f04f 34ff 	mov.w	r4, #4294967295
 80023a6:	2800      	cmp	r0, #0
 80023a8:	fa04 f405 	lsl.w	r4, r4, r5
 80023ac:	ea21 0104 	bic.w	r1, r1, r4
 80023b0:	fa01 f103 	lsl.w	r1, r1, r3
 80023b4:	ea41 0102 	orr.w	r1, r1, r2
 80023b8:	db0a      	blt.n	80023d0 <HAL_NVIC_SetPriority+0x54>
 80023ba:	0109      	lsls	r1, r1, #4
 80023bc:	4b0a      	ldr	r3, [pc, #40]	; (80023e8 <HAL_NVIC_SetPriority+0x6c>)
 80023be:	b2c9      	uxtb	r1, r1
 80023c0:	4403      	add	r3, r0
 80023c2:	f883 1300 	strb.w	r1, [r3, #768]	; 0x300
 80023c6:	bc30      	pop	{r4, r5}
 80023c8:	4770      	bx	lr
 80023ca:	2200      	movs	r2, #0
 80023cc:	4613      	mov	r3, r2
 80023ce:	e7e8      	b.n	80023a2 <HAL_NVIC_SetPriority+0x26>
 80023d0:	f000 000f 	and.w	r0, r0, #15
 80023d4:	0109      	lsls	r1, r1, #4
 80023d6:	4b05      	ldr	r3, [pc, #20]	; (80023ec <HAL_NVIC_SetPriority+0x70>)
 80023d8:	b2c9      	uxtb	r1, r1
 80023da:	4403      	add	r3, r0
 80023dc:	7619      	strb	r1, [r3, #24]
 80023de:	bc30      	pop	{r4, r5}
 80023e0:	4770      	bx	lr
 80023e2:	bf00      	nop
 80023e4:	e000ed00 	.word	0xe000ed00
 80023e8:	e000e100 	.word	0xe000e100
 80023ec:	e000ecfc 	.word	0xe000ecfc

080023f0 <HAL_NVIC_EnableIRQ>:
 80023f0:	2800      	cmp	r0, #0
 80023f2:	db07      	blt.n	8002404 <HAL_NVIC_EnableIRQ+0x14>
 80023f4:	2301      	movs	r3, #1
 80023f6:	f000 011f 	and.w	r1, r0, #31
 80023fa:	4a03      	ldr	r2, [pc, #12]	; (8002408 <HAL_NVIC_EnableIRQ+0x18>)
 80023fc:	0940      	lsrs	r0, r0, #5
 80023fe:	408b      	lsls	r3, r1
 8002400:	f842 3020 	str.w	r3, [r2, r0, lsl #2]
 8002404:	4770      	bx	lr
 8002406:	bf00      	nop
 8002408:	e000e100 	.word	0xe000e100

0800240c <HAL_SYSTICK_Config>:
 800240c:	3801      	subs	r0, #1
 800240e:	f1b0 7f80 	cmp.w	r0, #16777216	; 0x1000000
 8002412:	d20d      	bcs.n	8002430 <HAL_SYSTICK_Config+0x24>
 8002414:	4b07      	ldr	r3, [pc, #28]	; (8002434 <HAL_SYSTICK_Config+0x28>)
 8002416:	2200      	movs	r2, #0
 8002418:	2107      	movs	r1, #7
 800241a:	b430      	push	{r4, r5}
 800241c:	25f0      	movs	r5, #240	; 0xf0
 800241e:	4c06      	ldr	r4, [pc, #24]	; (8002438 <HAL_SYSTICK_Config+0x2c>)
 8002420:	6058      	str	r0, [r3, #4]
 8002422:	4610      	mov	r0, r2
 8002424:	f884 5023 	strb.w	r5, [r4, #35]	; 0x23
 8002428:	609a      	str	r2, [r3, #8]
 800242a:	6019      	str	r1, [r3, #0]
 800242c:	bc30      	pop	{r4, r5}
 800242e:	4770      	bx	lr
 8002430:	2001      	movs	r0, #1
 8002432:	4770      	bx	lr
 8002434:	e000e010 	.word	0xe000e010
 8002438:	e000ed00 	.word	0xe000ed00

0800243c <HAL_GPIO_Init>:
 800243c:	e92d 4ff0 	stmdb	sp!, {r4, r5, r6, r7, r8, r9, sl, fp, lr}
 8002440:	680d      	ldr	r5, [r1, #0]
 8002442:	b085      	sub	sp, #20
 8002444:	2d00      	cmp	r5, #0
 8002446:	f000 80a3 	beq.w	8002590 <HAL_GPIO_Init+0x154>
 800244a:	2300      	movs	r3, #0
 800244c:	f8df b24c 	ldr.w	fp, [pc, #588]	; 800269c <HAL_GPIO_Init+0x260>
 8002450:	9101      	str	r1, [sp, #4]
 8002452:	2201      	movs	r2, #1
 8002454:	409a      	lsls	r2, r3
 8002456:	ea12 0a05 	ands.w	sl, r2, r5
 800245a:	f000 8094 	beq.w	8002586 <HAL_GPIO_Init+0x14a>
 800245e:	9901      	ldr	r1, [sp, #4]
 8002460:	684f      	ldr	r7, [r1, #4]
 8002462:	f007 0c03 	and.w	ip, r7, #3
 8002466:	f10c 34ff 	add.w	r4, ip, #4294967295
 800246a:	2c01      	cmp	r4, #1
 800246c:	ea4f 0443 	mov.w	r4, r3, lsl #1
 8002470:	f240 8091 	bls.w	8002596 <HAL_GPIO_Init+0x15a>
 8002474:	f1bc 0f03 	cmp.w	ip, #3
 8002478:	f040 80d0 	bne.w	800261c <HAL_GPIO_Init+0x1e0>
 800247c:	fa0c f404 	lsl.w	r4, ip, r4
 8002480:	43e6      	mvns	r6, r4
 8002482:	6802      	ldr	r2, [r0, #0]
 8002484:	f417 3f40 	tst.w	r7, #196608	; 0x30000
 8002488:	ea06 0602 	and.w	r6, r6, r2
 800248c:	ea44 0406 	orr.w	r4, r4, r6
 8002490:	6004      	str	r4, [r0, #0]
 8002492:	d078      	beq.n	8002586 <HAL_GPIO_Init+0x14a>
 8002494:	4a7b      	ldr	r2, [pc, #492]	; (8002684 <HAL_GPIO_Init+0x248>)
 8002496:	f023 0e03 	bic.w	lr, r3, #3
 800249a:	240f      	movs	r4, #15
 800249c:	f8d2 60f4 	ldr.w	r6, [r2, #244]	; 0xf4
 80024a0:	4611      	mov	r1, r2
 80024a2:	f003 0203 	and.w	r2, r3, #3
 80024a6:	f046 0c02 	orr.w	ip, r6, #2
 80024aa:	4e77      	ldr	r6, [pc, #476]	; (8002688 <HAL_GPIO_Init+0x24c>)
 80024ac:	0092      	lsls	r2, r2, #2
 80024ae:	f8c1 c0f4 	str.w	ip, [r1, #244]	; 0xf4
 80024b2:	4476      	add	r6, lr
 80024b4:	f8d1 c0f4 	ldr.w	ip, [r1, #244]	; 0xf4
 80024b8:	f5a1 4188 	sub.w	r1, r1, #17408	; 0x4400
 80024bc:	4094      	lsls	r4, r2
 80024be:	f00c 0c02 	and.w	ip, ip, #2
 80024c2:	4288      	cmp	r0, r1
 80024c4:	f8cd c00c 	str.w	ip, [sp, #12]
 80024c8:	f8dd c00c 	ldr.w	ip, [sp, #12]
 80024cc:	f8d6 c008 	ldr.w	ip, [r6, #8]
 80024d0:	ea2c 0404 	bic.w	r4, ip, r4
 80024d4:	d02e      	beq.n	8002534 <HAL_GPIO_Init+0xf8>
 80024d6:	f501 6180 	add.w	r1, r1, #1024	; 0x400
 80024da:	4288      	cmp	r0, r1
 80024dc:	f000 80a8 	beq.w	8002630 <HAL_GPIO_Init+0x1f4>
 80024e0:	496a      	ldr	r1, [pc, #424]	; (800268c <HAL_GPIO_Init+0x250>)
 80024e2:	4288      	cmp	r0, r1
 80024e4:	f000 80aa 	beq.w	800263c <HAL_GPIO_Init+0x200>
 80024e8:	4969      	ldr	r1, [pc, #420]	; (8002690 <HAL_GPIO_Init+0x254>)
 80024ea:	4288      	cmp	r0, r1
 80024ec:	f000 809a 	beq.w	8002624 <HAL_GPIO_Init+0x1e8>
 80024f0:	4968      	ldr	r1, [pc, #416]	; (8002694 <HAL_GPIO_Init+0x258>)
 80024f2:	4288      	cmp	r0, r1
 80024f4:	f000 80ae 	beq.w	8002654 <HAL_GPIO_Init+0x218>
 80024f8:	4967      	ldr	r1, [pc, #412]	; (8002698 <HAL_GPIO_Init+0x25c>)
 80024fa:	4288      	cmp	r0, r1
 80024fc:	f000 80b0 	beq.w	8002660 <HAL_GPIO_Init+0x224>
 8002500:	f8df c19c 	ldr.w	ip, [pc, #412]	; 80026a0 <HAL_GPIO_Init+0x264>
 8002504:	4560      	cmp	r0, ip
 8002506:	f000 809f 	beq.w	8002648 <HAL_GPIO_Init+0x20c>
 800250a:	f8df c198 	ldr.w	ip, [pc, #408]	; 80026a4 <HAL_GPIO_Init+0x268>
 800250e:	4560      	cmp	r0, ip
 8002510:	f000 80ac 	beq.w	800266c <HAL_GPIO_Init+0x230>
 8002514:	f8df c190 	ldr.w	ip, [pc, #400]	; 80026a8 <HAL_GPIO_Init+0x26c>
 8002518:	4560      	cmp	r0, ip
 800251a:	f000 80ad 	beq.w	8002678 <HAL_GPIO_Init+0x23c>
 800251e:	f8df c18c 	ldr.w	ip, [pc, #396]	; 80026ac <HAL_GPIO_Init+0x270>
 8002522:	4560      	cmp	r0, ip
 8002524:	bf0c      	ite	eq
 8002526:	f04f 0c09 	moveq.w	ip, #9
 800252a:	f04f 0c0a 	movne.w	ip, #10
 800252e:	fa0c f202 	lsl.w	r2, ip, r2
 8002532:	4314      	orrs	r4, r2
 8002534:	f04f 42b0 	mov.w	r2, #1476395008	; 0x58000000
 8002538:	60b4      	str	r4, [r6, #8]
 800253a:	ea6f 060a 	mvn.w	r6, sl
 800253e:	6814      	ldr	r4, [r2, #0]
 8002540:	02fa      	lsls	r2, r7, #11
 8002542:	f04f 42b0 	mov.w	r2, #1476395008	; 0x58000000
 8002546:	bf54      	ite	pl
 8002548:	4034      	andpl	r4, r6
 800254a:	ea4a 0404 	orrmi.w	r4, sl, r4
 800254e:	02b9      	lsls	r1, r7, #10
 8002550:	6014      	str	r4, [r2, #0]
 8002552:	6854      	ldr	r4, [r2, #4]
 8002554:	f04f 42b0 	mov.w	r2, #1476395008	; 0x58000000
 8002558:	bf54      	ite	pl
 800255a:	4034      	andpl	r4, r6
 800255c:	ea4a 0404 	orrmi.w	r4, sl, r4
 8002560:	6054      	str	r4, [r2, #4]
 8002562:	03ba      	lsls	r2, r7, #14
 8002564:	f8db 4004 	ldr.w	r4, [fp, #4]
 8002568:	bf54      	ite	pl
 800256a:	4034      	andpl	r4, r6
 800256c:	ea4a 0404 	orrmi.w	r4, sl, r4
 8002570:	03f9      	lsls	r1, r7, #15
 8002572:	f8cb 4004 	str.w	r4, [fp, #4]
 8002576:	f8db 2000 	ldr.w	r2, [fp]
 800257a:	bf54      	ite	pl
 800257c:	4032      	andpl	r2, r6
 800257e:	ea4a 0202 	orrmi.w	r2, sl, r2
 8002582:	f8cb 2000 	str.w	r2, [fp]
 8002586:	3301      	adds	r3, #1
 8002588:	fa35 f203 	lsrs.w	r2, r5, r3
 800258c:	f47f af61 	bne.w	8002452 <HAL_GPIO_Init+0x16>
 8002590:	b005      	add	sp, #20
 8002592:	e8bd 8ff0 	ldmia.w	sp!, {r4, r5, r6, r7, r8, r9, sl, fp, pc}
 8002596:	2603      	movs	r6, #3
 8002598:	f8d0 8008 	ldr.w	r8, [r0, #8]
 800259c:	68c9      	ldr	r1, [r1, #12]
 800259e:	f3c7 1e00 	ubfx	lr, r7, #4, #1
 80025a2:	40a6      	lsls	r6, r4
 80025a4:	fa01 f904 	lsl.w	r9, r1, r4
 80025a8:	fa0e fe03 	lsl.w	lr, lr, r3
 80025ac:	ea28 0806 	bic.w	r8, r8, r6
 80025b0:	43f6      	mvns	r6, r6
 80025b2:	ea49 0808 	orr.w	r8, r9, r8
 80025b6:	f8c0 8008 	str.w	r8, [r0, #8]
 80025ba:	f8d0 8004 	ldr.w	r8, [r0, #4]
 80025be:	ea28 0202 	bic.w	r2, r8, r2
 80025c2:	ea4e 0202 	orr.w	r2, lr, r2
 80025c6:	6042      	str	r2, [r0, #4]
 80025c8:	68c2      	ldr	r2, [r0, #12]
 80025ca:	f1bc 0f02 	cmp.w	ip, #2
 80025ce:	ea02 0e06 	and.w	lr, r2, r6
 80025d2:	9a01      	ldr	r2, [sp, #4]
 80025d4:	6892      	ldr	r2, [r2, #8]
 80025d6:	fa02 f204 	lsl.w	r2, r2, r4
 80025da:	ea42 020e 	orr.w	r2, r2, lr
 80025de:	60c2      	str	r2, [r0, #12]
 80025e0:	d002      	beq.n	80025e8 <HAL_GPIO_Init+0x1ac>
 80025e2:	fa0c f404 	lsl.w	r4, ip, r4
 80025e6:	e74c      	b.n	8002482 <HAL_GPIO_Init+0x46>
 80025e8:	08da      	lsrs	r2, r3, #3
 80025ea:	f003 0e07 	and.w	lr, r3, #7
 80025ee:	f04f 080f 	mov.w	r8, #15
 80025f2:	fa0c f404 	lsl.w	r4, ip, r4
 80025f6:	ea4f 0e8e 	mov.w	lr, lr, lsl #2
 80025fa:	eb00 0c82 	add.w	ip, r0, r2, lsl #2
 80025fe:	9a01      	ldr	r2, [sp, #4]
 8002600:	fa08 f80e 	lsl.w	r8, r8, lr
 8002604:	6912      	ldr	r2, [r2, #16]
 8002606:	f8dc 9020 	ldr.w	r9, [ip, #32]
 800260a:	fa02 f20e 	lsl.w	r2, r2, lr
 800260e:	ea29 0808 	bic.w	r8, r9, r8
 8002612:	ea42 0208 	orr.w	r2, r2, r8
 8002616:	f8cc 2020 	str.w	r2, [ip, #32]
 800261a:	e732      	b.n	8002482 <HAL_GPIO_Init+0x46>
 800261c:	2603      	movs	r6, #3
 800261e:	40a6      	lsls	r6, r4
 8002620:	43f6      	mvns	r6, r6
 8002622:	e7d1      	b.n	80025c8 <HAL_GPIO_Init+0x18c>
 8002624:	f04f 0c03 	mov.w	ip, #3
 8002628:	fa0c f202 	lsl.w	r2, ip, r2
 800262c:	4314      	orrs	r4, r2
 800262e:	e781      	b.n	8002534 <HAL_GPIO_Init+0xf8>
 8002630:	f04f 0c01 	mov.w	ip, #1
 8002634:	fa0c f202 	lsl.w	r2, ip, r2
 8002638:	4314      	orrs	r4, r2
 800263a:	e77b      	b.n	8002534 <HAL_GPIO_Init+0xf8>
 800263c:	f04f 0c02 	mov.w	ip, #2
 8002640:	fa0c f202 	lsl.w	r2, ip, r2
 8002644:	4314      	orrs	r4, r2
 8002646:	e775      	b.n	8002534 <HAL_GPIO_Init+0xf8>
 8002648:	f04f 0c06 	mov.w	ip, #6
 800264c:	fa0c f202 	lsl.w	r2, ip, r2
 8002650:	4314      	orrs	r4, r2
 8002652:	e76f      	b.n	8002534 <HAL_GPIO_Init+0xf8>
 8002654:	f04f 0c04 	mov.w	ip, #4
 8002658:	fa0c f202 	lsl.w	r2, ip, r2
 800265c:	4314      	orrs	r4, r2
 800265e:	e769      	b.n	8002534 <HAL_GPIO_Init+0xf8>
 8002660:	f04f 0c05 	mov.w	ip, #5
 8002664:	fa0c f202 	lsl.w	r2, ip, r2
 8002668:	4314      	orrs	r4, r2
 800266a:	e763      	b.n	8002534 <HAL_GPIO_Init+0xf8>
 800266c:	f04f 0c07 	mov.w	ip, #7
 8002670:	fa0c f202 	lsl.w	r2, ip, r2
 8002674:	4314      	orrs	r4, r2
 8002676:	e75d      	b.n	8002534 <HAL_GPIO_Init+0xf8>
 8002678:	f04f 0c08 	mov.w	ip, #8
 800267c:	fa0c f202 	lsl.w	r2, ip, r2
 8002680:	4314      	orrs	r4, r2
 8002682:	e757      	b.n	8002534 <HAL_GPIO_Init+0xf8>
 8002684:	58024400 	.word	0x58024400
 8002688:	58000400 	.word	0x58000400
 800268c:	58020800 	.word	0x58020800
 8002690:	58020c00 	.word	0x58020c00
 8002694:	58021000 	.word	0x58021000
 8002698:	58021400 	.word	0x58021400
 800269c:	58000080 	.word	0x58000080
 80026a0:	58021800 	.word	0x58021800
 80026a4:	58021c00 	.word	0x58021c00
 80026a8:	58022000 	.word	0x58022000
 80026ac:	58022400 	.word	0x58022400

080026b0 <HAL_GPIO_ReadPin>:
 80026b0:	6903      	ldr	r3, [r0, #16]
 80026b2:	4219      	tst	r1, r3
 80026b4:	bf14      	ite	ne
 80026b6:	2001      	movne	r0, #1
 80026b8:	2000      	moveq	r0, #0
 80026ba:	4770      	bx	lr

080026bc <HAL_GPIO_WritePin>:
 80026bc:	b902      	cbnz	r2, 80026c0 <HAL_GPIO_WritePin+0x4>
 80026be:	0409      	lsls	r1, r1, #16
 80026c0:	6181      	str	r1, [r0, #24]
 80026c2:	4770      	bx	lr

080026c4 <HAL_GPIO_EXTI_IRQHandler>:
 80026c4:	f04f 42b0 	mov.w	r2, #1476395008	; 0x58000000
 80026c8:	f8d2 1088 	ldr.w	r1, [r2, #136]	; 0x88
 80026cc:	4201      	tst	r1, r0
 80026ce:	d100      	bne.n	80026d2 <HAL_GPIO_EXTI_IRQHandler+0xe>
 80026d0:	4770      	bx	lr
 80026d2:	b508      	push	{r3, lr}
 80026d4:	f8c2 0088 	str.w	r0, [r2, #136]	; 0x88
 80026d8:	f7fe fd0a 	bl	80010f0 <HAL_GPIO_EXTI_Callback>
 80026dc:	bd08      	pop	{r3, pc}
 80026de:	bf00      	nop

080026e0 <HAL_I2S_Init>:
 80026e0:	2800      	cmp	r0, #0
 80026e2:	f000 80ab 	beq.w	800283c <HAL_I2S_Init+0x15c>
 80026e6:	b5f8      	push	{r3, r4, r5, r6, r7, lr}
 80026e8:	f890 304d 	ldrb.w	r3, [r0, #77]	; 0x4d
 80026ec:	4604      	mov	r4, r0
 80026ee:	f003 02ff 	and.w	r2, r3, #255	; 0xff
 80026f2:	2b00      	cmp	r3, #0
 80026f4:	d056      	beq.n	80027a4 <HAL_I2S_Init+0xc4>
 80026f6:	2302      	movs	r3, #2
 80026f8:	6822      	ldr	r2, [r4, #0]
 80026fa:	f884 304d 	strb.w	r3, [r4, #77]	; 0x4d
 80026fe:	6813      	ldr	r3, [r2, #0]
 8002700:	07db      	lsls	r3, r3, #31
 8002702:	d44a      	bmi.n	800279a <HAL_I2S_Init+0xba>
 8002704:	f8d4 c004 	ldr.w	ip, [r4, #4]
 8002708:	2300      	movs	r3, #0
 800270a:	f02c 0102 	bic.w	r1, ip, #2
 800270e:	6513      	str	r3, [r2, #80]	; 0x50
 8002710:	f1bc 0f0a 	cmp.w	ip, #10
 8002714:	bf18      	it	ne
 8002716:	2904      	cmpne	r1, #4
 8002718:	bf0c      	ite	eq
 800271a:	2101      	moveq	r1, #1
 800271c:	2100      	movne	r1, #0
 800271e:	d146      	bne.n	80027ae <HAL_I2S_Init+0xce>
 8002720:	6963      	ldr	r3, [r4, #20]
 8002722:	2b02      	cmp	r3, #2
 8002724:	d071      	beq.n	800280a <HAL_I2S_Init+0x12a>
 8002726:	68e2      	ldr	r2, [r4, #12]
 8002728:	f44f 5080 	mov.w	r0, #4096	; 0x1000
 800272c:	68a3      	ldr	r3, [r4, #8]
 800272e:	2a00      	cmp	r2, #0
 8002730:	f023 0380 	bic.w	r3, r3, #128	; 0x80
 8002734:	bf14      	ite	ne
 8002736:	2602      	movne	r6, #2
 8002738:	2601      	moveq	r6, #1
 800273a:	f1a3 0530 	sub.w	r5, r3, #48	; 0x30
 800273e:	f001 ff3b 	bl	80045b8 <HAL_RCCEx_GetPeriphCLKFreq>
 8002742:	6927      	ldr	r7, [r4, #16]
 8002744:	fab5 f585 	clz	r5, r5
 8002748:	f1b7 7f00 	cmp.w	r7, #33554432	; 0x2000000
 800274c:	ea4f 1555 	mov.w	r5, r5, lsr #5
 8002750:	d076      	beq.n	8002840 <HAL_I2S_Init+0x160>
 8002752:	2320      	movs	r3, #32
 8002754:	6962      	ldr	r2, [r4, #20]
 8002756:	fa23 f505 	lsr.w	r5, r3, r5
 800275a:	fb06 f605 	mul.w	r6, r6, r5
 800275e:	fbb0 f0f6 	udiv	r0, r0, r6
 8002762:	eb00 0080 	add.w	r0, r0, r0, lsl #2
 8002766:	0043      	lsls	r3, r0, #1
 8002768:	fbb3 f3f2 	udiv	r3, r3, r2
 800276c:	3305      	adds	r3, #5
 800276e:	4a42      	ldr	r2, [pc, #264]	; (8002878 <HAL_I2S_Init+0x198>)
 8002770:	fba2 2303 	umull	r2, r3, r2, r3
 8002774:	0918      	lsrs	r0, r3, #4
 8002776:	f3c3 02c0 	ubfx	r2, r3, #3, #1
 800277a:	f1a0 0101 	sub.w	r1, r0, #1
 800277e:	fab1 f181 	clz	r1, r1
 8002782:	0949      	lsrs	r1, r1, #5
 8002784:	ea11 03d3 	ands.w	r3, r1, r3, lsr #3
 8002788:	d101      	bne.n	800278e <HAL_I2S_Init+0xae>
 800278a:	28ff      	cmp	r0, #255	; 0xff
 800278c:	d946      	bls.n	800281c <HAL_I2S_Init+0x13c>
 800278e:	6d23      	ldr	r3, [r4, #80]	; 0x50
 8002790:	2001      	movs	r0, #1
 8002792:	f043 0310 	orr.w	r3, r3, #16
 8002796:	6523      	str	r3, [r4, #80]	; 0x50
 8002798:	bdf8      	pop	{r3, r4, r5, r6, r7, pc}
 800279a:	6813      	ldr	r3, [r2, #0]
 800279c:	f023 0301 	bic.w	r3, r3, #1
 80027a0:	6013      	str	r3, [r2, #0]
 80027a2:	e7af      	b.n	8002704 <HAL_I2S_Init+0x24>
 80027a4:	f880 204c 	strb.w	r2, [r0, #76]	; 0x4c
 80027a8:	f7fe fcc6 	bl	8001138 <HAL_I2S_MspInit>
 80027ac:	e7a3      	b.n	80026f6 <HAL_I2S_Init+0x16>
 80027ae:	6927      	ldr	r7, [r4, #16]
 80027b0:	6d15      	ldr	r5, [r2, #80]	; 0x50
 80027b2:	f640 70f8 	movw	r0, #4088	; 0xff8
 80027b6:	4e31      	ldr	r6, [pc, #196]	; (800287c <HAL_I2S_Init+0x19c>)
 80027b8:	68a3      	ldr	r3, [r4, #8]
 80027ba:	402e      	ands	r6, r5
 80027bc:	68e5      	ldr	r5, [r4, #12]
 80027be:	432b      	orrs	r3, r5
 80027c0:	69a5      	ldr	r5, [r4, #24]
 80027c2:	4333      	orrs	r3, r6
 80027c4:	6a26      	ldr	r6, [r4, #32]
 80027c6:	432b      	orrs	r3, r5
 80027c8:	6a65      	ldr	r5, [r4, #36]	; 0x24
 80027ca:	4333      	orrs	r3, r6
 80027cc:	69e6      	ldr	r6, [r4, #28]
 80027ce:	432b      	orrs	r3, r5
 80027d0:	ea43 030c 	orr.w	r3, r3, ip
 80027d4:	433b      	orrs	r3, r7
 80027d6:	f043 0301 	orr.w	r3, r3, #1
 80027da:	6513      	str	r3, [r2, #80]	; 0x50
 80027dc:	6190      	str	r0, [r2, #24]
 80027de:	6813      	ldr	r3, [r2, #0]
 80027e0:	f423 3380 	bic.w	r3, r3, #65536	; 0x10000
 80027e4:	6013      	str	r3, [r2, #0]
 80027e6:	68d3      	ldr	r3, [r2, #12]
 80027e8:	f423 0300 	bic.w	r3, r3, #8388608	; 0x800000
 80027ec:	4333      	orrs	r3, r6
 80027ee:	60d3      	str	r3, [r2, #12]
 80027f0:	b129      	cbz	r1, 80027fe <HAL_I2S_Init+0x11e>
 80027f2:	68d3      	ldr	r3, [r2, #12]
 80027f4:	6aa1      	ldr	r1, [r4, #40]	; 0x28
 80027f6:	f023 4300 	bic.w	r3, r3, #2147483648	; 0x80000000
 80027fa:	430b      	orrs	r3, r1
 80027fc:	60d3      	str	r3, [r2, #12]
 80027fe:	2000      	movs	r0, #0
 8002800:	2301      	movs	r3, #1
 8002802:	6520      	str	r0, [r4, #80]	; 0x50
 8002804:	f884 304d 	strb.w	r3, [r4, #77]	; 0x4d
 8002808:	bdf8      	pop	{r3, r4, r5, r6, r7, pc}
 800280a:	6927      	ldr	r7, [r4, #16]
 800280c:	f44f 3000 	mov.w	r0, #131072	; 0x20000
 8002810:	6d15      	ldr	r5, [r2, #80]	; 0x50
 8002812:	4b1b      	ldr	r3, [pc, #108]	; (8002880 <HAL_I2S_Init+0x1a0>)
 8002814:	402b      	ands	r3, r5
 8002816:	4303      	orrs	r3, r0
 8002818:	6513      	str	r3, [r2, #80]	; 0x50
 800281a:	e7c9      	b.n	80027b0 <HAL_I2S_Init+0xd0>
 800281c:	f8d4 c004 	ldr.w	ip, [r4, #4]
 8002820:	b9e0      	cbnz	r0, 800285c <HAL_I2S_Init+0x17c>
 8002822:	f02c 0102 	bic.w	r1, ip, #2
 8002826:	f04f 7080 	mov.w	r0, #16777216	; 0x1000000
 800282a:	6822      	ldr	r2, [r4, #0]
 800282c:	f1bc 0f0a 	cmp.w	ip, #10
 8002830:	bf18      	it	ne
 8002832:	2904      	cmpne	r1, #4
 8002834:	bf0c      	ite	eq
 8002836:	2101      	moveq	r1, #1
 8002838:	2100      	movne	r1, #0
 800283a:	e7e9      	b.n	8002810 <HAL_I2S_Init+0x130>
 800283c:	2001      	movs	r0, #1
 800283e:	4770      	bx	lr
 8002840:	f44f 7380 	mov.w	r3, #256	; 0x100
 8002844:	6962      	ldr	r2, [r4, #20]
 8002846:	fa23 f505 	lsr.w	r5, r3, r5
 800284a:	fbb0 f0f5 	udiv	r0, r0, r5
 800284e:	eb00 0080 	add.w	r0, r0, r0, lsl #2
 8002852:	0043      	lsls	r3, r0, #1
 8002854:	fbb3 f3f2 	udiv	r3, r3, r2
 8002858:	3305      	adds	r3, #5
 800285a:	e788      	b.n	800276e <HAL_I2S_Init+0x8e>
 800285c:	f02c 0102 	bic.w	r1, ip, #2
 8002860:	0613      	lsls	r3, r2, #24
 8002862:	6822      	ldr	r2, [r4, #0]
 8002864:	f1bc 0f0a 	cmp.w	ip, #10
 8002868:	bf18      	it	ne
 800286a:	2904      	cmpne	r1, #4
 800286c:	ea43 4000 	orr.w	r0, r3, r0, lsl #16
 8002870:	bf0c      	ite	eq
 8002872:	2101      	moveq	r1, #1
 8002874:	2100      	movne	r1, #0
 8002876:	e7cb      	b.n	8002810 <HAL_I2S_Init+0x130>
 8002878:	cccccccd 	.word	0xcccccccd
 800287c:	fdff9040 	.word	0xfdff9040
 8002880:	fe00ffff 	.word	0xfe00ffff

08002884 <HAL_I2S_Transmit>:
 8002884:	2900      	cmp	r1, #0
 8002886:	f000 80a8 	beq.w	80029da <HAL_I2S_Transmit+0x156>
 800288a:	e92d 41f0 	stmdb	sp!, {r4, r5, r6, r7, r8, lr}
 800288e:	461e      	mov	r6, r3
 8002890:	fab2 f382 	clz	r3, r2
 8002894:	095b      	lsrs	r3, r3, #5
 8002896:	2a00      	cmp	r2, #0
 8002898:	f000 8097 	beq.w	80029ca <HAL_I2S_Transmit+0x146>
 800289c:	4604      	mov	r4, r0
 800289e:	f890 004d 	ldrb.w	r0, [r0, #77]	; 0x4d
 80028a2:	2801      	cmp	r0, #1
 80028a4:	b2c5      	uxtb	r5, r0
 80028a6:	d153      	bne.n	8002950 <HAL_I2S_Transmit+0xcc>
 80028a8:	f894 004c 	ldrb.w	r0, [r4, #76]	; 0x4c
 80028ac:	2801      	cmp	r0, #1
 80028ae:	d04f      	beq.n	8002950 <HAL_I2S_Transmit+0xcc>
 80028b0:	2003      	movs	r0, #3
 80028b2:	6827      	ldr	r7, [r4, #0]
 80028b4:	f884 504c 	strb.w	r5, [r4, #76]	; 0x4c
 80028b8:	f884 004d 	strb.w	r0, [r4, #77]	; 0x4d
 80028bc:	6523      	str	r3, [r4, #80]	; 0x50
 80028be:	8622      	strh	r2, [r4, #48]	; 0x30
 80028c0:	8662      	strh	r2, [r4, #50]	; 0x32
 80028c2:	8723      	strh	r3, [r4, #56]	; 0x38
 80028c4:	8763      	strh	r3, [r4, #58]	; 0x3a
 80028c6:	683a      	ldr	r2, [r7, #0]
 80028c8:	62e1      	str	r1, [r4, #44]	; 0x2c
 80028ca:	07d2      	lsls	r2, r2, #31
 80028cc:	6363      	str	r3, [r4, #52]	; 0x34
 80028ce:	d57f      	bpl.n	80029d0 <HAL_I2S_Transmit+0x14c>
 80028d0:	683b      	ldr	r3, [r7, #0]
 80028d2:	f443 7300 	orr.w	r3, r3, #512	; 0x200
 80028d6:	603b      	str	r3, [r7, #0]
 80028d8:	f7fe fe76 	bl	80015c8 <HAL_GetTick>
 80028dc:	4680      	mov	r8, r0
 80028de:	1c73      	adds	r3, r6, #1
 80028e0:	6822      	ldr	r2, [r4, #0]
 80028e2:	d15a      	bne.n	800299a <HAL_I2S_Transmit+0x116>
 80028e4:	6953      	ldr	r3, [r2, #20]
 80028e6:	079d      	lsls	r5, r3, #30
 80028e8:	d5fc      	bpl.n	80028e4 <HAL_I2S_Transmit+0x60>
 80028ea:	8e61      	ldrh	r1, [r4, #50]	; 0x32
 80028ec:	b289      	uxth	r1, r1
 80028ee:	b339      	cbz	r1, 8002940 <HAL_I2S_Transmit+0xbc>
 80028f0:	68e3      	ldr	r3, [r4, #12]
 80028f2:	f5b3 7f80 	cmp.w	r3, #256	; 0x100
 80028f6:	d046      	beq.n	8002986 <HAL_I2S_Transmit+0x102>
 80028f8:	f5b3 7f00 	cmp.w	r3, #512	; 0x200
 80028fc:	d043      	beq.n	8002986 <HAL_I2S_Transmit+0x102>
 80028fe:	6ae2      	ldr	r2, [r4, #44]	; 0x2c
 8002900:	f832 3b02 	ldrh.w	r3, [r2], #2
 8002904:	843b      	strh	r3, [r7, #32]
 8002906:	8e63      	ldrh	r3, [r4, #50]	; 0x32
 8002908:	62e2      	str	r2, [r4, #44]	; 0x2c
 800290a:	3b01      	subs	r3, #1
 800290c:	b29b      	uxth	r3, r3
 800290e:	8663      	strh	r3, [r4, #50]	; 0x32
 8002910:	f7fe fe5a 	bl	80015c8 <HAL_GetTick>
 8002914:	4605      	mov	r5, r0
 8002916:	1c70      	adds	r0, r6, #1
 8002918:	6822      	ldr	r2, [r4, #0]
 800291a:	d11c      	bne.n	8002956 <HAL_I2S_Transmit+0xd2>
 800291c:	6953      	ldr	r3, [r2, #20]
 800291e:	0799      	lsls	r1, r3, #30
 8002920:	d5fc      	bpl.n	800291c <HAL_I2S_Transmit+0x98>
 8002922:	6953      	ldr	r3, [r2, #20]
 8002924:	069b      	lsls	r3, r3, #26
 8002926:	d5e0      	bpl.n	80028ea <HAL_I2S_Transmit+0x66>
 8002928:	6993      	ldr	r3, [r2, #24]
 800292a:	f043 0320 	orr.w	r3, r3, #32
 800292e:	6193      	str	r3, [r2, #24]
 8002930:	6d23      	ldr	r3, [r4, #80]	; 0x50
 8002932:	f043 0304 	orr.w	r3, r3, #4
 8002936:	6523      	str	r3, [r4, #80]	; 0x50
 8002938:	8e61      	ldrh	r1, [r4, #50]	; 0x32
 800293a:	b289      	uxth	r1, r1
 800293c:	2900      	cmp	r1, #0
 800293e:	d1d7      	bne.n	80028f0 <HAL_I2S_Transmit+0x6c>
 8002940:	2301      	movs	r3, #1
 8002942:	4608      	mov	r0, r1
 8002944:	f884 304d 	strb.w	r3, [r4, #77]	; 0x4d
 8002948:	f884 104c 	strb.w	r1, [r4, #76]	; 0x4c
 800294c:	e8bd 81f0 	ldmia.w	sp!, {r4, r5, r6, r7, r8, pc}
 8002950:	2002      	movs	r0, #2
 8002952:	e8bd 81f0 	ldmia.w	sp!, {r4, r5, r6, r7, r8, pc}
 8002956:	6953      	ldr	r3, [r2, #20]
 8002958:	f013 0802 	ands.w	r8, r3, #2
 800295c:	d1e1      	bne.n	8002922 <HAL_I2S_Transmit+0x9e>
 800295e:	f7fe fe33 	bl	80015c8 <HAL_GetTick>
 8002962:	1b40      	subs	r0, r0, r5
 8002964:	4286      	cmp	r6, r0
 8002966:	d8d6      	bhi.n	8002916 <HAL_I2S_Transmit+0x92>
 8002968:	2201      	movs	r2, #1
 800296a:	2003      	movs	r0, #3
 800296c:	f884 204d 	strb.w	r2, [r4, #77]	; 0x4d
 8002970:	f884 804c 	strb.w	r8, [r4, #76]	; 0x4c
 8002974:	6d23      	ldr	r3, [r4, #80]	; 0x50
 8002976:	4313      	orrs	r3, r2
 8002978:	6523      	str	r3, [r4, #80]	; 0x50
 800297a:	f884 204d 	strb.w	r2, [r4, #77]	; 0x4d
 800297e:	f884 804c 	strb.w	r8, [r4, #76]	; 0x4c
 8002982:	e8bd 81f0 	ldmia.w	sp!, {r4, r5, r6, r7, r8, pc}
 8002986:	6ae1      	ldr	r1, [r4, #44]	; 0x2c
 8002988:	f851 3b04 	ldr.w	r3, [r1], #4
 800298c:	6213      	str	r3, [r2, #32]
 800298e:	8e63      	ldrh	r3, [r4, #50]	; 0x32
 8002990:	62e1      	str	r1, [r4, #44]	; 0x2c
 8002992:	3b01      	subs	r3, #1
 8002994:	b29b      	uxth	r3, r3
 8002996:	8663      	strh	r3, [r4, #50]	; 0x32
 8002998:	e7ba      	b.n	8002910 <HAL_I2S_Transmit+0x8c>
 800299a:	6955      	ldr	r5, [r2, #20]
 800299c:	f015 0502 	ands.w	r5, r5, #2
 80029a0:	d1a3      	bne.n	80028ea <HAL_I2S_Transmit+0x66>
 80029a2:	f7fe fe11 	bl	80015c8 <HAL_GetTick>
 80029a6:	eba0 0008 	sub.w	r0, r0, r8
 80029aa:	4286      	cmp	r6, r0
 80029ac:	d897      	bhi.n	80028de <HAL_I2S_Transmit+0x5a>
 80029ae:	2201      	movs	r2, #1
 80029b0:	2003      	movs	r0, #3
 80029b2:	f884 204d 	strb.w	r2, [r4, #77]	; 0x4d
 80029b6:	f884 504c 	strb.w	r5, [r4, #76]	; 0x4c
 80029ba:	6d23      	ldr	r3, [r4, #80]	; 0x50
 80029bc:	4313      	orrs	r3, r2
 80029be:	6523      	str	r3, [r4, #80]	; 0x50
 80029c0:	f884 204d 	strb.w	r2, [r4, #77]	; 0x4d
 80029c4:	f884 504c 	strb.w	r5, [r4, #76]	; 0x4c
 80029c8:	e7c3      	b.n	8002952 <HAL_I2S_Transmit+0xce>
 80029ca:	2001      	movs	r0, #1
 80029cc:	e8bd 81f0 	ldmia.w	sp!, {r4, r5, r6, r7, r8, pc}
 80029d0:	683b      	ldr	r3, [r7, #0]
 80029d2:	f043 0301 	orr.w	r3, r3, #1
 80029d6:	603b      	str	r3, [r7, #0]
 80029d8:	e77a      	b.n	80028d0 <HAL_I2S_Transmit+0x4c>
 80029da:	2001      	movs	r0, #1
 80029dc:	4770      	bx	lr
 80029de:	bf00      	nop

080029e0 <HAL_PWREx_ConfigSupply>:
 80029e0:	b538      	push	{r3, r4, r5, lr}
 80029e2:	4b11      	ldr	r3, [pc, #68]	; (8002a28 <HAL_PWREx_ConfigSupply+0x48>)
 80029e4:	68da      	ldr	r2, [r3, #12]
 80029e6:	0752      	lsls	r2, r2, #29
 80029e8:	d406      	bmi.n	80029f8 <HAL_PWREx_ConfigSupply+0x18>
 80029ea:	68db      	ldr	r3, [r3, #12]
 80029ec:	f003 0307 	and.w	r3, r3, #7
 80029f0:	1a18      	subs	r0, r3, r0
 80029f2:	bf18      	it	ne
 80029f4:	2001      	movne	r0, #1
 80029f6:	bd38      	pop	{r3, r4, r5, pc}
 80029f8:	68da      	ldr	r2, [r3, #12]
 80029fa:	461d      	mov	r5, r3
 80029fc:	f022 0207 	bic.w	r2, r2, #7
 8002a00:	4310      	orrs	r0, r2
 8002a02:	60d8      	str	r0, [r3, #12]
 8002a04:	f7fe fde0 	bl	80015c8 <HAL_GetTick>
 8002a08:	4604      	mov	r4, r0
 8002a0a:	e005      	b.n	8002a18 <HAL_PWREx_ConfigSupply+0x38>
 8002a0c:	f7fe fddc 	bl	80015c8 <HAL_GetTick>
 8002a10:	1b00      	subs	r0, r0, r4
 8002a12:	f5b0 7f7a 	cmp.w	r0, #1000	; 0x3e8
 8002a16:	d804      	bhi.n	8002a22 <HAL_PWREx_ConfigSupply+0x42>
 8002a18:	686b      	ldr	r3, [r5, #4]
 8002a1a:	049b      	lsls	r3, r3, #18
 8002a1c:	d5f6      	bpl.n	8002a0c <HAL_PWREx_ConfigSupply+0x2c>
 8002a1e:	2000      	movs	r0, #0
 8002a20:	bd38      	pop	{r3, r4, r5, pc}
 8002a22:	2001      	movs	r0, #1
 8002a24:	bd38      	pop	{r3, r4, r5, pc}
 8002a26:	bf00      	nop
 8002a28:	58024800 	.word	0x58024800

08002a2c <HAL_RCC_GetSysClockFreq.part.0>:
 8002a2c:	4b3b      	ldr	r3, [pc, #236]	; (8002b1c <HAL_RCC_GetSysClockFreq.part.0+0xf0>)
 8002a2e:	b430      	push	{r4, r5}
 8002a30:	6a9a      	ldr	r2, [r3, #40]	; 0x28
 8002a32:	6a9c      	ldr	r4, [r3, #40]	; 0x28
 8002a34:	6ad9      	ldr	r1, [r3, #44]	; 0x2c
 8002a36:	f414 7f7c 	tst.w	r4, #1008	; 0x3f0
 8002a3a:	f3c4 1005 	ubfx	r0, r4, #4, #6
 8002a3e:	6b5d      	ldr	r5, [r3, #52]	; 0x34
 8002a40:	d038      	beq.n	8002ab4 <HAL_RCC_GetSysClockFreq.part.0+0x88>
 8002a42:	f3c5 05cc 	ubfx	r5, r5, #3, #13
 8002a46:	f001 0101 	and.w	r1, r1, #1
 8002a4a:	f002 0203 	and.w	r2, r2, #3
 8002a4e:	fb01 f105 	mul.w	r1, r1, r5
 8002a52:	2a01      	cmp	r2, #1
 8002a54:	ee07 1a90 	vmov	s15, r1
 8002a58:	eeb8 7ae7 	vcvt.f32.s32	s14, s15
 8002a5c:	d002      	beq.n	8002a64 <HAL_RCC_GetSysClockFreq.part.0+0x38>
 8002a5e:	2a02      	cmp	r2, #2
 8002a60:	d04e      	beq.n	8002b00 <HAL_RCC_GetSysClockFreq.part.0+0xd4>
 8002a62:	b34a      	cbz	r2, 8002ab8 <HAL_RCC_GetSysClockFreq.part.0+0x8c>
 8002a64:	ee07 0a90 	vmov	s15, r0
 8002a68:	eddf 6a2d 	vldr	s13, [pc, #180]	; 8002b20 <HAL_RCC_GetSysClockFreq.part.0+0xf4>
 8002a6c:	eef8 7ae7 	vcvt.f32.s32	s15, s15
 8002a70:	6b1b      	ldr	r3, [r3, #48]	; 0x30
 8002a72:	ee86 6aa7 	vdiv.f32	s12, s13, s15
 8002a76:	eddf 5a2b 	vldr	s11, [pc, #172]	; 8002b24 <HAL_RCC_GetSysClockFreq.part.0+0xf8>
 8002a7a:	f3c3 0308 	ubfx	r3, r3, #0, #9
 8002a7e:	ee06 3a90 	vmov	s13, r3
 8002a82:	eeb7 5a00 	vmov.f32	s10, #112	; 0x3f800000  1.0
 8002a86:	eef8 6ae6 	vcvt.f32.s32	s13, s13
 8002a8a:	ee76 6a85 	vadd.f32	s13, s13, s10
 8002a8e:	eee7 6a25 	vfma.f32	s13, s14, s11
 8002a92:	ee66 6a26 	vmul.f32	s13, s12, s13
 8002a96:	4b21      	ldr	r3, [pc, #132]	; (8002b1c <HAL_RCC_GetSysClockFreq.part.0+0xf0>)
 8002a98:	6b1b      	ldr	r3, [r3, #48]	; 0x30
 8002a9a:	f3c3 2346 	ubfx	r3, r3, #9, #7
 8002a9e:	3301      	adds	r3, #1
 8002aa0:	ee07 3a90 	vmov	s15, r3
 8002aa4:	eeb8 7ae7 	vcvt.f32.s32	s14, s15
 8002aa8:	eec6 7a87 	vdiv.f32	s15, s13, s14
 8002aac:	eefc 7ae7 	vcvt.u32.f32	s15, s15
 8002ab0:	ee17 0a90 	vmov	r0, s15
 8002ab4:	bc30      	pop	{r4, r5}
 8002ab6:	4770      	bx	lr
 8002ab8:	681a      	ldr	r2, [r3, #0]
 8002aba:	0692      	lsls	r2, r2, #26
 8002abc:	d527      	bpl.n	8002b0e <HAL_RCC_GetSysClockFreq.part.0+0xe2>
 8002abe:	6819      	ldr	r1, [r3, #0]
 8002ac0:	ee07 0a90 	vmov	s15, r0
 8002ac4:	4a18      	ldr	r2, [pc, #96]	; (8002b28 <HAL_RCC_GetSysClockFreq.part.0+0xfc>)
 8002ac6:	eef7 4a00 	vmov.f32	s9, #112	; 0x3f800000  1.0
 8002aca:	f3c1 01c1 	ubfx	r1, r1, #3, #2
 8002ace:	eef8 7ae7 	vcvt.f32.s32	s15, s15
 8002ad2:	6b1b      	ldr	r3, [r3, #48]	; 0x30
 8002ad4:	40ca      	lsrs	r2, r1
 8002ad6:	ed9f 5a13 	vldr	s10, [pc, #76]	; 8002b24 <HAL_RCC_GetSysClockFreq.part.0+0xf8>
 8002ada:	f3c3 0308 	ubfx	r3, r3, #0, #9
 8002ade:	ee06 2a10 	vmov	s12, r2
 8002ae2:	ee06 3a90 	vmov	s13, r3
 8002ae6:	eef8 5ac6 	vcvt.f32.s32	s11, s12
 8002aea:	eef8 6ae6 	vcvt.f32.s32	s13, s13
 8002aee:	ee85 6aa7 	vdiv.f32	s12, s11, s15
 8002af2:	ee76 6aa4 	vadd.f32	s13, s13, s9
 8002af6:	eee7 6a05 	vfma.f32	s13, s14, s10
 8002afa:	ee66 6a26 	vmul.f32	s13, s12, s13
 8002afe:	e7ca      	b.n	8002a96 <HAL_RCC_GetSysClockFreq.part.0+0x6a>
 8002b00:	ee07 0a90 	vmov	s15, r0
 8002b04:	eddf 6a09 	vldr	s13, [pc, #36]	; 8002b2c <HAL_RCC_GetSysClockFreq.part.0+0x100>
 8002b08:	eef8 7ae7 	vcvt.f32.s32	s15, s15
 8002b0c:	e7b0      	b.n	8002a70 <HAL_RCC_GetSysClockFreq.part.0+0x44>
 8002b0e:	ee07 0a90 	vmov	s15, r0
 8002b12:	eddf 6a07 	vldr	s13, [pc, #28]	; 8002b30 <HAL_RCC_GetSysClockFreq.part.0+0x104>
 8002b16:	eef8 7ae7 	vcvt.f32.s32	s15, s15
 8002b1a:	e7a9      	b.n	8002a70 <HAL_RCC_GetSysClockFreq.part.0+0x44>
 8002b1c:	58024400 	.word	0x58024400
 8002b20:	4a742400 	.word	0x4a742400
 8002b24:	39000000 	.word	0x39000000
 8002b28:	03d09000 	.word	0x03d09000
 8002b2c:	4bbebc20 	.word	0x4bbebc20
 8002b30:	4c742400 	.word	0x4c742400

08002b34 <HAL_RCC_OscConfig>:
 8002b34:	2800      	cmp	r0, #0
 8002b36:	f000 81f8 	beq.w	8002f2a <HAL_RCC_OscConfig+0x3f6>
 8002b3a:	b5f8      	push	{r3, r4, r5, r6, r7, lr}
 8002b3c:	6803      	ldr	r3, [r0, #0]
 8002b3e:	4604      	mov	r4, r0
 8002b40:	07d9      	lsls	r1, r3, #31
 8002b42:	d52e      	bpl.n	8002ba2 <HAL_RCC_OscConfig+0x6e>
 8002b44:	49a7      	ldr	r1, [pc, #668]	; (8002de4 <HAL_RCC_OscConfig+0x2b0>)
 8002b46:	690a      	ldr	r2, [r1, #16]
 8002b48:	6a89      	ldr	r1, [r1, #40]	; 0x28
 8002b4a:	f002 0238 	and.w	r2, r2, #56	; 0x38
 8002b4e:	2a10      	cmp	r2, #16
 8002b50:	f000 810d 	beq.w	8002d6e <HAL_RCC_OscConfig+0x23a>
 8002b54:	2a18      	cmp	r2, #24
 8002b56:	f000 8105 	beq.w	8002d64 <HAL_RCC_OscConfig+0x230>
 8002b5a:	6863      	ldr	r3, [r4, #4]
 8002b5c:	f5b3 3f80 	cmp.w	r3, #65536	; 0x10000
 8002b60:	f000 8130 	beq.w	8002dc4 <HAL_RCC_OscConfig+0x290>
 8002b64:	2b00      	cmp	r3, #0
 8002b66:	f000 816e 	beq.w	8002e46 <HAL_RCC_OscConfig+0x312>
 8002b6a:	f5b3 2fa0 	cmp.w	r3, #327680	; 0x50000
 8002b6e:	4b9d      	ldr	r3, [pc, #628]	; (8002de4 <HAL_RCC_OscConfig+0x2b0>)
 8002b70:	681a      	ldr	r2, [r3, #0]
 8002b72:	f000 827a 	beq.w	800306a <HAL_RCC_OscConfig+0x536>
 8002b76:	f422 3280 	bic.w	r2, r2, #65536	; 0x10000
 8002b7a:	601a      	str	r2, [r3, #0]
 8002b7c:	681a      	ldr	r2, [r3, #0]
 8002b7e:	f422 2280 	bic.w	r2, r2, #262144	; 0x40000
 8002b82:	601a      	str	r2, [r3, #0]
 8002b84:	f7fe fd20 	bl	80015c8 <HAL_GetTick>
 8002b88:	4e96      	ldr	r6, [pc, #600]	; (8002de4 <HAL_RCC_OscConfig+0x2b0>)
 8002b8a:	4605      	mov	r5, r0
 8002b8c:	e005      	b.n	8002b9a <HAL_RCC_OscConfig+0x66>
 8002b8e:	f7fe fd1b 	bl	80015c8 <HAL_GetTick>
 8002b92:	1b40      	subs	r0, r0, r5
 8002b94:	2864      	cmp	r0, #100	; 0x64
 8002b96:	f200 8154 	bhi.w	8002e42 <HAL_RCC_OscConfig+0x30e>
 8002b9a:	6833      	ldr	r3, [r6, #0]
 8002b9c:	039b      	lsls	r3, r3, #14
 8002b9e:	d5f6      	bpl.n	8002b8e <HAL_RCC_OscConfig+0x5a>
 8002ba0:	6823      	ldr	r3, [r4, #0]
 8002ba2:	0798      	lsls	r0, r3, #30
 8002ba4:	f100 808e 	bmi.w	8002cc4 <HAL_RCC_OscConfig+0x190>
 8002ba8:	06d9      	lsls	r1, r3, #27
 8002baa:	d534      	bpl.n	8002c16 <HAL_RCC_OscConfig+0xe2>
 8002bac:	4a8d      	ldr	r2, [pc, #564]	; (8002de4 <HAL_RCC_OscConfig+0x2b0>)
 8002bae:	6913      	ldr	r3, [r2, #16]
 8002bb0:	6a92      	ldr	r2, [r2, #40]	; 0x28
 8002bb2:	f003 0338 	and.w	r3, r3, #56	; 0x38
 8002bb6:	2b08      	cmp	r3, #8
 8002bb8:	f000 80e9 	beq.w	8002d8e <HAL_RCC_OscConfig+0x25a>
 8002bbc:	2b18      	cmp	r3, #24
 8002bbe:	f000 80e1 	beq.w	8002d84 <HAL_RCC_OscConfig+0x250>
 8002bc2:	69e3      	ldr	r3, [r4, #28]
 8002bc4:	2b00      	cmp	r3, #0
 8002bc6:	f000 817b 	beq.w	8002ec0 <HAL_RCC_OscConfig+0x38c>
 8002bca:	4b86      	ldr	r3, [pc, #536]	; (8002de4 <HAL_RCC_OscConfig+0x2b0>)
 8002bcc:	681a      	ldr	r2, [r3, #0]
 8002bce:	461e      	mov	r6, r3
 8002bd0:	f042 0280 	orr.w	r2, r2, #128	; 0x80
 8002bd4:	601a      	str	r2, [r3, #0]
 8002bd6:	f7fe fcf7 	bl	80015c8 <HAL_GetTick>
 8002bda:	4605      	mov	r5, r0
 8002bdc:	e005      	b.n	8002bea <HAL_RCC_OscConfig+0xb6>
 8002bde:	f7fe fcf3 	bl	80015c8 <HAL_GetTick>
 8002be2:	1b40      	subs	r0, r0, r5
 8002be4:	2802      	cmp	r0, #2
 8002be6:	f200 812c 	bhi.w	8002e42 <HAL_RCC_OscConfig+0x30e>
 8002bea:	6833      	ldr	r3, [r6, #0]
 8002bec:	05db      	lsls	r3, r3, #23
 8002bee:	d5f6      	bpl.n	8002bde <HAL_RCC_OscConfig+0xaa>
 8002bf0:	f7fe fd02 	bl	80015f8 <HAL_GetREVID>
 8002bf4:	f241 0303 	movw	r3, #4099	; 0x1003
 8002bf8:	4298      	cmp	r0, r3
 8002bfa:	f200 8258 	bhi.w	80030ae <HAL_RCC_OscConfig+0x57a>
 8002bfe:	6a22      	ldr	r2, [r4, #32]
 8002c00:	6873      	ldr	r3, [r6, #4]
 8002c02:	2a20      	cmp	r2, #32
 8002c04:	f023 43f8 	bic.w	r3, r3, #2080374784	; 0x7c000000
 8002c08:	bf0c      	ite	eq
 8002c0a:	f043 4380 	orreq.w	r3, r3, #1073741824	; 0x40000000
 8002c0e:	ea43 6382 	orrne.w	r3, r3, r2, lsl #26
 8002c12:	6073      	str	r3, [r6, #4]
 8002c14:	6823      	ldr	r3, [r4, #0]
 8002c16:	071d      	lsls	r5, r3, #28
 8002c18:	d517      	bpl.n	8002c4a <HAL_RCC_OscConfig+0x116>
 8002c1a:	6963      	ldr	r3, [r4, #20]
 8002c1c:	2b00      	cmp	r3, #0
 8002c1e:	f000 8129 	beq.w	8002e74 <HAL_RCC_OscConfig+0x340>
 8002c22:	4b70      	ldr	r3, [pc, #448]	; (8002de4 <HAL_RCC_OscConfig+0x2b0>)
 8002c24:	6f5a      	ldr	r2, [r3, #116]	; 0x74
 8002c26:	461e      	mov	r6, r3
 8002c28:	f042 0201 	orr.w	r2, r2, #1
 8002c2c:	675a      	str	r2, [r3, #116]	; 0x74
 8002c2e:	f7fe fccb 	bl	80015c8 <HAL_GetTick>
 8002c32:	4605      	mov	r5, r0
 8002c34:	e005      	b.n	8002c42 <HAL_RCC_OscConfig+0x10e>
 8002c36:	f7fe fcc7 	bl	80015c8 <HAL_GetTick>
 8002c3a:	1b40      	subs	r0, r0, r5
 8002c3c:	2802      	cmp	r0, #2
 8002c3e:	f200 8100 	bhi.w	8002e42 <HAL_RCC_OscConfig+0x30e>
 8002c42:	6f73      	ldr	r3, [r6, #116]	; 0x74
 8002c44:	0798      	lsls	r0, r3, #30
 8002c46:	d5f6      	bpl.n	8002c36 <HAL_RCC_OscConfig+0x102>
 8002c48:	6823      	ldr	r3, [r4, #0]
 8002c4a:	069a      	lsls	r2, r3, #26
 8002c4c:	d517      	bpl.n	8002c7e <HAL_RCC_OscConfig+0x14a>
 8002c4e:	69a3      	ldr	r3, [r4, #24]
 8002c50:	2b00      	cmp	r3, #0
 8002c52:	f000 8122 	beq.w	8002e9a <HAL_RCC_OscConfig+0x366>
 8002c56:	4b63      	ldr	r3, [pc, #396]	; (8002de4 <HAL_RCC_OscConfig+0x2b0>)
 8002c58:	681a      	ldr	r2, [r3, #0]
 8002c5a:	461e      	mov	r6, r3
 8002c5c:	f442 5280 	orr.w	r2, r2, #4096	; 0x1000
 8002c60:	601a      	str	r2, [r3, #0]
 8002c62:	f7fe fcb1 	bl	80015c8 <HAL_GetTick>
 8002c66:	4605      	mov	r5, r0
 8002c68:	e005      	b.n	8002c76 <HAL_RCC_OscConfig+0x142>
 8002c6a:	f7fe fcad 	bl	80015c8 <HAL_GetTick>
 8002c6e:	1b40      	subs	r0, r0, r5
 8002c70:	2802      	cmp	r0, #2
 8002c72:	f200 80e6 	bhi.w	8002e42 <HAL_RCC_OscConfig+0x30e>
 8002c76:	6833      	ldr	r3, [r6, #0]
 8002c78:	049f      	lsls	r7, r3, #18
 8002c7a:	d5f6      	bpl.n	8002c6a <HAL_RCC_OscConfig+0x136>
 8002c7c:	6823      	ldr	r3, [r4, #0]
 8002c7e:	0759      	lsls	r1, r3, #29
 8002c80:	f100 80a6 	bmi.w	8002dd0 <HAL_RCC_OscConfig+0x29c>
 8002c84:	6a60      	ldr	r0, [r4, #36]	; 0x24
 8002c86:	b1d8      	cbz	r0, 8002cc0 <HAL_RCC_OscConfig+0x18c>
 8002c88:	4b56      	ldr	r3, [pc, #344]	; (8002de4 <HAL_RCC_OscConfig+0x2b0>)
 8002c8a:	691a      	ldr	r2, [r3, #16]
 8002c8c:	f002 0238 	and.w	r2, r2, #56	; 0x38
 8002c90:	2a18      	cmp	r2, #24
 8002c92:	f000 81bc 	beq.w	800300e <HAL_RCC_OscConfig+0x4da>
 8002c96:	681a      	ldr	r2, [r3, #0]
 8002c98:	2802      	cmp	r0, #2
 8002c9a:	461d      	mov	r5, r3
 8002c9c:	f022 7280 	bic.w	r2, r2, #16777216	; 0x1000000
 8002ca0:	601a      	str	r2, [r3, #0]
 8002ca2:	f000 814e 	beq.w	8002f42 <HAL_RCC_OscConfig+0x40e>
 8002ca6:	f7fe fc8f 	bl	80015c8 <HAL_GetTick>
 8002caa:	4604      	mov	r4, r0
 8002cac:	e005      	b.n	8002cba <HAL_RCC_OscConfig+0x186>
 8002cae:	f7fe fc8b 	bl	80015c8 <HAL_GetTick>
 8002cb2:	1b00      	subs	r0, r0, r4
 8002cb4:	2802      	cmp	r0, #2
 8002cb6:	f200 80c4 	bhi.w	8002e42 <HAL_RCC_OscConfig+0x30e>
 8002cba:	682b      	ldr	r3, [r5, #0]
 8002cbc:	019b      	lsls	r3, r3, #6
 8002cbe:	d4f6      	bmi.n	8002cae <HAL_RCC_OscConfig+0x17a>
 8002cc0:	2000      	movs	r0, #0
 8002cc2:	bdf8      	pop	{r3, r4, r5, r6, r7, pc}
 8002cc4:	4a47      	ldr	r2, [pc, #284]	; (8002de4 <HAL_RCC_OscConfig+0x2b0>)
 8002cc6:	6913      	ldr	r3, [r2, #16]
 8002cc8:	6a92      	ldr	r2, [r2, #40]	; 0x28
 8002cca:	f013 0338 	ands.w	r3, r3, #56	; 0x38
 8002cce:	d12e      	bne.n	8002d2e <HAL_RCC_OscConfig+0x1fa>
 8002cd0:	4b44      	ldr	r3, [pc, #272]	; (8002de4 <HAL_RCC_OscConfig+0x2b0>)
 8002cd2:	68e1      	ldr	r1, [r4, #12]
 8002cd4:	681b      	ldr	r3, [r3, #0]
 8002cd6:	075a      	lsls	r2, r3, #29
 8002cd8:	d501      	bpl.n	8002cde <HAL_RCC_OscConfig+0x1aa>
 8002cda:	2900      	cmp	r1, #0
 8002cdc:	d050      	beq.n	8002d80 <HAL_RCC_OscConfig+0x24c>
 8002cde:	4a41      	ldr	r2, [pc, #260]	; (8002de4 <HAL_RCC_OscConfig+0x2b0>)
 8002ce0:	6813      	ldr	r3, [r2, #0]
 8002ce2:	4616      	mov	r6, r2
 8002ce4:	f023 0319 	bic.w	r3, r3, #25
 8002ce8:	430b      	orrs	r3, r1
 8002cea:	6013      	str	r3, [r2, #0]
 8002cec:	f7fe fc6c 	bl	80015c8 <HAL_GetTick>
 8002cf0:	4605      	mov	r5, r0
 8002cf2:	e005      	b.n	8002d00 <HAL_RCC_OscConfig+0x1cc>
 8002cf4:	f7fe fc68 	bl	80015c8 <HAL_GetTick>
 8002cf8:	1b40      	subs	r0, r0, r5
 8002cfa:	2802      	cmp	r0, #2
 8002cfc:	f200 80a1 	bhi.w	8002e42 <HAL_RCC_OscConfig+0x30e>
 8002d00:	6833      	ldr	r3, [r6, #0]
 8002d02:	075b      	lsls	r3, r3, #29
 8002d04:	d5f6      	bpl.n	8002cf4 <HAL_RCC_OscConfig+0x1c0>
 8002d06:	f7fe fc77 	bl	80015f8 <HAL_GetREVID>
 8002d0a:	f241 0303 	movw	r3, #4099	; 0x1003
 8002d0e:	4298      	cmp	r0, r3
 8002d10:	f200 8102 	bhi.w	8002f18 <HAL_RCC_OscConfig+0x3e4>
 8002d14:	6922      	ldr	r2, [r4, #16]
 8002d16:	6873      	ldr	r3, [r6, #4]
 8002d18:	2a40      	cmp	r2, #64	; 0x40
 8002d1a:	f423 337c 	bic.w	r3, r3, #258048	; 0x3f000
 8002d1e:	bf0c      	ite	eq
 8002d20:	f443 3300 	orreq.w	r3, r3, #131072	; 0x20000
 8002d24:	ea43 3302 	orrne.w	r3, r3, r2, lsl #12
 8002d28:	6073      	str	r3, [r6, #4]
 8002d2a:	6823      	ldr	r3, [r4, #0]
 8002d2c:	e73c      	b.n	8002ba8 <HAL_RCC_OscConfig+0x74>
 8002d2e:	2b18      	cmp	r3, #24
 8002d30:	f000 80ee 	beq.w	8002f10 <HAL_RCC_OscConfig+0x3dc>
 8002d34:	68e2      	ldr	r2, [r4, #12]
 8002d36:	2a00      	cmp	r2, #0
 8002d38:	f000 80d6 	beq.w	8002ee8 <HAL_RCC_OscConfig+0x3b4>
 8002d3c:	4929      	ldr	r1, [pc, #164]	; (8002de4 <HAL_RCC_OscConfig+0x2b0>)
 8002d3e:	680b      	ldr	r3, [r1, #0]
 8002d40:	460e      	mov	r6, r1
 8002d42:	f023 0319 	bic.w	r3, r3, #25
 8002d46:	4313      	orrs	r3, r2
 8002d48:	600b      	str	r3, [r1, #0]
 8002d4a:	f7fe fc3d 	bl	80015c8 <HAL_GetTick>
 8002d4e:	4605      	mov	r5, r0
 8002d50:	e004      	b.n	8002d5c <HAL_RCC_OscConfig+0x228>
 8002d52:	f7fe fc39 	bl	80015c8 <HAL_GetTick>
 8002d56:	1b40      	subs	r0, r0, r5
 8002d58:	2802      	cmp	r0, #2
 8002d5a:	d872      	bhi.n	8002e42 <HAL_RCC_OscConfig+0x30e>
 8002d5c:	6833      	ldr	r3, [r6, #0]
 8002d5e:	075f      	lsls	r7, r3, #29
 8002d60:	d5f7      	bpl.n	8002d52 <HAL_RCC_OscConfig+0x21e>
 8002d62:	e7d0      	b.n	8002d06 <HAL_RCC_OscConfig+0x1d2>
 8002d64:	f001 0103 	and.w	r1, r1, #3
 8002d68:	2902      	cmp	r1, #2
 8002d6a:	f47f aef6 	bne.w	8002b5a <HAL_RCC_OscConfig+0x26>
 8002d6e:	4a1d      	ldr	r2, [pc, #116]	; (8002de4 <HAL_RCC_OscConfig+0x2b0>)
 8002d70:	6812      	ldr	r2, [r2, #0]
 8002d72:	0392      	lsls	r2, r2, #14
 8002d74:	f57f af15 	bpl.w	8002ba2 <HAL_RCC_OscConfig+0x6e>
 8002d78:	6862      	ldr	r2, [r4, #4]
 8002d7a:	2a00      	cmp	r2, #0
 8002d7c:	f47f af11 	bne.w	8002ba2 <HAL_RCC_OscConfig+0x6e>
 8002d80:	2001      	movs	r0, #1
 8002d82:	bdf8      	pop	{r3, r4, r5, r6, r7, pc}
 8002d84:	f002 0203 	and.w	r2, r2, #3
 8002d88:	2a01      	cmp	r2, #1
 8002d8a:	f47f af1a 	bne.w	8002bc2 <HAL_RCC_OscConfig+0x8e>
 8002d8e:	4b15      	ldr	r3, [pc, #84]	; (8002de4 <HAL_RCC_OscConfig+0x2b0>)
 8002d90:	681b      	ldr	r3, [r3, #0]
 8002d92:	05da      	lsls	r2, r3, #23
 8002d94:	d502      	bpl.n	8002d9c <HAL_RCC_OscConfig+0x268>
 8002d96:	69e3      	ldr	r3, [r4, #28]
 8002d98:	2b80      	cmp	r3, #128	; 0x80
 8002d9a:	d1f1      	bne.n	8002d80 <HAL_RCC_OscConfig+0x24c>
 8002d9c:	f7fe fc2c 	bl	80015f8 <HAL_GetREVID>
 8002da0:	f241 0303 	movw	r3, #4099	; 0x1003
 8002da4:	4298      	cmp	r0, r3
 8002da6:	f200 80c2 	bhi.w	8002f2e <HAL_RCC_OscConfig+0x3fa>
 8002daa:	6a22      	ldr	r2, [r4, #32]
 8002dac:	2a20      	cmp	r2, #32
 8002dae:	f000 8193 	beq.w	80030d8 <HAL_RCC_OscConfig+0x5a4>
 8002db2:	490c      	ldr	r1, [pc, #48]	; (8002de4 <HAL_RCC_OscConfig+0x2b0>)
 8002db4:	684b      	ldr	r3, [r1, #4]
 8002db6:	f023 43f8 	bic.w	r3, r3, #2080374784	; 0x7c000000
 8002dba:	ea43 6382 	orr.w	r3, r3, r2, lsl #26
 8002dbe:	604b      	str	r3, [r1, #4]
 8002dc0:	6823      	ldr	r3, [r4, #0]
 8002dc2:	e728      	b.n	8002c16 <HAL_RCC_OscConfig+0xe2>
 8002dc4:	4a07      	ldr	r2, [pc, #28]	; (8002de4 <HAL_RCC_OscConfig+0x2b0>)
 8002dc6:	6813      	ldr	r3, [r2, #0]
 8002dc8:	f443 3380 	orr.w	r3, r3, #65536	; 0x10000
 8002dcc:	6013      	str	r3, [r2, #0]
 8002dce:	e6d9      	b.n	8002b84 <HAL_RCC_OscConfig+0x50>
 8002dd0:	4b05      	ldr	r3, [pc, #20]	; (8002de8 <HAL_RCC_OscConfig+0x2b4>)
 8002dd2:	681a      	ldr	r2, [r3, #0]
 8002dd4:	461e      	mov	r6, r3
 8002dd6:	f442 7280 	orr.w	r2, r2, #256	; 0x100
 8002dda:	601a      	str	r2, [r3, #0]
 8002ddc:	f7fe fbf4 	bl	80015c8 <HAL_GetTick>
 8002de0:	4605      	mov	r5, r0
 8002de2:	e008      	b.n	8002df6 <HAL_RCC_OscConfig+0x2c2>
 8002de4:	58024400 	.word	0x58024400
 8002de8:	58024800 	.word	0x58024800
 8002dec:	f7fe fbec 	bl	80015c8 <HAL_GetTick>
 8002df0:	1b40      	subs	r0, r0, r5
 8002df2:	2864      	cmp	r0, #100	; 0x64
 8002df4:	d825      	bhi.n	8002e42 <HAL_RCC_OscConfig+0x30e>
 8002df6:	6833      	ldr	r3, [r6, #0]
 8002df8:	05da      	lsls	r2, r3, #23
 8002dfa:	d5f7      	bpl.n	8002dec <HAL_RCC_OscConfig+0x2b8>
 8002dfc:	68a3      	ldr	r3, [r4, #8]
 8002dfe:	2b01      	cmp	r3, #1
 8002e00:	f000 815e 	beq.w	80030c0 <HAL_RCC_OscConfig+0x58c>
 8002e04:	2b00      	cmp	r3, #0
 8002e06:	f000 8138 	beq.w	800307a <HAL_RCC_OscConfig+0x546>
 8002e0a:	2b05      	cmp	r3, #5
 8002e0c:	4baf      	ldr	r3, [pc, #700]	; (80030cc <HAL_RCC_OscConfig+0x598>)
 8002e0e:	6f1a      	ldr	r2, [r3, #112]	; 0x70
 8002e10:	f000 816b 	beq.w	80030ea <HAL_RCC_OscConfig+0x5b6>
 8002e14:	f022 0201 	bic.w	r2, r2, #1
 8002e18:	671a      	str	r2, [r3, #112]	; 0x70
 8002e1a:	6f1a      	ldr	r2, [r3, #112]	; 0x70
 8002e1c:	f022 0204 	bic.w	r2, r2, #4
 8002e20:	671a      	str	r2, [r3, #112]	; 0x70
 8002e22:	f7fe fbd1 	bl	80015c8 <HAL_GetTick>
 8002e26:	4ea9      	ldr	r6, [pc, #676]	; (80030cc <HAL_RCC_OscConfig+0x598>)
 8002e28:	f241 3788 	movw	r7, #5000	; 0x1388
 8002e2c:	4605      	mov	r5, r0
 8002e2e:	e004      	b.n	8002e3a <HAL_RCC_OscConfig+0x306>
 8002e30:	f7fe fbca 	bl	80015c8 <HAL_GetTick>
 8002e34:	1b40      	subs	r0, r0, r5
 8002e36:	42b8      	cmp	r0, r7
 8002e38:	d803      	bhi.n	8002e42 <HAL_RCC_OscConfig+0x30e>
 8002e3a:	6f33      	ldr	r3, [r6, #112]	; 0x70
 8002e3c:	079b      	lsls	r3, r3, #30
 8002e3e:	d5f7      	bpl.n	8002e30 <HAL_RCC_OscConfig+0x2fc>
 8002e40:	e720      	b.n	8002c84 <HAL_RCC_OscConfig+0x150>
 8002e42:	2003      	movs	r0, #3
 8002e44:	bdf8      	pop	{r3, r4, r5, r6, r7, pc}
 8002e46:	4ba1      	ldr	r3, [pc, #644]	; (80030cc <HAL_RCC_OscConfig+0x598>)
 8002e48:	681a      	ldr	r2, [r3, #0]
 8002e4a:	461e      	mov	r6, r3
 8002e4c:	f422 3280 	bic.w	r2, r2, #65536	; 0x10000
 8002e50:	601a      	str	r2, [r3, #0]
 8002e52:	681a      	ldr	r2, [r3, #0]
 8002e54:	f422 2280 	bic.w	r2, r2, #262144	; 0x40000
 8002e58:	601a      	str	r2, [r3, #0]
 8002e5a:	f7fe fbb5 	bl	80015c8 <HAL_GetTick>
 8002e5e:	4605      	mov	r5, r0
 8002e60:	e004      	b.n	8002e6c <HAL_RCC_OscConfig+0x338>
 8002e62:	f7fe fbb1 	bl	80015c8 <HAL_GetTick>
 8002e66:	1b40      	subs	r0, r0, r5
 8002e68:	2864      	cmp	r0, #100	; 0x64
 8002e6a:	d8ea      	bhi.n	8002e42 <HAL_RCC_OscConfig+0x30e>
 8002e6c:	6833      	ldr	r3, [r6, #0]
 8002e6e:	039f      	lsls	r7, r3, #14
 8002e70:	d4f7      	bmi.n	8002e62 <HAL_RCC_OscConfig+0x32e>
 8002e72:	e695      	b.n	8002ba0 <HAL_RCC_OscConfig+0x6c>
 8002e74:	4b95      	ldr	r3, [pc, #596]	; (80030cc <HAL_RCC_OscConfig+0x598>)
 8002e76:	6f5a      	ldr	r2, [r3, #116]	; 0x74
 8002e78:	461e      	mov	r6, r3
 8002e7a:	f022 0201 	bic.w	r2, r2, #1
 8002e7e:	675a      	str	r2, [r3, #116]	; 0x74
 8002e80:	f7fe fba2 	bl	80015c8 <HAL_GetTick>
 8002e84:	4605      	mov	r5, r0
 8002e86:	e004      	b.n	8002e92 <HAL_RCC_OscConfig+0x35e>
 8002e88:	f7fe fb9e 	bl	80015c8 <HAL_GetTick>
 8002e8c:	1b40      	subs	r0, r0, r5
 8002e8e:	2802      	cmp	r0, #2
 8002e90:	d8d7      	bhi.n	8002e42 <HAL_RCC_OscConfig+0x30e>
 8002e92:	6f73      	ldr	r3, [r6, #116]	; 0x74
 8002e94:	0799      	lsls	r1, r3, #30
 8002e96:	d4f7      	bmi.n	8002e88 <HAL_RCC_OscConfig+0x354>
 8002e98:	e6d6      	b.n	8002c48 <HAL_RCC_OscConfig+0x114>
 8002e9a:	4b8c      	ldr	r3, [pc, #560]	; (80030cc <HAL_RCC_OscConfig+0x598>)
 8002e9c:	681a      	ldr	r2, [r3, #0]
 8002e9e:	461e      	mov	r6, r3
 8002ea0:	f422 5280 	bic.w	r2, r2, #4096	; 0x1000
 8002ea4:	601a      	str	r2, [r3, #0]
 8002ea6:	f7fe fb8f 	bl	80015c8 <HAL_GetTick>
 8002eaa:	4605      	mov	r5, r0
 8002eac:	e004      	b.n	8002eb8 <HAL_RCC_OscConfig+0x384>
 8002eae:	f7fe fb8b 	bl	80015c8 <HAL_GetTick>
 8002eb2:	1b40      	subs	r0, r0, r5
 8002eb4:	2802      	cmp	r0, #2
 8002eb6:	d8c4      	bhi.n	8002e42 <HAL_RCC_OscConfig+0x30e>
 8002eb8:	6833      	ldr	r3, [r6, #0]
 8002eba:	0498      	lsls	r0, r3, #18
 8002ebc:	d4f7      	bmi.n	8002eae <HAL_RCC_OscConfig+0x37a>
 8002ebe:	e6dd      	b.n	8002c7c <HAL_RCC_OscConfig+0x148>
 8002ec0:	4b82      	ldr	r3, [pc, #520]	; (80030cc <HAL_RCC_OscConfig+0x598>)
 8002ec2:	681a      	ldr	r2, [r3, #0]
 8002ec4:	461e      	mov	r6, r3
 8002ec6:	f022 0280 	bic.w	r2, r2, #128	; 0x80
 8002eca:	601a      	str	r2, [r3, #0]
 8002ecc:	f7fe fb7c 	bl	80015c8 <HAL_GetTick>
 8002ed0:	4605      	mov	r5, r0
 8002ed2:	e004      	b.n	8002ede <HAL_RCC_OscConfig+0x3aa>
 8002ed4:	f7fe fb78 	bl	80015c8 <HAL_GetTick>
 8002ed8:	1b40      	subs	r0, r0, r5
 8002eda:	2802      	cmp	r0, #2
 8002edc:	d8b1      	bhi.n	8002e42 <HAL_RCC_OscConfig+0x30e>
 8002ede:	6833      	ldr	r3, [r6, #0]
 8002ee0:	05df      	lsls	r7, r3, #23
 8002ee2:	d4f7      	bmi.n	8002ed4 <HAL_RCC_OscConfig+0x3a0>
 8002ee4:	6823      	ldr	r3, [r4, #0]
 8002ee6:	e696      	b.n	8002c16 <HAL_RCC_OscConfig+0xe2>
 8002ee8:	4b78      	ldr	r3, [pc, #480]	; (80030cc <HAL_RCC_OscConfig+0x598>)
 8002eea:	681a      	ldr	r2, [r3, #0]
 8002eec:	461e      	mov	r6, r3
 8002eee:	f022 0201 	bic.w	r2, r2, #1
 8002ef2:	601a      	str	r2, [r3, #0]
 8002ef4:	f7fe fb68 	bl	80015c8 <HAL_GetTick>
 8002ef8:	4605      	mov	r5, r0
 8002efa:	e004      	b.n	8002f06 <HAL_RCC_OscConfig+0x3d2>
 8002efc:	f7fe fb64 	bl	80015c8 <HAL_GetTick>
 8002f00:	1b40      	subs	r0, r0, r5
 8002f02:	2802      	cmp	r0, #2
 8002f04:	d89d      	bhi.n	8002e42 <HAL_RCC_OscConfig+0x30e>
 8002f06:	6833      	ldr	r3, [r6, #0]
 8002f08:	0758      	lsls	r0, r3, #29
 8002f0a:	d4f7      	bmi.n	8002efc <HAL_RCC_OscConfig+0x3c8>
 8002f0c:	6823      	ldr	r3, [r4, #0]
 8002f0e:	e64b      	b.n	8002ba8 <HAL_RCC_OscConfig+0x74>
 8002f10:	0791      	lsls	r1, r2, #30
 8002f12:	f47f af0f 	bne.w	8002d34 <HAL_RCC_OscConfig+0x200>
 8002f16:	e6db      	b.n	8002cd0 <HAL_RCC_OscConfig+0x19c>
 8002f18:	6873      	ldr	r3, [r6, #4]
 8002f1a:	6922      	ldr	r2, [r4, #16]
 8002f1c:	f023 43fe 	bic.w	r3, r3, #2130706432	; 0x7f000000
 8002f20:	ea43 6302 	orr.w	r3, r3, r2, lsl #24
 8002f24:	6073      	str	r3, [r6, #4]
 8002f26:	6823      	ldr	r3, [r4, #0]
 8002f28:	e63e      	b.n	8002ba8 <HAL_RCC_OscConfig+0x74>
 8002f2a:	2001      	movs	r0, #1
 8002f2c:	4770      	bx	lr
 8002f2e:	4a67      	ldr	r2, [pc, #412]	; (80030cc <HAL_RCC_OscConfig+0x598>)
 8002f30:	6a21      	ldr	r1, [r4, #32]
 8002f32:	68d3      	ldr	r3, [r2, #12]
 8002f34:	f023 537c 	bic.w	r3, r3, #1056964608	; 0x3f000000
 8002f38:	ea43 6301 	orr.w	r3, r3, r1, lsl #24
 8002f3c:	60d3      	str	r3, [r2, #12]
 8002f3e:	6823      	ldr	r3, [r4, #0]
 8002f40:	e669      	b.n	8002c16 <HAL_RCC_OscConfig+0xe2>
 8002f42:	f7fe fb41 	bl	80015c8 <HAL_GetTick>
 8002f46:	4606      	mov	r6, r0
 8002f48:	e005      	b.n	8002f56 <HAL_RCC_OscConfig+0x422>
 8002f4a:	f7fe fb3d 	bl	80015c8 <HAL_GetTick>
 8002f4e:	1b80      	subs	r0, r0, r6
 8002f50:	2802      	cmp	r0, #2
 8002f52:	f63f af76 	bhi.w	8002e42 <HAL_RCC_OscConfig+0x30e>
 8002f56:	682b      	ldr	r3, [r5, #0]
 8002f58:	0199      	lsls	r1, r3, #6
 8002f5a:	d4f6      	bmi.n	8002f4a <HAL_RCC_OscConfig+0x416>
 8002f5c:	6aaa      	ldr	r2, [r5, #40]	; 0x28
 8002f5e:	4b5c      	ldr	r3, [pc, #368]	; (80030d0 <HAL_RCC_OscConfig+0x59c>)
 8002f60:	6aa0      	ldr	r0, [r4, #40]	; 0x28
 8002f62:	4013      	ands	r3, r2
 8002f64:	6ae2      	ldr	r2, [r4, #44]	; 0x2c
 8002f66:	495b      	ldr	r1, [pc, #364]	; (80030d4 <HAL_RCC_OscConfig+0x5a0>)
 8002f68:	4303      	orrs	r3, r0
 8002f6a:	4e58      	ldr	r6, [pc, #352]	; (80030cc <HAL_RCC_OscConfig+0x598>)
 8002f6c:	ea43 1302 	orr.w	r3, r3, r2, lsl #4
 8002f70:	62ab      	str	r3, [r5, #40]	; 0x28
 8002f72:	6b27      	ldr	r7, [r4, #48]	; 0x30
 8002f74:	e9d4 320d 	ldrd	r3, r2, [r4, #52]	; 0x34
 8002f78:	3f01      	subs	r7, #1
 8002f7a:	1e50      	subs	r0, r2, #1
 8002f7c:	3b01      	subs	r3, #1
 8002f7e:	6be2      	ldr	r2, [r4, #60]	; 0x3c
 8002f80:	f3c7 0708 	ubfx	r7, r7, #0, #9
 8002f84:	025b      	lsls	r3, r3, #9
 8002f86:	0400      	lsls	r0, r0, #16
 8002f88:	3a01      	subs	r2, #1
 8002f8a:	b29b      	uxth	r3, r3
 8002f8c:	f400 00fe 	and.w	r0, r0, #8323072	; 0x7f0000
 8002f90:	0612      	lsls	r2, r2, #24
 8002f92:	4303      	orrs	r3, r0
 8002f94:	f002 42fe 	and.w	r2, r2, #2130706432	; 0x7f000000
 8002f98:	433b      	orrs	r3, r7
 8002f9a:	4313      	orrs	r3, r2
 8002f9c:	632b      	str	r3, [r5, #48]	; 0x30
 8002f9e:	6aeb      	ldr	r3, [r5, #44]	; 0x2c
 8002fa0:	f023 0301 	bic.w	r3, r3, #1
 8002fa4:	62eb      	str	r3, [r5, #44]	; 0x2c
 8002fa6:	6b6a      	ldr	r2, [r5, #52]	; 0x34
 8002fa8:	6ca3      	ldr	r3, [r4, #72]	; 0x48
 8002faa:	4011      	ands	r1, r2
 8002fac:	ea41 01c3 	orr.w	r1, r1, r3, lsl #3
 8002fb0:	6369      	str	r1, [r5, #52]	; 0x34
 8002fb2:	6aeb      	ldr	r3, [r5, #44]	; 0x2c
 8002fb4:	6c22      	ldr	r2, [r4, #64]	; 0x40
 8002fb6:	f023 030c 	bic.w	r3, r3, #12
 8002fba:	4313      	orrs	r3, r2
 8002fbc:	62eb      	str	r3, [r5, #44]	; 0x2c
 8002fbe:	6aeb      	ldr	r3, [r5, #44]	; 0x2c
 8002fc0:	6c62      	ldr	r2, [r4, #68]	; 0x44
 8002fc2:	f023 0302 	bic.w	r3, r3, #2
 8002fc6:	4313      	orrs	r3, r2
 8002fc8:	62eb      	str	r3, [r5, #44]	; 0x2c
 8002fca:	6aeb      	ldr	r3, [r5, #44]	; 0x2c
 8002fcc:	f443 3380 	orr.w	r3, r3, #65536	; 0x10000
 8002fd0:	62eb      	str	r3, [r5, #44]	; 0x2c
 8002fd2:	6aeb      	ldr	r3, [r5, #44]	; 0x2c
 8002fd4:	f443 3300 	orr.w	r3, r3, #131072	; 0x20000
 8002fd8:	62eb      	str	r3, [r5, #44]	; 0x2c
 8002fda:	6aeb      	ldr	r3, [r5, #44]	; 0x2c
 8002fdc:	f443 2380 	orr.w	r3, r3, #262144	; 0x40000
 8002fe0:	62eb      	str	r3, [r5, #44]	; 0x2c
 8002fe2:	6aeb      	ldr	r3, [r5, #44]	; 0x2c
 8002fe4:	f043 0301 	orr.w	r3, r3, #1
 8002fe8:	62eb      	str	r3, [r5, #44]	; 0x2c
 8002fea:	682b      	ldr	r3, [r5, #0]
 8002fec:	f043 7380 	orr.w	r3, r3, #16777216	; 0x1000000
 8002ff0:	602b      	str	r3, [r5, #0]
 8002ff2:	f7fe fae9 	bl	80015c8 <HAL_GetTick>
 8002ff6:	4604      	mov	r4, r0
 8002ff8:	e005      	b.n	8003006 <HAL_RCC_OscConfig+0x4d2>
 8002ffa:	f7fe fae5 	bl	80015c8 <HAL_GetTick>
 8002ffe:	1b00      	subs	r0, r0, r4
 8003000:	2802      	cmp	r0, #2
 8003002:	f63f af1e 	bhi.w	8002e42 <HAL_RCC_OscConfig+0x30e>
 8003006:	6833      	ldr	r3, [r6, #0]
 8003008:	019a      	lsls	r2, r3, #6
 800300a:	d5f6      	bpl.n	8002ffa <HAL_RCC_OscConfig+0x4c6>
 800300c:	e658      	b.n	8002cc0 <HAL_RCC_OscConfig+0x18c>
 800300e:	2801      	cmp	r0, #1
 8003010:	6a9a      	ldr	r2, [r3, #40]	; 0x28
 8003012:	6b1d      	ldr	r5, [r3, #48]	; 0x30
 8003014:	f43f ae55 	beq.w	8002cc2 <HAL_RCC_OscConfig+0x18e>
 8003018:	f002 0303 	and.w	r3, r2, #3
 800301c:	6aa1      	ldr	r1, [r4, #40]	; 0x28
 800301e:	428b      	cmp	r3, r1
 8003020:	f47f aeae 	bne.w	8002d80 <HAL_RCC_OscConfig+0x24c>
 8003024:	f3c2 1205 	ubfx	r2, r2, #4, #6
 8003028:	6ae3      	ldr	r3, [r4, #44]	; 0x2c
 800302a:	429a      	cmp	r2, r3
 800302c:	f47f aea8 	bne.w	8002d80 <HAL_RCC_OscConfig+0x24c>
 8003030:	6b23      	ldr	r3, [r4, #48]	; 0x30
 8003032:	f3c5 0208 	ubfx	r2, r5, #0, #9
 8003036:	3b01      	subs	r3, #1
 8003038:	429a      	cmp	r2, r3
 800303a:	f47f aea1 	bne.w	8002d80 <HAL_RCC_OscConfig+0x24c>
 800303e:	6b63      	ldr	r3, [r4, #52]	; 0x34
 8003040:	f3c5 2246 	ubfx	r2, r5, #9, #7
 8003044:	3b01      	subs	r3, #1
 8003046:	429a      	cmp	r2, r3
 8003048:	f47f ae9a 	bne.w	8002d80 <HAL_RCC_OscConfig+0x24c>
 800304c:	6ba3      	ldr	r3, [r4, #56]	; 0x38
 800304e:	f3c5 4206 	ubfx	r2, r5, #16, #7
 8003052:	3b01      	subs	r3, #1
 8003054:	429a      	cmp	r2, r3
 8003056:	f47f ae93 	bne.w	8002d80 <HAL_RCC_OscConfig+0x24c>
 800305a:	6be0      	ldr	r0, [r4, #60]	; 0x3c
 800305c:	f3c5 6506 	ubfx	r5, r5, #24, #7
 8003060:	3801      	subs	r0, #1
 8003062:	1a28      	subs	r0, r5, r0
 8003064:	bf18      	it	ne
 8003066:	2001      	movne	r0, #1
 8003068:	bdf8      	pop	{r3, r4, r5, r6, r7, pc}
 800306a:	f442 2280 	orr.w	r2, r2, #262144	; 0x40000
 800306e:	601a      	str	r2, [r3, #0]
 8003070:	681a      	ldr	r2, [r3, #0]
 8003072:	f442 3280 	orr.w	r2, r2, #65536	; 0x10000
 8003076:	601a      	str	r2, [r3, #0]
 8003078:	e584      	b.n	8002b84 <HAL_RCC_OscConfig+0x50>
 800307a:	4b14      	ldr	r3, [pc, #80]	; (80030cc <HAL_RCC_OscConfig+0x598>)
 800307c:	f241 3788 	movw	r7, #5000	; 0x1388
 8003080:	6f1a      	ldr	r2, [r3, #112]	; 0x70
 8003082:	461e      	mov	r6, r3
 8003084:	f022 0201 	bic.w	r2, r2, #1
 8003088:	671a      	str	r2, [r3, #112]	; 0x70
 800308a:	6f1a      	ldr	r2, [r3, #112]	; 0x70
 800308c:	f022 0204 	bic.w	r2, r2, #4
 8003090:	671a      	str	r2, [r3, #112]	; 0x70
 8003092:	f7fe fa99 	bl	80015c8 <HAL_GetTick>
 8003096:	4605      	mov	r5, r0
 8003098:	e005      	b.n	80030a6 <HAL_RCC_OscConfig+0x572>
 800309a:	f7fe fa95 	bl	80015c8 <HAL_GetTick>
 800309e:	1b40      	subs	r0, r0, r5
 80030a0:	42b8      	cmp	r0, r7
 80030a2:	f63f aece 	bhi.w	8002e42 <HAL_RCC_OscConfig+0x30e>
 80030a6:	6f33      	ldr	r3, [r6, #112]	; 0x70
 80030a8:	0798      	lsls	r0, r3, #30
 80030aa:	d4f6      	bmi.n	800309a <HAL_RCC_OscConfig+0x566>
 80030ac:	e5ea      	b.n	8002c84 <HAL_RCC_OscConfig+0x150>
 80030ae:	68f3      	ldr	r3, [r6, #12]
 80030b0:	6a22      	ldr	r2, [r4, #32]
 80030b2:	f023 537c 	bic.w	r3, r3, #1056964608	; 0x3f000000
 80030b6:	ea43 6302 	orr.w	r3, r3, r2, lsl #24
 80030ba:	60f3      	str	r3, [r6, #12]
 80030bc:	6823      	ldr	r3, [r4, #0]
 80030be:	e5aa      	b.n	8002c16 <HAL_RCC_OscConfig+0xe2>
 80030c0:	4a02      	ldr	r2, [pc, #8]	; (80030cc <HAL_RCC_OscConfig+0x598>)
 80030c2:	6f13      	ldr	r3, [r2, #112]	; 0x70
 80030c4:	f043 0301 	orr.w	r3, r3, #1
 80030c8:	6713      	str	r3, [r2, #112]	; 0x70
 80030ca:	e6aa      	b.n	8002e22 <HAL_RCC_OscConfig+0x2ee>
 80030cc:	58024400 	.word	0x58024400
 80030d0:	fffffc0c 	.word	0xfffffc0c
 80030d4:	ffff0007 	.word	0xffff0007
 80030d8:	4a08      	ldr	r2, [pc, #32]	; (80030fc <HAL_RCC_OscConfig+0x5c8>)
 80030da:	6853      	ldr	r3, [r2, #4]
 80030dc:	f023 43f8 	bic.w	r3, r3, #2080374784	; 0x7c000000
 80030e0:	f043 4380 	orr.w	r3, r3, #1073741824	; 0x40000000
 80030e4:	6053      	str	r3, [r2, #4]
 80030e6:	6823      	ldr	r3, [r4, #0]
 80030e8:	e595      	b.n	8002c16 <HAL_RCC_OscConfig+0xe2>
 80030ea:	f042 0204 	orr.w	r2, r2, #4
 80030ee:	671a      	str	r2, [r3, #112]	; 0x70
 80030f0:	6f1a      	ldr	r2, [r3, #112]	; 0x70
 80030f2:	f042 0201 	orr.w	r2, r2, #1
 80030f6:	671a      	str	r2, [r3, #112]	; 0x70
 80030f8:	e693      	b.n	8002e22 <HAL_RCC_OscConfig+0x2ee>
 80030fa:	bf00      	nop
 80030fc:	58024400 	.word	0x58024400

08003100 <HAL_RCC_GetSysClockFreq>:
 8003100:	4a47      	ldr	r2, [pc, #284]	; (8003220 <HAL_RCC_GetSysClockFreq+0x120>)
 8003102:	6913      	ldr	r3, [r2, #16]
 8003104:	f003 0338 	and.w	r3, r3, #56	; 0x38
 8003108:	2b10      	cmp	r3, #16
 800310a:	d004      	beq.n	8003116 <HAL_RCC_GetSysClockFreq+0x16>
 800310c:	2b18      	cmp	r3, #24
 800310e:	d00d      	beq.n	800312c <HAL_RCC_GetSysClockFreq+0x2c>
 8003110:	b11b      	cbz	r3, 800311a <HAL_RCC_GetSysClockFreq+0x1a>
 8003112:	4844      	ldr	r0, [pc, #272]	; (8003224 <HAL_RCC_GetSysClockFreq+0x124>)
 8003114:	4770      	bx	lr
 8003116:	4844      	ldr	r0, [pc, #272]	; (8003228 <HAL_RCC_GetSysClockFreq+0x128>)
 8003118:	4770      	bx	lr
 800311a:	6813      	ldr	r3, [r2, #0]
 800311c:	0699      	lsls	r1, r3, #26
 800311e:	d54a      	bpl.n	80031b6 <HAL_RCC_GetSysClockFreq+0xb6>
 8003120:	6813      	ldr	r3, [r2, #0]
 8003122:	4842      	ldr	r0, [pc, #264]	; (800322c <HAL_RCC_GetSysClockFreq+0x12c>)
 8003124:	f3c3 03c1 	ubfx	r3, r3, #3, #2
 8003128:	40d8      	lsrs	r0, r3
 800312a:	4770      	bx	lr
 800312c:	6a93      	ldr	r3, [r2, #40]	; 0x28
 800312e:	b430      	push	{r4, r5}
 8003130:	6a94      	ldr	r4, [r2, #40]	; 0x28
 8003132:	6ad1      	ldr	r1, [r2, #44]	; 0x2c
 8003134:	f414 7f7c 	tst.w	r4, #1008	; 0x3f0
 8003138:	f3c4 1005 	ubfx	r0, r4, #4, #6
 800313c:	6b55      	ldr	r5, [r2, #52]	; 0x34
 800313e:	d038      	beq.n	80031b2 <HAL_RCC_GetSysClockFreq+0xb2>
 8003140:	f3c5 05cc 	ubfx	r5, r5, #3, #13
 8003144:	f001 0101 	and.w	r1, r1, #1
 8003148:	f003 0303 	and.w	r3, r3, #3
 800314c:	fb01 f105 	mul.w	r1, r1, r5
 8003150:	2b01      	cmp	r3, #1
 8003152:	ee07 1a90 	vmov	s15, r1
 8003156:	eeb8 7ae7 	vcvt.f32.s32	s14, s15
 800315a:	d002      	beq.n	8003162 <HAL_RCC_GetSysClockFreq+0x62>
 800315c:	2b02      	cmp	r3, #2
 800315e:	d02c      	beq.n	80031ba <HAL_RCC_GetSysClockFreq+0xba>
 8003160:	b393      	cbz	r3, 80031c8 <HAL_RCC_GetSysClockFreq+0xc8>
 8003162:	ee07 0a90 	vmov	s15, r0
 8003166:	eddf 6a32 	vldr	s13, [pc, #200]	; 8003230 <HAL_RCC_GetSysClockFreq+0x130>
 800316a:	eef8 7ae7 	vcvt.f32.s32	s15, s15
 800316e:	6b13      	ldr	r3, [r2, #48]	; 0x30
 8003170:	ee86 6aa7 	vdiv.f32	s12, s13, s15
 8003174:	eddf 5a2f 	vldr	s11, [pc, #188]	; 8003234 <HAL_RCC_GetSysClockFreq+0x134>
 8003178:	f3c3 0308 	ubfx	r3, r3, #0, #9
 800317c:	ee06 3a90 	vmov	s13, r3
 8003180:	eeb7 5a00 	vmov.f32	s10, #112	; 0x3f800000  1.0
 8003184:	eef8 6ae6 	vcvt.f32.s32	s13, s13
 8003188:	ee76 6a85 	vadd.f32	s13, s13, s10
 800318c:	eee7 6a25 	vfma.f32	s13, s14, s11
 8003190:	ee66 6a26 	vmul.f32	s13, s12, s13
 8003194:	4b22      	ldr	r3, [pc, #136]	; (8003220 <HAL_RCC_GetSysClockFreq+0x120>)
 8003196:	6b1b      	ldr	r3, [r3, #48]	; 0x30
 8003198:	f3c3 2346 	ubfx	r3, r3, #9, #7
 800319c:	3301      	adds	r3, #1
 800319e:	ee07 3a90 	vmov	s15, r3
 80031a2:	eeb8 7ae7 	vcvt.f32.s32	s14, s15
 80031a6:	eec6 7a87 	vdiv.f32	s15, s13, s14
 80031aa:	eefc 7ae7 	vcvt.u32.f32	s15, s15
 80031ae:	ee17 0a90 	vmov	r0, s15
 80031b2:	bc30      	pop	{r4, r5}
 80031b4:	4770      	bx	lr
 80031b6:	481d      	ldr	r0, [pc, #116]	; (800322c <HAL_RCC_GetSysClockFreq+0x12c>)
 80031b8:	4770      	bx	lr
 80031ba:	ee07 0a90 	vmov	s15, r0
 80031be:	eddf 6a1e 	vldr	s13, [pc, #120]	; 8003238 <HAL_RCC_GetSysClockFreq+0x138>
 80031c2:	eef8 7ae7 	vcvt.f32.s32	s15, s15
 80031c6:	e7d2      	b.n	800316e <HAL_RCC_GetSysClockFreq+0x6e>
 80031c8:	6813      	ldr	r3, [r2, #0]
 80031ca:	069b      	lsls	r3, r3, #26
 80031cc:	d520      	bpl.n	8003210 <HAL_RCC_GetSysClockFreq+0x110>
 80031ce:	6813      	ldr	r3, [r2, #0]
 80031d0:	ee07 0a90 	vmov	s15, r0
 80031d4:	4915      	ldr	r1, [pc, #84]	; (800322c <HAL_RCC_GetSysClockFreq+0x12c>)
 80031d6:	eef7 4a00 	vmov.f32	s9, #112	; 0x3f800000  1.0
 80031da:	f3c3 00c1 	ubfx	r0, r3, #3, #2
 80031de:	eef8 7ae7 	vcvt.f32.s32	s15, s15
 80031e2:	6b13      	ldr	r3, [r2, #48]	; 0x30
 80031e4:	40c1      	lsrs	r1, r0
 80031e6:	ed9f 5a13 	vldr	s10, [pc, #76]	; 8003234 <HAL_RCC_GetSysClockFreq+0x134>
 80031ea:	f3c3 0308 	ubfx	r3, r3, #0, #9
 80031ee:	ee06 1a10 	vmov	s12, r1
 80031f2:	ee06 3a90 	vmov	s13, r3
 80031f6:	eef8 5ac6 	vcvt.f32.s32	s11, s12
 80031fa:	eef8 6ae6 	vcvt.f32.s32	s13, s13
 80031fe:	ee85 6aa7 	vdiv.f32	s12, s11, s15
 8003202:	ee76 6aa4 	vadd.f32	s13, s13, s9
 8003206:	eee7 6a05 	vfma.f32	s13, s14, s10
 800320a:	ee66 6a26 	vmul.f32	s13, s12, s13
 800320e:	e7c1      	b.n	8003194 <HAL_RCC_GetSysClockFreq+0x94>
 8003210:	ee07 0a90 	vmov	s15, r0
 8003214:	eddf 6a09 	vldr	s13, [pc, #36]	; 800323c <HAL_RCC_GetSysClockFreq+0x13c>
 8003218:	eef8 7ae7 	vcvt.f32.s32	s15, s15
 800321c:	e7a7      	b.n	800316e <HAL_RCC_GetSysClockFreq+0x6e>
 800321e:	bf00      	nop
 8003220:	58024400 	.word	0x58024400
 8003224:	003d0900 	.word	0x003d0900
 8003228:	017d7840 	.word	0x017d7840
 800322c:	03d09000 	.word	0x03d09000
 8003230:	4a742400 	.word	0x4a742400
 8003234:	39000000 	.word	0x39000000
 8003238:	4bbebc20 	.word	0x4bbebc20
 800323c:	4c742400 	.word	0x4c742400

08003240 <HAL_RCC_ClockConfig>:
 8003240:	2800      	cmp	r0, #0
 8003242:	f000 810e 	beq.w	8003462 <HAL_RCC_ClockConfig+0x222>
 8003246:	4a8d      	ldr	r2, [pc, #564]	; (800347c <HAL_RCC_ClockConfig+0x23c>)
 8003248:	6813      	ldr	r3, [r2, #0]
 800324a:	f003 030f 	and.w	r3, r3, #15
 800324e:	428b      	cmp	r3, r1
 8003250:	e92d 41f0 	stmdb	sp!, {r4, r5, r6, r7, r8, lr}
 8003254:	4604      	mov	r4, r0
 8003256:	460d      	mov	r5, r1
 8003258:	d20c      	bcs.n	8003274 <HAL_RCC_ClockConfig+0x34>
 800325a:	6813      	ldr	r3, [r2, #0]
 800325c:	f023 030f 	bic.w	r3, r3, #15
 8003260:	430b      	orrs	r3, r1
 8003262:	6013      	str	r3, [r2, #0]
 8003264:	6813      	ldr	r3, [r2, #0]
 8003266:	f003 030f 	and.w	r3, r3, #15
 800326a:	428b      	cmp	r3, r1
 800326c:	d002      	beq.n	8003274 <HAL_RCC_ClockConfig+0x34>
 800326e:	2001      	movs	r0, #1
 8003270:	e8bd 81f0 	ldmia.w	sp!, {r4, r5, r6, r7, r8, pc}
 8003274:	6823      	ldr	r3, [r4, #0]
 8003276:	075f      	lsls	r7, r3, #29
 8003278:	d50b      	bpl.n	8003292 <HAL_RCC_ClockConfig+0x52>
 800327a:	4981      	ldr	r1, [pc, #516]	; (8003480 <HAL_RCC_ClockConfig+0x240>)
 800327c:	6920      	ldr	r0, [r4, #16]
 800327e:	698a      	ldr	r2, [r1, #24]
 8003280:	f002 0270 	and.w	r2, r2, #112	; 0x70
 8003284:	4290      	cmp	r0, r2
 8003286:	d904      	bls.n	8003292 <HAL_RCC_ClockConfig+0x52>
 8003288:	698a      	ldr	r2, [r1, #24]
 800328a:	f022 0270 	bic.w	r2, r2, #112	; 0x70
 800328e:	4302      	orrs	r2, r0
 8003290:	618a      	str	r2, [r1, #24]
 8003292:	071e      	lsls	r6, r3, #28
 8003294:	d50b      	bpl.n	80032ae <HAL_RCC_ClockConfig+0x6e>
 8003296:	497a      	ldr	r1, [pc, #488]	; (8003480 <HAL_RCC_ClockConfig+0x240>)
 8003298:	6960      	ldr	r0, [r4, #20]
 800329a:	69ca      	ldr	r2, [r1, #28]
 800329c:	f002 0270 	and.w	r2, r2, #112	; 0x70
 80032a0:	4290      	cmp	r0, r2
 80032a2:	d904      	bls.n	80032ae <HAL_RCC_ClockConfig+0x6e>
 80032a4:	69ca      	ldr	r2, [r1, #28]
 80032a6:	f022 0270 	bic.w	r2, r2, #112	; 0x70
 80032aa:	4302      	orrs	r2, r0
 80032ac:	61ca      	str	r2, [r1, #28]
 80032ae:	06d8      	lsls	r0, r3, #27
 80032b0:	d50b      	bpl.n	80032ca <HAL_RCC_ClockConfig+0x8a>
 80032b2:	4973      	ldr	r1, [pc, #460]	; (8003480 <HAL_RCC_ClockConfig+0x240>)
 80032b4:	69a0      	ldr	r0, [r4, #24]
 80032b6:	69ca      	ldr	r2, [r1, #28]
 80032b8:	f402 62e0 	and.w	r2, r2, #1792	; 0x700
 80032bc:	4290      	cmp	r0, r2
 80032be:	d904      	bls.n	80032ca <HAL_RCC_ClockConfig+0x8a>
 80032c0:	69ca      	ldr	r2, [r1, #28]
 80032c2:	f422 62e0 	bic.w	r2, r2, #1792	; 0x700
 80032c6:	4302      	orrs	r2, r0
 80032c8:	61ca      	str	r2, [r1, #28]
 80032ca:	0699      	lsls	r1, r3, #26
 80032cc:	d50b      	bpl.n	80032e6 <HAL_RCC_ClockConfig+0xa6>
 80032ce:	496c      	ldr	r1, [pc, #432]	; (8003480 <HAL_RCC_ClockConfig+0x240>)
 80032d0:	69e0      	ldr	r0, [r4, #28]
 80032d2:	6a0a      	ldr	r2, [r1, #32]
 80032d4:	f002 0270 	and.w	r2, r2, #112	; 0x70
 80032d8:	4290      	cmp	r0, r2
 80032da:	d904      	bls.n	80032e6 <HAL_RCC_ClockConfig+0xa6>
 80032dc:	6a0a      	ldr	r2, [r1, #32]
 80032de:	f022 0270 	bic.w	r2, r2, #112	; 0x70
 80032e2:	4302      	orrs	r2, r0
 80032e4:	620a      	str	r2, [r1, #32]
 80032e6:	079a      	lsls	r2, r3, #30
 80032e8:	f140 80ad 	bpl.w	8003446 <HAL_RCC_ClockConfig+0x206>
 80032ec:	4864      	ldr	r0, [pc, #400]	; (8003480 <HAL_RCC_ClockConfig+0x240>)
 80032ee:	68e1      	ldr	r1, [r4, #12]
 80032f0:	6982      	ldr	r2, [r0, #24]
 80032f2:	f002 020f 	and.w	r2, r2, #15
 80032f6:	4291      	cmp	r1, r2
 80032f8:	d904      	bls.n	8003304 <HAL_RCC_ClockConfig+0xc4>
 80032fa:	6982      	ldr	r2, [r0, #24]
 80032fc:	f022 020f 	bic.w	r2, r2, #15
 8003300:	430a      	orrs	r2, r1
 8003302:	6182      	str	r2, [r0, #24]
 8003304:	07d8      	lsls	r0, r3, #31
 8003306:	d531      	bpl.n	800336c <HAL_RCC_ClockConfig+0x12c>
 8003308:	4a5d      	ldr	r2, [pc, #372]	; (8003480 <HAL_RCC_ClockConfig+0x240>)
 800330a:	68a1      	ldr	r1, [r4, #8]
 800330c:	6993      	ldr	r3, [r2, #24]
 800330e:	f423 6370 	bic.w	r3, r3, #3840	; 0xf00
 8003312:	430b      	orrs	r3, r1
 8003314:	6193      	str	r3, [r2, #24]
 8003316:	6861      	ldr	r1, [r4, #4]
 8003318:	6813      	ldr	r3, [r2, #0]
 800331a:	2902      	cmp	r1, #2
 800331c:	f000 80a3 	beq.w	8003466 <HAL_RCC_ClockConfig+0x226>
 8003320:	2903      	cmp	r1, #3
 8003322:	f000 809a 	beq.w	800345a <HAL_RCC_ClockConfig+0x21a>
 8003326:	2901      	cmp	r1, #1
 8003328:	f000 80a3 	beq.w	8003472 <HAL_RCC_ClockConfig+0x232>
 800332c:	0758      	lsls	r0, r3, #29
 800332e:	d59e      	bpl.n	800326e <HAL_RCC_ClockConfig+0x2e>
 8003330:	4a53      	ldr	r2, [pc, #332]	; (8003480 <HAL_RCC_ClockConfig+0x240>)
 8003332:	f241 3888 	movw	r8, #5000	; 0x1388
 8003336:	6913      	ldr	r3, [r2, #16]
 8003338:	4617      	mov	r7, r2
 800333a:	f023 0307 	bic.w	r3, r3, #7
 800333e:	430b      	orrs	r3, r1
 8003340:	6113      	str	r3, [r2, #16]
 8003342:	f7fe f941 	bl	80015c8 <HAL_GetTick>
 8003346:	4606      	mov	r6, r0
 8003348:	e005      	b.n	8003356 <HAL_RCC_ClockConfig+0x116>
 800334a:	f7fe f93d 	bl	80015c8 <HAL_GetTick>
 800334e:	1b80      	subs	r0, r0, r6
 8003350:	4540      	cmp	r0, r8
 8003352:	f200 808c 	bhi.w	800346e <HAL_RCC_ClockConfig+0x22e>
 8003356:	693b      	ldr	r3, [r7, #16]
 8003358:	6862      	ldr	r2, [r4, #4]
 800335a:	f003 0338 	and.w	r3, r3, #56	; 0x38
 800335e:	ebb3 0fc2 	cmp.w	r3, r2, lsl #3
 8003362:	d1f2      	bne.n	800334a <HAL_RCC_ClockConfig+0x10a>
 8003364:	6823      	ldr	r3, [r4, #0]
 8003366:	0799      	lsls	r1, r3, #30
 8003368:	d506      	bpl.n	8003378 <HAL_RCC_ClockConfig+0x138>
 800336a:	68e1      	ldr	r1, [r4, #12]
 800336c:	4844      	ldr	r0, [pc, #272]	; (8003480 <HAL_RCC_ClockConfig+0x240>)
 800336e:	6982      	ldr	r2, [r0, #24]
 8003370:	f002 020f 	and.w	r2, r2, #15
 8003374:	428a      	cmp	r2, r1
 8003376:	d86a      	bhi.n	800344e <HAL_RCC_ClockConfig+0x20e>
 8003378:	4940      	ldr	r1, [pc, #256]	; (800347c <HAL_RCC_ClockConfig+0x23c>)
 800337a:	680a      	ldr	r2, [r1, #0]
 800337c:	f002 020f 	and.w	r2, r2, #15
 8003380:	42aa      	cmp	r2, r5
 8003382:	d90a      	bls.n	800339a <HAL_RCC_ClockConfig+0x15a>
 8003384:	680a      	ldr	r2, [r1, #0]
 8003386:	f022 020f 	bic.w	r2, r2, #15
 800338a:	432a      	orrs	r2, r5
 800338c:	600a      	str	r2, [r1, #0]
 800338e:	680a      	ldr	r2, [r1, #0]
 8003390:	f002 020f 	and.w	r2, r2, #15
 8003394:	42aa      	cmp	r2, r5
 8003396:	f47f af6a 	bne.w	800326e <HAL_RCC_ClockConfig+0x2e>
 800339a:	075a      	lsls	r2, r3, #29
 800339c:	d50b      	bpl.n	80033b6 <HAL_RCC_ClockConfig+0x176>
 800339e:	4938      	ldr	r1, [pc, #224]	; (8003480 <HAL_RCC_ClockConfig+0x240>)
 80033a0:	6920      	ldr	r0, [r4, #16]
 80033a2:	698a      	ldr	r2, [r1, #24]
 80033a4:	f002 0270 	and.w	r2, r2, #112	; 0x70
 80033a8:	4290      	cmp	r0, r2
 80033aa:	d204      	bcs.n	80033b6 <HAL_RCC_ClockConfig+0x176>
 80033ac:	698a      	ldr	r2, [r1, #24]
 80033ae:	f022 0270 	bic.w	r2, r2, #112	; 0x70
 80033b2:	4302      	orrs	r2, r0
 80033b4:	618a      	str	r2, [r1, #24]
 80033b6:	071f      	lsls	r7, r3, #28
 80033b8:	d50b      	bpl.n	80033d2 <HAL_RCC_ClockConfig+0x192>
 80033ba:	4931      	ldr	r1, [pc, #196]	; (8003480 <HAL_RCC_ClockConfig+0x240>)
 80033bc:	6960      	ldr	r0, [r4, #20]
 80033be:	69ca      	ldr	r2, [r1, #28]
 80033c0:	f002 0270 	and.w	r2, r2, #112	; 0x70
 80033c4:	4290      	cmp	r0, r2
 80033c6:	d204      	bcs.n	80033d2 <HAL_RCC_ClockConfig+0x192>
 80033c8:	69ca      	ldr	r2, [r1, #28]
 80033ca:	f022 0270 	bic.w	r2, r2, #112	; 0x70
 80033ce:	4302      	orrs	r2, r0
 80033d0:	61ca      	str	r2, [r1, #28]
 80033d2:	06de      	lsls	r6, r3, #27
 80033d4:	d50b      	bpl.n	80033ee <HAL_RCC_ClockConfig+0x1ae>
 80033d6:	492a      	ldr	r1, [pc, #168]	; (8003480 <HAL_RCC_ClockConfig+0x240>)
 80033d8:	69a0      	ldr	r0, [r4, #24]
 80033da:	69ca      	ldr	r2, [r1, #28]
 80033dc:	f402 62e0 	and.w	r2, r2, #1792	; 0x700
 80033e0:	4290      	cmp	r0, r2
 80033e2:	d204      	bcs.n	80033ee <HAL_RCC_ClockConfig+0x1ae>
 80033e4:	69ca      	ldr	r2, [r1, #28]
 80033e6:	f422 62e0 	bic.w	r2, r2, #1792	; 0x700
 80033ea:	4302      	orrs	r2, r0
 80033ec:	61ca      	str	r2, [r1, #28]
 80033ee:	069d      	lsls	r5, r3, #26
 80033f0:	d50b      	bpl.n	800340a <HAL_RCC_ClockConfig+0x1ca>
 80033f2:	4a23      	ldr	r2, [pc, #140]	; (8003480 <HAL_RCC_ClockConfig+0x240>)
 80033f4:	69e1      	ldr	r1, [r4, #28]
 80033f6:	6a13      	ldr	r3, [r2, #32]
 80033f8:	f003 0370 	and.w	r3, r3, #112	; 0x70
 80033fc:	4299      	cmp	r1, r3
 80033fe:	d204      	bcs.n	800340a <HAL_RCC_ClockConfig+0x1ca>
 8003400:	6a13      	ldr	r3, [r2, #32]
 8003402:	f023 0370 	bic.w	r3, r3, #112	; 0x70
 8003406:	430b      	orrs	r3, r1
 8003408:	6213      	str	r3, [r2, #32]
 800340a:	f7ff fe79 	bl	8003100 <HAL_RCC_GetSysClockFreq>
 800340e:	4b1c      	ldr	r3, [pc, #112]	; (8003480 <HAL_RCC_ClockConfig+0x240>)
 8003410:	4602      	mov	r2, r0
 8003412:	481c      	ldr	r0, [pc, #112]	; (8003484 <HAL_RCC_ClockConfig+0x244>)
 8003414:	6999      	ldr	r1, [r3, #24]
 8003416:	699b      	ldr	r3, [r3, #24]
 8003418:	f3c1 2103 	ubfx	r1, r1, #8, #4
 800341c:	4d1a      	ldr	r5, [pc, #104]	; (8003488 <HAL_RCC_ClockConfig+0x248>)
 800341e:	f003 030f 	and.w	r3, r3, #15
 8003422:	4c1a      	ldr	r4, [pc, #104]	; (800348c <HAL_RCC_ClockConfig+0x24c>)
 8003424:	5c41      	ldrb	r1, [r0, r1]
 8003426:	5cc3      	ldrb	r3, [r0, r3]
 8003428:	f001 011f 	and.w	r1, r1, #31
 800342c:	6828      	ldr	r0, [r5, #0]
 800342e:	f003 031f 	and.w	r3, r3, #31
 8003432:	4d17      	ldr	r5, [pc, #92]	; (8003490 <HAL_RCC_ClockConfig+0x250>)
 8003434:	40ca      	lsrs	r2, r1
 8003436:	fa22 f303 	lsr.w	r3, r2, r3
 800343a:	602a      	str	r2, [r5, #0]
 800343c:	6023      	str	r3, [r4, #0]
 800343e:	e8bd 41f0 	ldmia.w	sp!, {r4, r5, r6, r7, r8, lr}
 8003442:	f7fe b85f 	b.w	8001504 <HAL_InitTick>
 8003446:	07da      	lsls	r2, r3, #31
 8003448:	f53f af5e 	bmi.w	8003308 <HAL_RCC_ClockConfig+0xc8>
 800344c:	e794      	b.n	8003378 <HAL_RCC_ClockConfig+0x138>
 800344e:	6982      	ldr	r2, [r0, #24]
 8003450:	f022 020f 	bic.w	r2, r2, #15
 8003454:	4311      	orrs	r1, r2
 8003456:	6181      	str	r1, [r0, #24]
 8003458:	e78e      	b.n	8003378 <HAL_RCC_ClockConfig+0x138>
 800345a:	019f      	lsls	r7, r3, #6
 800345c:	f53f af68 	bmi.w	8003330 <HAL_RCC_ClockConfig+0xf0>
 8003460:	e705      	b.n	800326e <HAL_RCC_ClockConfig+0x2e>
 8003462:	2001      	movs	r0, #1
 8003464:	4770      	bx	lr
 8003466:	039b      	lsls	r3, r3, #14
 8003468:	f53f af62 	bmi.w	8003330 <HAL_RCC_ClockConfig+0xf0>
 800346c:	e6ff      	b.n	800326e <HAL_RCC_ClockConfig+0x2e>
 800346e:	2003      	movs	r0, #3
 8003470:	e6fe      	b.n	8003270 <HAL_RCC_ClockConfig+0x30>
 8003472:	05de      	lsls	r6, r3, #23
 8003474:	f53f af5c 	bmi.w	8003330 <HAL_RCC_ClockConfig+0xf0>
 8003478:	e6f9      	b.n	800326e <HAL_RCC_ClockConfig+0x2e>
 800347a:	bf00      	nop
 800347c:	52002000 	.word	0x52002000
 8003480:	58024400 	.word	0x58024400
 8003484:	08004cfc 	.word	0x08004cfc
 8003488:	240040d4 	.word	0x240040d4
 800348c:	240040cc 	.word	0x240040cc
 8003490:	240040c8 	.word	0x240040c8

08003494 <HAL_RCC_GetHCLKFreq>:
 8003494:	4a18      	ldr	r2, [pc, #96]	; (80034f8 <HAL_RCC_GetHCLKFreq+0x64>)
 8003496:	b538      	push	{r3, r4, r5, lr}
 8003498:	6913      	ldr	r3, [r2, #16]
 800349a:	f003 0338 	and.w	r3, r3, #56	; 0x38
 800349e:	2b10      	cmp	r3, #16
 80034a0:	d01a      	beq.n	80034d8 <HAL_RCC_GetHCLKFreq+0x44>
 80034a2:	2b18      	cmp	r3, #24
 80034a4:	d023      	beq.n	80034ee <HAL_RCC_GetHCLKFreq+0x5a>
 80034a6:	b1cb      	cbz	r3, 80034dc <HAL_RCC_GetHCLKFreq+0x48>
 80034a8:	4814      	ldr	r0, [pc, #80]	; (80034fc <HAL_RCC_GetHCLKFreq+0x68>)
 80034aa:	4b13      	ldr	r3, [pc, #76]	; (80034f8 <HAL_RCC_GetHCLKFreq+0x64>)
 80034ac:	4914      	ldr	r1, [pc, #80]	; (8003500 <HAL_RCC_GetHCLKFreq+0x6c>)
 80034ae:	699a      	ldr	r2, [r3, #24]
 80034b0:	699b      	ldr	r3, [r3, #24]
 80034b2:	f3c2 2203 	ubfx	r2, r2, #8, #4
 80034b6:	4c13      	ldr	r4, [pc, #76]	; (8003504 <HAL_RCC_GetHCLKFreq+0x70>)
 80034b8:	f003 030f 	and.w	r3, r3, #15
 80034bc:	4d12      	ldr	r5, [pc, #72]	; (8003508 <HAL_RCC_GetHCLKFreq+0x74>)
 80034be:	5c8a      	ldrb	r2, [r1, r2]
 80034c0:	5ccb      	ldrb	r3, [r1, r3]
 80034c2:	f002 021f 	and.w	r2, r2, #31
 80034c6:	f003 031f 	and.w	r3, r3, #31
 80034ca:	fa20 f202 	lsr.w	r2, r0, r2
 80034ce:	fa22 f003 	lsr.w	r0, r2, r3
 80034d2:	602a      	str	r2, [r5, #0]
 80034d4:	6020      	str	r0, [r4, #0]
 80034d6:	bd38      	pop	{r3, r4, r5, pc}
 80034d8:	480c      	ldr	r0, [pc, #48]	; (800350c <HAL_RCC_GetHCLKFreq+0x78>)
 80034da:	e7e6      	b.n	80034aa <HAL_RCC_GetHCLKFreq+0x16>
 80034dc:	6813      	ldr	r3, [r2, #0]
 80034de:	069b      	lsls	r3, r3, #26
 80034e0:	d508      	bpl.n	80034f4 <HAL_RCC_GetHCLKFreq+0x60>
 80034e2:	6812      	ldr	r2, [r2, #0]
 80034e4:	480a      	ldr	r0, [pc, #40]	; (8003510 <HAL_RCC_GetHCLKFreq+0x7c>)
 80034e6:	f3c2 02c1 	ubfx	r2, r2, #3, #2
 80034ea:	40d0      	lsrs	r0, r2
 80034ec:	e7dd      	b.n	80034aa <HAL_RCC_GetHCLKFreq+0x16>
 80034ee:	f7ff fa9d 	bl	8002a2c <HAL_RCC_GetSysClockFreq.part.0>
 80034f2:	e7da      	b.n	80034aa <HAL_RCC_GetHCLKFreq+0x16>
 80034f4:	4806      	ldr	r0, [pc, #24]	; (8003510 <HAL_RCC_GetHCLKFreq+0x7c>)
 80034f6:	e7d8      	b.n	80034aa <HAL_RCC_GetHCLKFreq+0x16>
 80034f8:	58024400 	.word	0x58024400
 80034fc:	003d0900 	.word	0x003d0900
 8003500:	08004cfc 	.word	0x08004cfc
 8003504:	240040cc 	.word	0x240040cc
 8003508:	240040c8 	.word	0x240040c8
 800350c:	017d7840 	.word	0x017d7840
 8003510:	03d09000 	.word	0x03d09000

08003514 <RCCEx_PLL2_Config>:
 8003514:	4a3b      	ldr	r2, [pc, #236]	; (8003604 <RCCEx_PLL2_Config+0xf0>)
 8003516:	b5f8      	push	{r3, r4, r5, r6, r7, lr}
 8003518:	6a93      	ldr	r3, [r2, #40]	; 0x28
 800351a:	f003 0303 	and.w	r3, r3, #3
 800351e:	2b03      	cmp	r3, #3
 8003520:	d069      	beq.n	80035f6 <RCCEx_PLL2_Config+0xe2>
 8003522:	6813      	ldr	r3, [r2, #0]
 8003524:	4606      	mov	r6, r0
 8003526:	460f      	mov	r7, r1
 8003528:	4614      	mov	r4, r2
 800352a:	f023 6380 	bic.w	r3, r3, #67108864	; 0x4000000
 800352e:	6013      	str	r3, [r2, #0]
 8003530:	f7fe f84a 	bl	80015c8 <HAL_GetTick>
 8003534:	4605      	mov	r5, r0
 8003536:	e004      	b.n	8003542 <RCCEx_PLL2_Config+0x2e>
 8003538:	f7fe f846 	bl	80015c8 <HAL_GetTick>
 800353c:	1b43      	subs	r3, r0, r5
 800353e:	2b02      	cmp	r3, #2
 8003540:	d857      	bhi.n	80035f2 <RCCEx_PLL2_Config+0xde>
 8003542:	6823      	ldr	r3, [r4, #0]
 8003544:	011a      	lsls	r2, r3, #4
 8003546:	d4f7      	bmi.n	8003538 <RCCEx_PLL2_Config+0x24>
 8003548:	6aa3      	ldr	r3, [r4, #40]	; 0x28
 800354a:	6832      	ldr	r2, [r6, #0]
 800354c:	f423 337c 	bic.w	r3, r3, #258048	; 0x3f000
 8003550:	492d      	ldr	r1, [pc, #180]	; (8003608 <RCCEx_PLL2_Config+0xf4>)
 8003552:	ea43 3302 	orr.w	r3, r3, r2, lsl #12
 8003556:	62a3      	str	r3, [r4, #40]	; 0x28
 8003558:	6875      	ldr	r5, [r6, #4]
 800355a:	e9d6 3202 	ldrd	r3, r2, [r6, #8]
 800355e:	3d01      	subs	r5, #1
 8003560:	1e50      	subs	r0, r2, #1
 8003562:	3b01      	subs	r3, #1
 8003564:	6932      	ldr	r2, [r6, #16]
 8003566:	f3c5 0508 	ubfx	r5, r5, #0, #9
 800356a:	025b      	lsls	r3, r3, #9
 800356c:	0400      	lsls	r0, r0, #16
 800356e:	3a01      	subs	r2, #1
 8003570:	b29b      	uxth	r3, r3
 8003572:	f400 00fe 	and.w	r0, r0, #8323072	; 0x7f0000
 8003576:	0612      	lsls	r2, r2, #24
 8003578:	4303      	orrs	r3, r0
 800357a:	f002 42fe 	and.w	r2, r2, #2130706432	; 0x7f000000
 800357e:	432b      	orrs	r3, r5
 8003580:	4313      	orrs	r3, r2
 8003582:	63a3      	str	r3, [r4, #56]	; 0x38
 8003584:	6ae3      	ldr	r3, [r4, #44]	; 0x2c
 8003586:	6972      	ldr	r2, [r6, #20]
 8003588:	f023 03c0 	bic.w	r3, r3, #192	; 0xc0
 800358c:	4313      	orrs	r3, r2
 800358e:	62e3      	str	r3, [r4, #44]	; 0x2c
 8003590:	6ae3      	ldr	r3, [r4, #44]	; 0x2c
 8003592:	69b2      	ldr	r2, [r6, #24]
 8003594:	f023 0320 	bic.w	r3, r3, #32
 8003598:	4313      	orrs	r3, r2
 800359a:	62e3      	str	r3, [r4, #44]	; 0x2c
 800359c:	6ae3      	ldr	r3, [r4, #44]	; 0x2c
 800359e:	f023 0310 	bic.w	r3, r3, #16
 80035a2:	62e3      	str	r3, [r4, #44]	; 0x2c
 80035a4:	6be2      	ldr	r2, [r4, #60]	; 0x3c
 80035a6:	69f3      	ldr	r3, [r6, #28]
 80035a8:	4011      	ands	r1, r2
 80035aa:	ea41 01c3 	orr.w	r1, r1, r3, lsl #3
 80035ae:	63e1      	str	r1, [r4, #60]	; 0x3c
 80035b0:	6ae3      	ldr	r3, [r4, #44]	; 0x2c
 80035b2:	f043 0310 	orr.w	r3, r3, #16
 80035b6:	62e3      	str	r3, [r4, #44]	; 0x2c
 80035b8:	6ae3      	ldr	r3, [r4, #44]	; 0x2c
 80035ba:	b1f7      	cbz	r7, 80035fa <RCCEx_PLL2_Config+0xe6>
 80035bc:	2f01      	cmp	r7, #1
 80035be:	bf0c      	ite	eq
 80035c0:	f443 1380 	orreq.w	r3, r3, #1048576	; 0x100000
 80035c4:	f443 1300 	orrne.w	r3, r3, #2097152	; 0x200000
 80035c8:	62e3      	str	r3, [r4, #44]	; 0x2c
 80035ca:	4b0e      	ldr	r3, [pc, #56]	; (8003604 <RCCEx_PLL2_Config+0xf0>)
 80035cc:	681a      	ldr	r2, [r3, #0]
 80035ce:	461d      	mov	r5, r3
 80035d0:	f042 6280 	orr.w	r2, r2, #67108864	; 0x4000000
 80035d4:	601a      	str	r2, [r3, #0]
 80035d6:	f7fd fff7 	bl	80015c8 <HAL_GetTick>
 80035da:	4604      	mov	r4, r0
 80035dc:	e004      	b.n	80035e8 <RCCEx_PLL2_Config+0xd4>
 80035de:	f7fd fff3 	bl	80015c8 <HAL_GetTick>
 80035e2:	1b00      	subs	r0, r0, r4
 80035e4:	2802      	cmp	r0, #2
 80035e6:	d804      	bhi.n	80035f2 <RCCEx_PLL2_Config+0xde>
 80035e8:	682b      	ldr	r3, [r5, #0]
 80035ea:	011b      	lsls	r3, r3, #4
 80035ec:	d5f7      	bpl.n	80035de <RCCEx_PLL2_Config+0xca>
 80035ee:	2000      	movs	r0, #0
 80035f0:	bdf8      	pop	{r3, r4, r5, r6, r7, pc}
 80035f2:	2003      	movs	r0, #3
 80035f4:	bdf8      	pop	{r3, r4, r5, r6, r7, pc}
 80035f6:	2001      	movs	r0, #1
 80035f8:	bdf8      	pop	{r3, r4, r5, r6, r7, pc}
 80035fa:	f443 2300 	orr.w	r3, r3, #524288	; 0x80000
 80035fe:	62e3      	str	r3, [r4, #44]	; 0x2c
 8003600:	e7e3      	b.n	80035ca <RCCEx_PLL2_Config+0xb6>
 8003602:	bf00      	nop
 8003604:	58024400 	.word	0x58024400
 8003608:	ffff0007 	.word	0xffff0007

0800360c <RCCEx_PLL3_Config>:
 800360c:	4a3b      	ldr	r2, [pc, #236]	; (80036fc <RCCEx_PLL3_Config+0xf0>)
 800360e:	b5f8      	push	{r3, r4, r5, r6, r7, lr}
 8003610:	6a93      	ldr	r3, [r2, #40]	; 0x28
 8003612:	f003 0303 	and.w	r3, r3, #3
 8003616:	2b03      	cmp	r3, #3
 8003618:	d069      	beq.n	80036ee <RCCEx_PLL3_Config+0xe2>
 800361a:	6813      	ldr	r3, [r2, #0]
 800361c:	4606      	mov	r6, r0
 800361e:	460f      	mov	r7, r1
 8003620:	4614      	mov	r4, r2
 8003622:	f023 5380 	bic.w	r3, r3, #268435456	; 0x10000000
 8003626:	6013      	str	r3, [r2, #0]
 8003628:	f7fd ffce 	bl	80015c8 <HAL_GetTick>
 800362c:	4605      	mov	r5, r0
 800362e:	e004      	b.n	800363a <RCCEx_PLL3_Config+0x2e>
 8003630:	f7fd ffca 	bl	80015c8 <HAL_GetTick>
 8003634:	1b43      	subs	r3, r0, r5
 8003636:	2b02      	cmp	r3, #2
 8003638:	d857      	bhi.n	80036ea <RCCEx_PLL3_Config+0xde>
 800363a:	6823      	ldr	r3, [r4, #0]
 800363c:	009a      	lsls	r2, r3, #2
 800363e:	d4f7      	bmi.n	8003630 <RCCEx_PLL3_Config+0x24>
 8003640:	6aa3      	ldr	r3, [r4, #40]	; 0x28
 8003642:	6832      	ldr	r2, [r6, #0]
 8003644:	f023 737c 	bic.w	r3, r3, #66060288	; 0x3f00000
 8003648:	492d      	ldr	r1, [pc, #180]	; (8003700 <RCCEx_PLL3_Config+0xf4>)
 800364a:	ea43 5302 	orr.w	r3, r3, r2, lsl #20
 800364e:	62a3      	str	r3, [r4, #40]	; 0x28
 8003650:	6875      	ldr	r5, [r6, #4]
 8003652:	e9d6 3202 	ldrd	r3, r2, [r6, #8]
 8003656:	3d01      	subs	r5, #1
 8003658:	1e50      	subs	r0, r2, #1
 800365a:	3b01      	subs	r3, #1
 800365c:	6932      	ldr	r2, [r6, #16]
 800365e:	f3c5 0508 	ubfx	r5, r5, #0, #9
 8003662:	025b      	lsls	r3, r3, #9
 8003664:	0400      	lsls	r0, r0, #16
 8003666:	3a01      	subs	r2, #1
 8003668:	b29b      	uxth	r3, r3
 800366a:	f400 00fe 	and.w	r0, r0, #8323072	; 0x7f0000
 800366e:	0612      	lsls	r2, r2, #24
 8003670:	4303      	orrs	r3, r0
 8003672:	f002 42fe 	and.w	r2, r2, #2130706432	; 0x7f000000
 8003676:	432b      	orrs	r3, r5
 8003678:	4313      	orrs	r3, r2
 800367a:	6423      	str	r3, [r4, #64]	; 0x40
 800367c:	6ae3      	ldr	r3, [r4, #44]	; 0x2c
 800367e:	6972      	ldr	r2, [r6, #20]
 8003680:	f423 6340 	bic.w	r3, r3, #3072	; 0xc00
 8003684:	4313      	orrs	r3, r2
 8003686:	62e3      	str	r3, [r4, #44]	; 0x2c
 8003688:	6ae3      	ldr	r3, [r4, #44]	; 0x2c
 800368a:	69b2      	ldr	r2, [r6, #24]
 800368c:	f423 7300 	bic.w	r3, r3, #512	; 0x200
 8003690:	4313      	orrs	r3, r2
 8003692:	62e3      	str	r3, [r4, #44]	; 0x2c
 8003694:	6ae3      	ldr	r3, [r4, #44]	; 0x2c
 8003696:	f423 7380 	bic.w	r3, r3, #256	; 0x100
 800369a:	62e3      	str	r3, [r4, #44]	; 0x2c
 800369c:	6c62      	ldr	r2, [r4, #68]	; 0x44
 800369e:	69f3      	ldr	r3, [r6, #28]
 80036a0:	4011      	ands	r1, r2
 80036a2:	ea41 01c3 	orr.w	r1, r1, r3, lsl #3
 80036a6:	6461      	str	r1, [r4, #68]	; 0x44
 80036a8:	6ae3      	ldr	r3, [r4, #44]	; 0x2c
 80036aa:	f443 7380 	orr.w	r3, r3, #256	; 0x100
 80036ae:	62e3      	str	r3, [r4, #44]	; 0x2c
 80036b0:	6ae3      	ldr	r3, [r4, #44]	; 0x2c
 80036b2:	b1f7      	cbz	r7, 80036f2 <RCCEx_PLL3_Config+0xe6>
 80036b4:	2f01      	cmp	r7, #1
 80036b6:	bf0c      	ite	eq
 80036b8:	f443 0300 	orreq.w	r3, r3, #8388608	; 0x800000
 80036bc:	f043 7380 	orrne.w	r3, r3, #16777216	; 0x1000000
 80036c0:	62e3      	str	r3, [r4, #44]	; 0x2c
 80036c2:	4b0e      	ldr	r3, [pc, #56]	; (80036fc <RCCEx_PLL3_Config+0xf0>)
 80036c4:	681a      	ldr	r2, [r3, #0]
 80036c6:	461d      	mov	r5, r3
 80036c8:	f042 5280 	orr.w	r2, r2, #268435456	; 0x10000000
 80036cc:	601a      	str	r2, [r3, #0]
 80036ce:	f7fd ff7b 	bl	80015c8 <HAL_GetTick>
 80036d2:	4604      	mov	r4, r0
 80036d4:	e004      	b.n	80036e0 <RCCEx_PLL3_Config+0xd4>
 80036d6:	f7fd ff77 	bl	80015c8 <HAL_GetTick>
 80036da:	1b00      	subs	r0, r0, r4
 80036dc:	2802      	cmp	r0, #2
 80036de:	d804      	bhi.n	80036ea <RCCEx_PLL3_Config+0xde>
 80036e0:	682b      	ldr	r3, [r5, #0]
 80036e2:	009b      	lsls	r3, r3, #2
 80036e4:	d5f7      	bpl.n	80036d6 <RCCEx_PLL3_Config+0xca>
 80036e6:	2000      	movs	r0, #0
 80036e8:	bdf8      	pop	{r3, r4, r5, r6, r7, pc}
 80036ea:	2003      	movs	r0, #3
 80036ec:	bdf8      	pop	{r3, r4, r5, r6, r7, pc}
 80036ee:	2001      	movs	r0, #1
 80036f0:	bdf8      	pop	{r3, r4, r5, r6, r7, pc}
 80036f2:	f443 0380 	orr.w	r3, r3, #4194304	; 0x400000
 80036f6:	62e3      	str	r3, [r4, #44]	; 0x2c
 80036f8:	e7e3      	b.n	80036c2 <RCCEx_PLL3_Config+0xb6>
 80036fa:	bf00      	nop
 80036fc:	58024400 	.word	0x58024400
 8003700:	ffff0007 	.word	0xffff0007

08003704 <HAL_RCCEx_PeriphCLKConfig>:
 8003704:	e92d 43f8 	stmdb	sp!, {r3, r4, r5, r6, r7, r8, r9, lr}
 8003708:	6803      	ldr	r3, [r0, #0]
 800370a:	4604      	mov	r4, r0
 800370c:	f013 6600 	ands.w	r6, r3, #134217728	; 0x8000000
 8003710:	d01c      	beq.n	800374c <HAL_RCCEx_PeriphCLKConfig+0x48>
 8003712:	6e42      	ldr	r2, [r0, #100]	; 0x64
 8003714:	f5b2 1f00 	cmp.w	r2, #2097152	; 0x200000
 8003718:	f000 84ba 	beq.w	8004090 <HAL_RCCEx_PeriphCLKConfig+0x98c>
 800371c:	d823      	bhi.n	8003766 <HAL_RCCEx_PeriphCLKConfig+0x62>
 800371e:	2a00      	cmp	r2, #0
 8003720:	f000 83dc 	beq.w	8003edc <HAL_RCCEx_PeriphCLKConfig+0x7d8>
 8003724:	f5b2 1f80 	cmp.w	r2, #1048576	; 0x100000
 8003728:	d120      	bne.n	800376c <HAL_RCCEx_PeriphCLKConfig+0x68>
 800372a:	2102      	movs	r1, #2
 800372c:	3004      	adds	r0, #4
 800372e:	f7ff fef1 	bl	8003514 <RCCEx_PLL2_Config>
 8003732:	4606      	mov	r6, r0
 8003734:	2e00      	cmp	r6, #0
 8003736:	f040 849f 	bne.w	8004078 <HAL_RCCEx_PeriphCLKConfig+0x974>
 800373a:	6e62      	ldr	r2, [r4, #100]	; 0x64
 800373c:	6823      	ldr	r3, [r4, #0]
 800373e:	48ab      	ldr	r0, [pc, #684]	; (80039ec <HAL_RCCEx_PeriphCLKConfig+0x2e8>)
 8003740:	2600      	movs	r6, #0
 8003742:	6d01      	ldr	r1, [r0, #80]	; 0x50
 8003744:	f421 1140 	bic.w	r1, r1, #3145728	; 0x300000
 8003748:	430a      	orrs	r2, r1
 800374a:	6502      	str	r2, [r0, #80]	; 0x50
 800374c:	05dd      	lsls	r5, r3, #23
 800374e:	d511      	bpl.n	8003774 <HAL_RCCEx_PeriphCLKConfig+0x70>
 8003750:	6d62      	ldr	r2, [r4, #84]	; 0x54
 8003752:	2a04      	cmp	r2, #4
 8003754:	f200 851c 	bhi.w	8004190 <HAL_RCCEx_PeriphCLKConfig+0xa8c>
 8003758:	e8df f012 	tbh	[pc, r2, lsl #1]
 800375c:	0476046f 	.word	0x0476046f
 8003760:	02d40486 	.word	0x02d40486
 8003764:	02d4      	.short	0x02d4
 8003766:	f5b2 1f40 	cmp.w	r2, #3145728	; 0x300000
 800376a:	d0e8      	beq.n	800373e <HAL_RCCEx_PeriphCLKConfig+0x3a>
 800376c:	05dd      	lsls	r5, r3, #23
 800376e:	f04f 0601 	mov.w	r6, #1
 8003772:	d4ed      	bmi.n	8003750 <HAL_RCCEx_PeriphCLKConfig+0x4c>
 8003774:	4635      	mov	r5, r6
 8003776:	0598      	lsls	r0, r3, #22
 8003778:	d51b      	bpl.n	80037b2 <HAL_RCCEx_PeriphCLKConfig+0xae>
 800377a:	6da2      	ldr	r2, [r4, #88]	; 0x58
 800377c:	2a80      	cmp	r2, #128	; 0x80
 800377e:	f000 8453 	beq.w	8004028 <HAL_RCCEx_PeriphCLKConfig+0x924>
 8003782:	f200 80ec 	bhi.w	800395e <HAL_RCCEx_PeriphCLKConfig+0x25a>
 8003786:	2a00      	cmp	r2, #0
 8003788:	f000 83a2 	beq.w	8003ed0 <HAL_RCCEx_PeriphCLKConfig+0x7cc>
 800378c:	2a40      	cmp	r2, #64	; 0x40
 800378e:	f040 80ed 	bne.w	800396c <HAL_RCCEx_PeriphCLKConfig+0x268>
 8003792:	2100      	movs	r1, #0
 8003794:	1d20      	adds	r0, r4, #4
 8003796:	f7ff febd 	bl	8003514 <RCCEx_PLL2_Config>
 800379a:	6823      	ldr	r3, [r4, #0]
 800379c:	4605      	mov	r5, r0
 800379e:	2d00      	cmp	r5, #0
 80037a0:	f040 8386 	bne.w	8003eb0 <HAL_RCCEx_PeriphCLKConfig+0x7ac>
 80037a4:	4991      	ldr	r1, [pc, #580]	; (80039ec <HAL_RCCEx_PeriphCLKConfig+0x2e8>)
 80037a6:	6da0      	ldr	r0, [r4, #88]	; 0x58
 80037a8:	6d0a      	ldr	r2, [r1, #80]	; 0x50
 80037aa:	f422 72e0 	bic.w	r2, r2, #448	; 0x1c0
 80037ae:	4302      	orrs	r2, r0
 80037b0:	650a      	str	r2, [r1, #80]	; 0x50
 80037b2:	0559      	lsls	r1, r3, #21
 80037b4:	d51f      	bpl.n	80037f6 <HAL_RCCEx_PeriphCLKConfig+0xf2>
 80037b6:	f8d4 20a4 	ldr.w	r2, [r4, #164]	; 0xa4
 80037ba:	f5b2 0f80 	cmp.w	r2, #4194304	; 0x400000
 80037be:	f000 844a 	beq.w	8004056 <HAL_RCCEx_PeriphCLKConfig+0x952>
 80037c2:	f200 80d6 	bhi.w	8003972 <HAL_RCCEx_PeriphCLKConfig+0x26e>
 80037c6:	2a00      	cmp	r2, #0
 80037c8:	f000 837c 	beq.w	8003ec4 <HAL_RCCEx_PeriphCLKConfig+0x7c0>
 80037cc:	f5b2 1f00 	cmp.w	r2, #2097152	; 0x200000
 80037d0:	f040 80d7 	bne.w	8003982 <HAL_RCCEx_PeriphCLKConfig+0x27e>
 80037d4:	2100      	movs	r1, #0
 80037d6:	1d20      	adds	r0, r4, #4
 80037d8:	f7ff fe9c 	bl	8003514 <RCCEx_PLL2_Config>
 80037dc:	6823      	ldr	r3, [r4, #0]
 80037de:	4605      	mov	r5, r0
 80037e0:	2d00      	cmp	r5, #0
 80037e2:	f040 8367 	bne.w	8003eb4 <HAL_RCCEx_PeriphCLKConfig+0x7b0>
 80037e6:	4981      	ldr	r1, [pc, #516]	; (80039ec <HAL_RCCEx_PeriphCLKConfig+0x2e8>)
 80037e8:	f8d4 00a4 	ldr.w	r0, [r4, #164]	; 0xa4
 80037ec:	6d8a      	ldr	r2, [r1, #88]	; 0x58
 80037ee:	f422 0260 	bic.w	r2, r2, #14680064	; 0xe00000
 80037f2:	4302      	orrs	r2, r0
 80037f4:	658a      	str	r2, [r1, #88]	; 0x58
 80037f6:	051a      	lsls	r2, r3, #20
 80037f8:	d51f      	bpl.n	800383a <HAL_RCCEx_PeriphCLKConfig+0x136>
 80037fa:	f8d4 20a8 	ldr.w	r2, [r4, #168]	; 0xa8
 80037fe:	f1b2 7f00 	cmp.w	r2, #33554432	; 0x2000000
 8003802:	f000 843c 	beq.w	800407e <HAL_RCCEx_PeriphCLKConfig+0x97a>
 8003806:	f200 80bf 	bhi.w	8003988 <HAL_RCCEx_PeriphCLKConfig+0x284>
 800380a:	2a00      	cmp	r2, #0
 800380c:	f000 836c 	beq.w	8003ee8 <HAL_RCCEx_PeriphCLKConfig+0x7e4>
 8003810:	f1b2 7f80 	cmp.w	r2, #16777216	; 0x1000000
 8003814:	f040 80c0 	bne.w	8003998 <HAL_RCCEx_PeriphCLKConfig+0x294>
 8003818:	2100      	movs	r1, #0
 800381a:	1d20      	adds	r0, r4, #4
 800381c:	f7ff fe7a 	bl	8003514 <RCCEx_PLL2_Config>
 8003820:	6823      	ldr	r3, [r4, #0]
 8003822:	4605      	mov	r5, r0
 8003824:	2d00      	cmp	r5, #0
 8003826:	f040 833f 	bne.w	8003ea8 <HAL_RCCEx_PeriphCLKConfig+0x7a4>
 800382a:	4970      	ldr	r1, [pc, #448]	; (80039ec <HAL_RCCEx_PeriphCLKConfig+0x2e8>)
 800382c:	f8d4 00a8 	ldr.w	r0, [r4, #168]	; 0xa8
 8003830:	6d8a      	ldr	r2, [r1, #88]	; 0x58
 8003832:	f022 62e0 	bic.w	r2, r2, #117440512	; 0x7000000
 8003836:	4302      	orrs	r2, r0
 8003838:	658a      	str	r2, [r1, #88]	; 0x58
 800383a:	019f      	lsls	r7, r3, #6
 800383c:	d518      	bpl.n	8003870 <HAL_RCCEx_PeriphCLKConfig+0x16c>
 800383e:	6ca2      	ldr	r2, [r4, #72]	; 0x48
 8003840:	2a20      	cmp	r2, #32
 8003842:	f000 8392 	beq.w	8003f6a <HAL_RCCEx_PeriphCLKConfig+0x866>
 8003846:	f200 80aa 	bhi.w	800399e <HAL_RCCEx_PeriphCLKConfig+0x29a>
 800384a:	b13a      	cbz	r2, 800385c <HAL_RCCEx_PeriphCLKConfig+0x158>
 800384c:	2a10      	cmp	r2, #16
 800384e:	f040 80a9 	bne.w	80039a4 <HAL_RCCEx_PeriphCLKConfig+0x2a0>
 8003852:	4966      	ldr	r1, [pc, #408]	; (80039ec <HAL_RCCEx_PeriphCLKConfig+0x2e8>)
 8003854:	6aca      	ldr	r2, [r1, #44]	; 0x2c
 8003856:	f442 3200 	orr.w	r2, r2, #131072	; 0x20000
 800385a:	62ca      	str	r2, [r1, #44]	; 0x2c
 800385c:	2d00      	cmp	r5, #0
 800385e:	f040 8366 	bne.w	8003f2e <HAL_RCCEx_PeriphCLKConfig+0x82a>
 8003862:	4962      	ldr	r1, [pc, #392]	; (80039ec <HAL_RCCEx_PeriphCLKConfig+0x2e8>)
 8003864:	6ca0      	ldr	r0, [r4, #72]	; 0x48
 8003866:	6cca      	ldr	r2, [r1, #76]	; 0x4c
 8003868:	f022 0230 	bic.w	r2, r2, #48	; 0x30
 800386c:	4302      	orrs	r2, r0
 800386e:	64ca      	str	r2, [r1, #76]	; 0x4c
 8003870:	04d8      	lsls	r0, r3, #19
 8003872:	d51d      	bpl.n	80038b0 <HAL_RCCEx_PeriphCLKConfig+0x1ac>
 8003874:	6de2      	ldr	r2, [r4, #92]	; 0x5c
 8003876:	f5b2 5f00 	cmp.w	r2, #8192	; 0x2000
 800387a:	f000 83cd 	beq.w	8004018 <HAL_RCCEx_PeriphCLKConfig+0x914>
 800387e:	f200 8094 	bhi.w	80039aa <HAL_RCCEx_PeriphCLKConfig+0x2a6>
 8003882:	2a00      	cmp	r2, #0
 8003884:	f000 8318 	beq.w	8003eb8 <HAL_RCCEx_PeriphCLKConfig+0x7b4>
 8003888:	f5b2 5f80 	cmp.w	r2, #4096	; 0x1000
 800388c:	f040 8095 	bne.w	80039ba <HAL_RCCEx_PeriphCLKConfig+0x2b6>
 8003890:	2100      	movs	r1, #0
 8003892:	1d20      	adds	r0, r4, #4
 8003894:	f7ff fe3e 	bl	8003514 <RCCEx_PLL2_Config>
 8003898:	6823      	ldr	r3, [r4, #0]
 800389a:	4605      	mov	r5, r0
 800389c:	2d00      	cmp	r5, #0
 800389e:	f040 8305 	bne.w	8003eac <HAL_RCCEx_PeriphCLKConfig+0x7a8>
 80038a2:	4952      	ldr	r1, [pc, #328]	; (80039ec <HAL_RCCEx_PeriphCLKConfig+0x2e8>)
 80038a4:	6de0      	ldr	r0, [r4, #92]	; 0x5c
 80038a6:	6d0a      	ldr	r2, [r1, #80]	; 0x50
 80038a8:	f422 42e0 	bic.w	r2, r2, #28672	; 0x7000
 80038ac:	4302      	orrs	r2, r0
 80038ae:	650a      	str	r2, [r1, #80]	; 0x50
 80038b0:	0499      	lsls	r1, r3, #18
 80038b2:	d51a      	bpl.n	80038ea <HAL_RCCEx_PeriphCLKConfig+0x1e6>
 80038b4:	6e22      	ldr	r2, [r4, #96]	; 0x60
 80038b6:	f5b2 3f00 	cmp.w	r2, #131072	; 0x20000
 80038ba:	f000 8398 	beq.w	8003fee <HAL_RCCEx_PeriphCLKConfig+0x8ea>
 80038be:	d87f      	bhi.n	80039c0 <HAL_RCCEx_PeriphCLKConfig+0x2bc>
 80038c0:	b14a      	cbz	r2, 80038d6 <HAL_RCCEx_PeriphCLKConfig+0x1d2>
 80038c2:	f5b2 3f80 	cmp.w	r2, #65536	; 0x10000
 80038c6:	f040 8083 	bne.w	80039d0 <HAL_RCCEx_PeriphCLKConfig+0x2cc>
 80038ca:	2101      	movs	r1, #1
 80038cc:	1d20      	adds	r0, r4, #4
 80038ce:	f7ff fe21 	bl	8003514 <RCCEx_PLL2_Config>
 80038d2:	6823      	ldr	r3, [r4, #0]
 80038d4:	4605      	mov	r5, r0
 80038d6:	2d00      	cmp	r5, #0
 80038d8:	f040 832b 	bne.w	8003f32 <HAL_RCCEx_PeriphCLKConfig+0x82e>
 80038dc:	4943      	ldr	r1, [pc, #268]	; (80039ec <HAL_RCCEx_PeriphCLKConfig+0x2e8>)
 80038de:	6e20      	ldr	r0, [r4, #96]	; 0x60
 80038e0:	6d0a      	ldr	r2, [r1, #80]	; 0x50
 80038e2:	f422 22e0 	bic.w	r2, r2, #458752	; 0x70000
 80038e6:	4302      	orrs	r2, r0
 80038e8:	650a      	str	r2, [r1, #80]	; 0x50
 80038ea:	045a      	lsls	r2, r3, #17
 80038ec:	d51b      	bpl.n	8003926 <HAL_RCCEx_PeriphCLKConfig+0x222>
 80038ee:	f8d4 20ac 	ldr.w	r2, [r4, #172]	; 0xac
 80038f2:	f1b2 5f00 	cmp.w	r2, #536870912	; 0x20000000
 80038f6:	f000 834a 	beq.w	8003f8e <HAL_RCCEx_PeriphCLKConfig+0x88a>
 80038fa:	d86c      	bhi.n	80039d6 <HAL_RCCEx_PeriphCLKConfig+0x2d2>
 80038fc:	b142      	cbz	r2, 8003910 <HAL_RCCEx_PeriphCLKConfig+0x20c>
 80038fe:	f1b2 5f80 	cmp.w	r2, #268435456	; 0x10000000
 8003902:	d170      	bne.n	80039e6 <HAL_RCCEx_PeriphCLKConfig+0x2e2>
 8003904:	2101      	movs	r1, #1
 8003906:	1d20      	adds	r0, r4, #4
 8003908:	f7ff fe04 	bl	8003514 <RCCEx_PLL2_Config>
 800390c:	6823      	ldr	r3, [r4, #0]
 800390e:	4605      	mov	r5, r0
 8003910:	2d00      	cmp	r5, #0
 8003912:	f040 8302 	bne.w	8003f1a <HAL_RCCEx_PeriphCLKConfig+0x816>
 8003916:	4935      	ldr	r1, [pc, #212]	; (80039ec <HAL_RCCEx_PeriphCLKConfig+0x2e8>)
 8003918:	f8d4 00ac 	ldr.w	r0, [r4, #172]	; 0xac
 800391c:	6d8a      	ldr	r2, [r1, #88]	; 0x58
 800391e:	f022 42e0 	bic.w	r2, r2, #1879048192	; 0x70000000
 8003922:	4302      	orrs	r2, r0
 8003924:	658a      	str	r2, [r1, #88]	; 0x58
 8003926:	041f      	lsls	r7, r3, #16
 8003928:	d50d      	bpl.n	8003946 <HAL_RCCEx_PeriphCLKConfig+0x242>
 800392a:	6ee2      	ldr	r2, [r4, #108]	; 0x6c
 800392c:	f1b2 5f80 	cmp.w	r2, #268435456	; 0x10000000
 8003930:	f000 834b 	beq.w	8003fca <HAL_RCCEx_PeriphCLKConfig+0x8c6>
 8003934:	f1b2 5f00 	cmp.w	r2, #536870912	; 0x20000000
 8003938:	f000 81f0 	beq.w	8003d1c <HAL_RCCEx_PeriphCLKConfig+0x618>
 800393c:	2a00      	cmp	r2, #0
 800393e:	f000 81f3 	beq.w	8003d28 <HAL_RCCEx_PeriphCLKConfig+0x624>
 8003942:	2601      	movs	r6, #1
 8003944:	4635      	mov	r5, r6
 8003946:	01d8      	lsls	r0, r3, #7
 8003948:	d55c      	bpl.n	8003a04 <HAL_RCCEx_PeriphCLKConfig+0x300>
 800394a:	6c62      	ldr	r2, [r4, #68]	; 0x44
 800394c:	2a03      	cmp	r2, #3
 800394e:	f200 8425 	bhi.w	800419c <HAL_RCCEx_PeriphCLKConfig+0xa98>
 8003952:	e8df f012 	tbh	[pc, r2, lsl #1]
 8003956:	0053      	.short	0x0053
 8003958:	004d0313 	.word	0x004d0313
 800395c:	0053      	.short	0x0053
 800395e:	2ac0      	cmp	r2, #192	; 0xc0
 8003960:	f43f af1d 	beq.w	800379e <HAL_RCCEx_PeriphCLKConfig+0x9a>
 8003964:	f5b2 7f80 	cmp.w	r2, #256	; 0x100
 8003968:	f43f af19 	beq.w	800379e <HAL_RCCEx_PeriphCLKConfig+0x9a>
 800396c:	2601      	movs	r6, #1
 800396e:	4635      	mov	r5, r6
 8003970:	e71f      	b.n	80037b2 <HAL_RCCEx_PeriphCLKConfig+0xae>
 8003972:	f5b2 0fc0 	cmp.w	r2, #6291456	; 0x600000
 8003976:	f43f af33 	beq.w	80037e0 <HAL_RCCEx_PeriphCLKConfig+0xdc>
 800397a:	f5b2 0f00 	cmp.w	r2, #8388608	; 0x800000
 800397e:	f43f af2f 	beq.w	80037e0 <HAL_RCCEx_PeriphCLKConfig+0xdc>
 8003982:	2601      	movs	r6, #1
 8003984:	4635      	mov	r5, r6
 8003986:	e736      	b.n	80037f6 <HAL_RCCEx_PeriphCLKConfig+0xf2>
 8003988:	f1b2 7f40 	cmp.w	r2, #50331648	; 0x3000000
 800398c:	f43f af4a 	beq.w	8003824 <HAL_RCCEx_PeriphCLKConfig+0x120>
 8003990:	f1b2 6f80 	cmp.w	r2, #67108864	; 0x4000000
 8003994:	f43f af46 	beq.w	8003824 <HAL_RCCEx_PeriphCLKConfig+0x120>
 8003998:	2601      	movs	r6, #1
 800399a:	4635      	mov	r5, r6
 800399c:	e74d      	b.n	800383a <HAL_RCCEx_PeriphCLKConfig+0x136>
 800399e:	2a30      	cmp	r2, #48	; 0x30
 80039a0:	f43f af5c 	beq.w	800385c <HAL_RCCEx_PeriphCLKConfig+0x158>
 80039a4:	2601      	movs	r6, #1
 80039a6:	4635      	mov	r5, r6
 80039a8:	e762      	b.n	8003870 <HAL_RCCEx_PeriphCLKConfig+0x16c>
 80039aa:	f5b2 5f40 	cmp.w	r2, #12288	; 0x3000
 80039ae:	f43f af75 	beq.w	800389c <HAL_RCCEx_PeriphCLKConfig+0x198>
 80039b2:	f5b2 4f80 	cmp.w	r2, #16384	; 0x4000
 80039b6:	f43f af71 	beq.w	800389c <HAL_RCCEx_PeriphCLKConfig+0x198>
 80039ba:	2601      	movs	r6, #1
 80039bc:	4635      	mov	r5, r6
 80039be:	e777      	b.n	80038b0 <HAL_RCCEx_PeriphCLKConfig+0x1ac>
 80039c0:	f422 3180 	bic.w	r1, r2, #65536	; 0x10000
 80039c4:	f5b1 2f80 	cmp.w	r1, #262144	; 0x40000
 80039c8:	d085      	beq.n	80038d6 <HAL_RCCEx_PeriphCLKConfig+0x1d2>
 80039ca:	f5b2 3f40 	cmp.w	r2, #196608	; 0x30000
 80039ce:	d082      	beq.n	80038d6 <HAL_RCCEx_PeriphCLKConfig+0x1d2>
 80039d0:	2601      	movs	r6, #1
 80039d2:	4635      	mov	r5, r6
 80039d4:	e789      	b.n	80038ea <HAL_RCCEx_PeriphCLKConfig+0x1e6>
 80039d6:	f022 5180 	bic.w	r1, r2, #268435456	; 0x10000000
 80039da:	f1b1 4f80 	cmp.w	r1, #1073741824	; 0x40000000
 80039de:	d097      	beq.n	8003910 <HAL_RCCEx_PeriphCLKConfig+0x20c>
 80039e0:	f1b2 5f40 	cmp.w	r2, #805306368	; 0x30000000
 80039e4:	d094      	beq.n	8003910 <HAL_RCCEx_PeriphCLKConfig+0x20c>
 80039e6:	2601      	movs	r6, #1
 80039e8:	4635      	mov	r5, r6
 80039ea:	e79c      	b.n	8003926 <HAL_RCCEx_PeriphCLKConfig+0x222>
 80039ec:	58024400 	.word	0x58024400
 80039f0:	2102      	movs	r1, #2
 80039f2:	1d20      	adds	r0, r4, #4
 80039f4:	f7ff fd8e 	bl	8003514 <RCCEx_PLL2_Config>
 80039f8:	6823      	ldr	r3, [r4, #0]
 80039fa:	4605      	mov	r5, r0
 80039fc:	2d00      	cmp	r5, #0
 80039fe:	f000 828e 	beq.w	8003f1e <HAL_RCCEx_PeriphCLKConfig+0x81a>
 8003a02:	462e      	mov	r6, r5
 8003a04:	0259      	lsls	r1, r3, #9
 8003a06:	f100 8208 	bmi.w	8003e1a <HAL_RCCEx_PeriphCLKConfig+0x716>
 8003a0a:	07df      	lsls	r7, r3, #31
 8003a0c:	d539      	bpl.n	8003a82 <HAL_RCCEx_PeriphCLKConfig+0x37e>
 8003a0e:	6fa2      	ldr	r2, [r4, #120]	; 0x78
 8003a10:	2a28      	cmp	r2, #40	; 0x28
 8003a12:	f200 8174 	bhi.w	8003cfe <HAL_RCCEx_PeriphCLKConfig+0x5fa>
 8003a16:	e8df f012 	tbh	[pc, r2, lsl #1]
 8003a1a:	0030      	.short	0x0030
 8003a1c:	01720172 	.word	0x01720172
 8003a20:	01720172 	.word	0x01720172
 8003a24:	01720172 	.word	0x01720172
 8003a28:	03580172 	.word	0x03580172
 8003a2c:	01720172 	.word	0x01720172
 8003a30:	01720172 	.word	0x01720172
 8003a34:	01720172 	.word	0x01720172
 8003a38:	00290172 	.word	0x00290172
 8003a3c:	01720172 	.word	0x01720172
 8003a40:	01720172 	.word	0x01720172
 8003a44:	01720172 	.word	0x01720172
 8003a48:	00300172 	.word	0x00300172
 8003a4c:	01720172 	.word	0x01720172
 8003a50:	01720172 	.word	0x01720172
 8003a54:	01720172 	.word	0x01720172
 8003a58:	00300172 	.word	0x00300172
 8003a5c:	01720172 	.word	0x01720172
 8003a60:	01720172 	.word	0x01720172
 8003a64:	01720172 	.word	0x01720172
 8003a68:	00300172 	.word	0x00300172
 8003a6c:	2101      	movs	r1, #1
 8003a6e:	f104 0024 	add.w	r0, r4, #36	; 0x24
 8003a72:	f7ff fdcb 	bl	800360c <RCCEx_PLL3_Config>
 8003a76:	6823      	ldr	r3, [r4, #0]
 8003a78:	4605      	mov	r5, r0
 8003a7a:	2d00      	cmp	r5, #0
 8003a7c:	f000 826b 	beq.w	8003f56 <HAL_RCCEx_PeriphCLKConfig+0x852>
 8003a80:	462e      	mov	r6, r5
 8003a82:	0798      	lsls	r0, r3, #30
 8003a84:	d516      	bpl.n	8003ab4 <HAL_RCCEx_PeriphCLKConfig+0x3b0>
 8003a86:	6f62      	ldr	r2, [r4, #116]	; 0x74
 8003a88:	2a05      	cmp	r2, #5
 8003a8a:	f200 8384 	bhi.w	8004196 <HAL_RCCEx_PeriphCLKConfig+0xa92>
 8003a8e:	e8df f012 	tbh	[pc, r2, lsl #1]
 8003a92:	000d      	.short	0x000d
 8003a94:	00060308 	.word	0x00060308
 8003a98:	000d000d 	.word	0x000d000d
 8003a9c:	000d      	.short	0x000d
 8003a9e:	2101      	movs	r1, #1
 8003aa0:	f104 0024 	add.w	r0, r4, #36	; 0x24
 8003aa4:	f7ff fdb2 	bl	800360c <RCCEx_PLL3_Config>
 8003aa8:	6823      	ldr	r3, [r4, #0]
 8003aaa:	4605      	mov	r5, r0
 8003aac:	2d00      	cmp	r5, #0
 8003aae:	f000 822c 	beq.w	8003f0a <HAL_RCCEx_PeriphCLKConfig+0x806>
 8003ab2:	462e      	mov	r6, r5
 8003ab4:	0759      	lsls	r1, r3, #29
 8003ab6:	d517      	bpl.n	8003ae8 <HAL_RCCEx_PeriphCLKConfig+0x3e4>
 8003ab8:	f8d4 2090 	ldr.w	r2, [r4, #144]	; 0x90
 8003abc:	2a05      	cmp	r2, #5
 8003abe:	f200 8370 	bhi.w	80041a2 <HAL_RCCEx_PeriphCLKConfig+0xa9e>
 8003ac2:	e8df f012 	tbh	[pc, r2, lsl #1]
 8003ac6:	000d      	.short	0x000d
 8003ac8:	000602f8 	.word	0x000602f8
 8003acc:	000d000d 	.word	0x000d000d
 8003ad0:	000d      	.short	0x000d
 8003ad2:	2101      	movs	r1, #1
 8003ad4:	f104 0024 	add.w	r0, r4, #36	; 0x24
 8003ad8:	f7ff fd98 	bl	800360c <RCCEx_PLL3_Config>
 8003adc:	6823      	ldr	r3, [r4, #0]
 8003ade:	4605      	mov	r5, r0
 8003ae0:	2d00      	cmp	r5, #0
 8003ae2:	f000 8209 	beq.w	8003ef8 <HAL_RCCEx_PeriphCLKConfig+0x7f4>
 8003ae6:	462e      	mov	r6, r5
 8003ae8:	069a      	lsls	r2, r3, #26
 8003aea:	d51d      	bpl.n	8003b28 <HAL_RCCEx_PeriphCLKConfig+0x424>
 8003aec:	f8d4 208c 	ldr.w	r2, [r4, #140]	; 0x8c
 8003af0:	f1b2 5f00 	cmp.w	r2, #536870912	; 0x20000000
 8003af4:	f000 8271 	beq.w	8003fda <HAL_RCCEx_PeriphCLKConfig+0x8d6>
 8003af8:	f200 8121 	bhi.w	8003d3e <HAL_RCCEx_PeriphCLKConfig+0x63a>
 8003afc:	b14a      	cbz	r2, 8003b12 <HAL_RCCEx_PeriphCLKConfig+0x40e>
 8003afe:	f1b2 5f80 	cmp.w	r2, #268435456	; 0x10000000
 8003b02:	f040 8126 	bne.w	8003d52 <HAL_RCCEx_PeriphCLKConfig+0x64e>
 8003b06:	2100      	movs	r1, #0
 8003b08:	1d20      	adds	r0, r4, #4
 8003b0a:	f7ff fd03 	bl	8003514 <RCCEx_PLL2_Config>
 8003b0e:	6823      	ldr	r3, [r4, #0]
 8003b10:	4605      	mov	r5, r0
 8003b12:	2d00      	cmp	r5, #0
 8003b14:	f040 8213 	bne.w	8003f3e <HAL_RCCEx_PeriphCLKConfig+0x83a>
 8003b18:	49b9      	ldr	r1, [pc, #740]	; (8003e00 <HAL_RCCEx_PeriphCLKConfig+0x6fc>)
 8003b1a:	f8d4 008c 	ldr.w	r0, [r4, #140]	; 0x8c
 8003b1e:	6d4a      	ldr	r2, [r1, #84]	; 0x54
 8003b20:	f022 42e0 	bic.w	r2, r2, #1879048192	; 0x70000000
 8003b24:	4302      	orrs	r2, r0
 8003b26:	654a      	str	r2, [r1, #84]	; 0x54
 8003b28:	065f      	lsls	r7, r3, #25
 8003b2a:	d51d      	bpl.n	8003b68 <HAL_RCCEx_PeriphCLKConfig+0x464>
 8003b2c:	f8d4 2098 	ldr.w	r2, [r4, #152]	; 0x98
 8003b30:	f5b2 6f00 	cmp.w	r2, #2048	; 0x800
 8003b34:	f000 823f 	beq.w	8003fb6 <HAL_RCCEx_PeriphCLKConfig+0x8b2>
 8003b38:	f200 8129 	bhi.w	8003d8e <HAL_RCCEx_PeriphCLKConfig+0x68a>
 8003b3c:	b14a      	cbz	r2, 8003b52 <HAL_RCCEx_PeriphCLKConfig+0x44e>
 8003b3e:	f5b2 6f80 	cmp.w	r2, #1024	; 0x400
 8003b42:	f040 812e 	bne.w	8003da2 <HAL_RCCEx_PeriphCLKConfig+0x69e>
 8003b46:	2100      	movs	r1, #0
 8003b48:	1d20      	adds	r0, r4, #4
 8003b4a:	f7ff fce3 	bl	8003514 <RCCEx_PLL2_Config>
 8003b4e:	6823      	ldr	r3, [r4, #0]
 8003b50:	4605      	mov	r5, r0
 8003b52:	2d00      	cmp	r5, #0
 8003b54:	f040 81ef 	bne.w	8003f36 <HAL_RCCEx_PeriphCLKConfig+0x832>
 8003b58:	49a9      	ldr	r1, [pc, #676]	; (8003e00 <HAL_RCCEx_PeriphCLKConfig+0x6fc>)
 8003b5a:	f8d4 0098 	ldr.w	r0, [r4, #152]	; 0x98
 8003b5e:	6d8a      	ldr	r2, [r1, #88]	; 0x58
 8003b60:	f422 52e0 	bic.w	r2, r2, #7168	; 0x1c00
 8003b64:	4302      	orrs	r2, r0
 8003b66:	658a      	str	r2, [r1, #88]	; 0x58
 8003b68:	0618      	lsls	r0, r3, #24
 8003b6a:	d51d      	bpl.n	8003ba8 <HAL_RCCEx_PeriphCLKConfig+0x4a4>
 8003b6c:	f8d4 209c 	ldr.w	r2, [r4, #156]	; 0x9c
 8003b70:	f5b2 4f80 	cmp.w	r2, #16384	; 0x4000
 8003b74:	f000 8215 	beq.w	8003fa2 <HAL_RCCEx_PeriphCLKConfig+0x89e>
 8003b78:	f200 80fc 	bhi.w	8003d74 <HAL_RCCEx_PeriphCLKConfig+0x670>
 8003b7c:	b14a      	cbz	r2, 8003b92 <HAL_RCCEx_PeriphCLKConfig+0x48e>
 8003b7e:	f5b2 5f00 	cmp.w	r2, #8192	; 0x2000
 8003b82:	f040 8101 	bne.w	8003d88 <HAL_RCCEx_PeriphCLKConfig+0x684>
 8003b86:	2100      	movs	r1, #0
 8003b88:	1d20      	adds	r0, r4, #4
 8003b8a:	f7ff fcc3 	bl	8003514 <RCCEx_PLL2_Config>
 8003b8e:	6823      	ldr	r3, [r4, #0]
 8003b90:	4605      	mov	r5, r0
 8003b92:	2d00      	cmp	r5, #0
 8003b94:	f040 81d1 	bne.w	8003f3a <HAL_RCCEx_PeriphCLKConfig+0x836>
 8003b98:	4999      	ldr	r1, [pc, #612]	; (8003e00 <HAL_RCCEx_PeriphCLKConfig+0x6fc>)
 8003b9a:	f8d4 009c 	ldr.w	r0, [r4, #156]	; 0x9c
 8003b9e:	6d8a      	ldr	r2, [r1, #88]	; 0x58
 8003ba0:	f422 4260 	bic.w	r2, r2, #57344	; 0xe000
 8003ba4:	4302      	orrs	r2, r0
 8003ba6:	658a      	str	r2, [r1, #88]	; 0x58
 8003ba8:	0719      	lsls	r1, r3, #28
 8003baa:	d50b      	bpl.n	8003bc4 <HAL_RCCEx_PeriphCLKConfig+0x4c0>
 8003bac:	f8d4 1080 	ldr.w	r1, [r4, #128]	; 0x80
 8003bb0:	f5b1 5f80 	cmp.w	r1, #4096	; 0x1000
 8003bb4:	f000 8225 	beq.w	8004002 <HAL_RCCEx_PeriphCLKConfig+0x8fe>
 8003bb8:	4891      	ldr	r0, [pc, #580]	; (8003e00 <HAL_RCCEx_PeriphCLKConfig+0x6fc>)
 8003bba:	6d42      	ldr	r2, [r0, #84]	; 0x54
 8003bbc:	f422 5240 	bic.w	r2, r2, #12288	; 0x3000
 8003bc0:	430a      	orrs	r2, r1
 8003bc2:	6542      	str	r2, [r0, #84]	; 0x54
 8003bc4:	06da      	lsls	r2, r3, #27
 8003bc6:	d50b      	bpl.n	8003be0 <HAL_RCCEx_PeriphCLKConfig+0x4dc>
 8003bc8:	f8d4 1094 	ldr.w	r1, [r4, #148]	; 0x94
 8003bcc:	f5b1 7f80 	cmp.w	r1, #256	; 0x100
 8003bd0:	f000 82b2 	beq.w	8004138 <HAL_RCCEx_PeriphCLKConfig+0xa34>
 8003bd4:	488a      	ldr	r0, [pc, #552]	; (8003e00 <HAL_RCCEx_PeriphCLKConfig+0x6fc>)
 8003bd6:	6d82      	ldr	r2, [r0, #88]	; 0x58
 8003bd8:	f422 7240 	bic.w	r2, r2, #768	; 0x300
 8003bdc:	430a      	orrs	r2, r1
 8003bde:	6582      	str	r2, [r0, #88]	; 0x58
 8003be0:	031f      	lsls	r7, r3, #12
 8003be2:	d50e      	bpl.n	8003c02 <HAL_RCCEx_PeriphCLKConfig+0x4fe>
 8003be4:	f8d4 10a0 	ldr.w	r1, [r4, #160]	; 0xa0
 8003be8:	f5b1 3f80 	cmp.w	r1, #65536	; 0x10000
 8003bec:	f000 80f2 	beq.w	8003dd4 <HAL_RCCEx_PeriphCLKConfig+0x6d0>
 8003bf0:	f5b1 3f00 	cmp.w	r1, #131072	; 0x20000
 8003bf4:	f000 80f5 	beq.w	8003de2 <HAL_RCCEx_PeriphCLKConfig+0x6de>
 8003bf8:	2900      	cmp	r1, #0
 8003bfa:	f000 828b 	beq.w	8004114 <HAL_RCCEx_PeriphCLKConfig+0xa10>
 8003bfe:	2601      	movs	r6, #1
 8003c00:	4635      	mov	r5, r6
 8003c02:	0358      	lsls	r0, r3, #13
 8003c04:	d50f      	bpl.n	8003c26 <HAL_RCCEx_PeriphCLKConfig+0x522>
 8003c06:	f8d4 2084 	ldr.w	r2, [r4, #132]	; 0x84
 8003c0a:	f5b2 1f00 	cmp.w	r2, #2097152	; 0x200000
 8003c0e:	f000 80cb 	beq.w	8003da8 <HAL_RCCEx_PeriphCLKConfig+0x6a4>
 8003c12:	f5b2 1f40 	cmp.w	r2, #3145728	; 0x300000
 8003c16:	f000 80ce 	beq.w	8003db6 <HAL_RCCEx_PeriphCLKConfig+0x6b2>
 8003c1a:	f5b2 1f80 	cmp.w	r2, #1048576	; 0x100000
 8003c1e:	f000 8282 	beq.w	8004126 <HAL_RCCEx_PeriphCLKConfig+0xa22>
 8003c22:	2601      	movs	r6, #1
 8003c24:	4635      	mov	r5, r6
 8003c26:	03d9      	lsls	r1, r3, #15
 8003c28:	d517      	bpl.n	8003c5a <HAL_RCCEx_PeriphCLKConfig+0x556>
 8003c2a:	6ce2      	ldr	r2, [r4, #76]	; 0x4c
 8003c2c:	2a00      	cmp	r2, #0
 8003c2e:	f000 825f 	beq.w	80040f0 <HAL_RCCEx_PeriphCLKConfig+0x9ec>
 8003c32:	f5b2 3f80 	cmp.w	r2, #65536	; 0x10000
 8003c36:	f040 8132 	bne.w	8003e9e <HAL_RCCEx_PeriphCLKConfig+0x79a>
 8003c3a:	2102      	movs	r1, #2
 8003c3c:	1d20      	adds	r0, r4, #4
 8003c3e:	f7ff fc69 	bl	8003514 <RCCEx_PLL2_Config>
 8003c42:	4605      	mov	r5, r0
 8003c44:	6823      	ldr	r3, [r4, #0]
 8003c46:	2d00      	cmp	r5, #0
 8003c48:	f040 818d 	bne.w	8003f66 <HAL_RCCEx_PeriphCLKConfig+0x862>
 8003c4c:	496c      	ldr	r1, [pc, #432]	; (8003e00 <HAL_RCCEx_PeriphCLKConfig+0x6fc>)
 8003c4e:	6ce0      	ldr	r0, [r4, #76]	; 0x4c
 8003c50:	6cca      	ldr	r2, [r1, #76]	; 0x4c
 8003c52:	f422 3280 	bic.w	r2, r2, #65536	; 0x10000
 8003c56:	4302      	orrs	r2, r0
 8003c58:	64ca      	str	r2, [r1, #76]	; 0x4c
 8003c5a:	009a      	lsls	r2, r3, #2
 8003c5c:	f100 80d2 	bmi.w	8003e04 <HAL_RCCEx_PeriphCLKConfig+0x700>
 8003c60:	039f      	lsls	r7, r3, #14
 8003c62:	d43f      	bmi.n	8003ce4 <HAL_RCCEx_PeriphCLKConfig+0x5e0>
 8003c64:	1e30      	subs	r0, r6, #0
 8003c66:	bf18      	it	ne
 8003c68:	2001      	movne	r0, #1
 8003c6a:	02de      	lsls	r6, r3, #11
 8003c6c:	d506      	bpl.n	8003c7c <HAL_RCCEx_PeriphCLKConfig+0x578>
 8003c6e:	4964      	ldr	r1, [pc, #400]	; (8003e00 <HAL_RCCEx_PeriphCLKConfig+0x6fc>)
 8003c70:	6f25      	ldr	r5, [r4, #112]	; 0x70
 8003c72:	6d0a      	ldr	r2, [r1, #80]	; 0x50
 8003c74:	f022 4200 	bic.w	r2, r2, #2147483648	; 0x80000000
 8003c78:	432a      	orrs	r2, r5
 8003c7a:	650a      	str	r2, [r1, #80]	; 0x50
 8003c7c:	00dd      	lsls	r5, r3, #3
 8003c7e:	d507      	bpl.n	8003c90 <HAL_RCCEx_PeriphCLKConfig+0x58c>
 8003c80:	495f      	ldr	r1, [pc, #380]	; (8003e00 <HAL_RCCEx_PeriphCLKConfig+0x6fc>)
 8003c82:	f8d4 50b4 	ldr.w	r5, [r4, #180]	; 0xb4
 8003c86:	690a      	ldr	r2, [r1, #16]
 8003c88:	f422 4280 	bic.w	r2, r2, #16384	; 0x4000
 8003c8c:	432a      	orrs	r2, r5
 8003c8e:	610a      	str	r2, [r1, #16]
 8003c90:	0299      	lsls	r1, r3, #10
 8003c92:	d506      	bpl.n	8003ca2 <HAL_RCCEx_PeriphCLKConfig+0x59e>
 8003c94:	495a      	ldr	r1, [pc, #360]	; (8003e00 <HAL_RCCEx_PeriphCLKConfig+0x6fc>)
 8003c96:	6ea5      	ldr	r5, [r4, #104]	; 0x68
 8003c98:	6d0a      	ldr	r2, [r1, #80]	; 0x50
 8003c9a:	f022 7280 	bic.w	r2, r2, #16777216	; 0x1000000
 8003c9e:	432a      	orrs	r2, r5
 8003ca0:	650a      	str	r2, [r1, #80]	; 0x50
 8003ca2:	005a      	lsls	r2, r3, #1
 8003ca4:	d509      	bpl.n	8003cba <HAL_RCCEx_PeriphCLKConfig+0x5b6>
 8003ca6:	4a56      	ldr	r2, [pc, #344]	; (8003e00 <HAL_RCCEx_PeriphCLKConfig+0x6fc>)
 8003ca8:	6911      	ldr	r1, [r2, #16]
 8003caa:	f421 4100 	bic.w	r1, r1, #32768	; 0x8000
 8003cae:	6111      	str	r1, [r2, #16]
 8003cb0:	6911      	ldr	r1, [r2, #16]
 8003cb2:	f8d4 50b8 	ldr.w	r5, [r4, #184]	; 0xb8
 8003cb6:	4329      	orrs	r1, r5
 8003cb8:	6111      	str	r1, [r2, #16]
 8003cba:	2b00      	cmp	r3, #0
 8003cbc:	da06      	bge.n	8003ccc <HAL_RCCEx_PeriphCLKConfig+0x5c8>
 8003cbe:	4950      	ldr	r1, [pc, #320]	; (8003e00 <HAL_RCCEx_PeriphCLKConfig+0x6fc>)
 8003cc0:	6d25      	ldr	r5, [r4, #80]	; 0x50
 8003cc2:	6cca      	ldr	r2, [r1, #76]	; 0x4c
 8003cc4:	f022 5240 	bic.w	r2, r2, #805306368	; 0x30000000
 8003cc8:	432a      	orrs	r2, r5
 8003cca:	64ca      	str	r2, [r1, #76]	; 0x4c
 8003ccc:	021b      	lsls	r3, r3, #8
 8003cce:	d507      	bpl.n	8003ce0 <HAL_RCCEx_PeriphCLKConfig+0x5dc>
 8003cd0:	4a4b      	ldr	r2, [pc, #300]	; (8003e00 <HAL_RCCEx_PeriphCLKConfig+0x6fc>)
 8003cd2:	f8d4 1088 	ldr.w	r1, [r4, #136]	; 0x88
 8003cd6:	6d53      	ldr	r3, [r2, #84]	; 0x54
 8003cd8:	f423 0340 	bic.w	r3, r3, #12582912	; 0xc00000
 8003cdc:	430b      	orrs	r3, r1
 8003cde:	6553      	str	r3, [r2, #84]	; 0x54
 8003ce0:	e8bd 83f8 	ldmia.w	sp!, {r3, r4, r5, r6, r7, r8, r9, pc}
 8003ce4:	6fe2      	ldr	r2, [r4, #124]	; 0x7c
 8003ce6:	f5b2 7f80 	cmp.w	r2, #256	; 0x100
 8003cea:	f000 820a 	beq.w	8004102 <HAL_RCCEx_PeriphCLKConfig+0x9fe>
 8003cee:	d933      	bls.n	8003d58 <HAL_RCCEx_PeriphCLKConfig+0x654>
 8003cf0:	f422 7180 	bic.w	r1, r2, #256	; 0x100
 8003cf4:	f5b1 7f00 	cmp.w	r1, #512	; 0x200
 8003cf8:	d030      	beq.n	8003d5c <HAL_RCCEx_PeriphCLKConfig+0x658>
 8003cfa:	2001      	movs	r0, #1
 8003cfc:	e7b5      	b.n	8003c6a <HAL_RCCEx_PeriphCLKConfig+0x566>
 8003cfe:	2601      	movs	r6, #1
 8003d00:	4635      	mov	r5, r6
 8003d02:	e6be      	b.n	8003a82 <HAL_RCCEx_PeriphCLKConfig+0x37e>
 8003d04:	4635      	mov	r5, r6
 8003d06:	2d00      	cmp	r5, #0
 8003d08:	f040 80cc 	bne.w	8003ea4 <HAL_RCCEx_PeriphCLKConfig+0x7a0>
 8003d0c:	493c      	ldr	r1, [pc, #240]	; (8003e00 <HAL_RCCEx_PeriphCLKConfig+0x6fc>)
 8003d0e:	6d60      	ldr	r0, [r4, #84]	; 0x54
 8003d10:	6d0a      	ldr	r2, [r1, #80]	; 0x50
 8003d12:	f022 0207 	bic.w	r2, r2, #7
 8003d16:	4302      	orrs	r2, r0
 8003d18:	650a      	str	r2, [r1, #80]	; 0x50
 8003d1a:	e52c      	b.n	8003776 <HAL_RCCEx_PeriphCLKConfig+0x72>
 8003d1c:	2101      	movs	r1, #1
 8003d1e:	1d20      	adds	r0, r4, #4
 8003d20:	f7ff fbf8 	bl	8003514 <RCCEx_PLL2_Config>
 8003d24:	6823      	ldr	r3, [r4, #0]
 8003d26:	4605      	mov	r5, r0
 8003d28:	2d00      	cmp	r5, #0
 8003d2a:	f040 80e3 	bne.w	8003ef4 <HAL_RCCEx_PeriphCLKConfig+0x7f0>
 8003d2e:	4934      	ldr	r1, [pc, #208]	; (8003e00 <HAL_RCCEx_PeriphCLKConfig+0x6fc>)
 8003d30:	6ee0      	ldr	r0, [r4, #108]	; 0x6c
 8003d32:	6d0a      	ldr	r2, [r1, #80]	; 0x50
 8003d34:	f022 5240 	bic.w	r2, r2, #805306368	; 0x30000000
 8003d38:	4302      	orrs	r2, r0
 8003d3a:	650a      	str	r2, [r1, #80]	; 0x50
 8003d3c:	e603      	b.n	8003946 <HAL_RCCEx_PeriphCLKConfig+0x242>
 8003d3e:	f022 5180 	bic.w	r1, r2, #268435456	; 0x10000000
 8003d42:	f1b1 4f80 	cmp.w	r1, #1073741824	; 0x40000000
 8003d46:	f43f aee4 	beq.w	8003b12 <HAL_RCCEx_PeriphCLKConfig+0x40e>
 8003d4a:	f1b2 5f40 	cmp.w	r2, #805306368	; 0x30000000
 8003d4e:	f43f aee0 	beq.w	8003b12 <HAL_RCCEx_PeriphCLKConfig+0x40e>
 8003d52:	2601      	movs	r6, #1
 8003d54:	4635      	mov	r5, r6
 8003d56:	e6e7      	b.n	8003b28 <HAL_RCCEx_PeriphCLKConfig+0x424>
 8003d58:	2a00      	cmp	r2, #0
 8003d5a:	d1ce      	bne.n	8003cfa <HAL_RCCEx_PeriphCLKConfig+0x5f6>
 8003d5c:	2d00      	cmp	r5, #0
 8003d5e:	d1cc      	bne.n	8003cfa <HAL_RCCEx_PeriphCLKConfig+0x5f6>
 8003d60:	4d27      	ldr	r5, [pc, #156]	; (8003e00 <HAL_RCCEx_PeriphCLKConfig+0x6fc>)
 8003d62:	1e30      	subs	r0, r6, #0
 8003d64:	6d69      	ldr	r1, [r5, #84]	; 0x54
 8003d66:	bf18      	it	ne
 8003d68:	2001      	movne	r0, #1
 8003d6a:	f421 7140 	bic.w	r1, r1, #768	; 0x300
 8003d6e:	430a      	orrs	r2, r1
 8003d70:	656a      	str	r2, [r5, #84]	; 0x54
 8003d72:	e77a      	b.n	8003c6a <HAL_RCCEx_PeriphCLKConfig+0x566>
 8003d74:	f422 5100 	bic.w	r1, r2, #8192	; 0x2000
 8003d78:	f5b1 4f00 	cmp.w	r1, #32768	; 0x8000
 8003d7c:	f43f af09 	beq.w	8003b92 <HAL_RCCEx_PeriphCLKConfig+0x48e>
 8003d80:	f5b2 4fc0 	cmp.w	r2, #24576	; 0x6000
 8003d84:	f43f af05 	beq.w	8003b92 <HAL_RCCEx_PeriphCLKConfig+0x48e>
 8003d88:	2601      	movs	r6, #1
 8003d8a:	4635      	mov	r5, r6
 8003d8c:	e70c      	b.n	8003ba8 <HAL_RCCEx_PeriphCLKConfig+0x4a4>
 8003d8e:	f422 6180 	bic.w	r1, r2, #1024	; 0x400
 8003d92:	f5b1 5f80 	cmp.w	r1, #4096	; 0x1000
 8003d96:	f43f aedc 	beq.w	8003b52 <HAL_RCCEx_PeriphCLKConfig+0x44e>
 8003d9a:	f5b2 6f40 	cmp.w	r2, #3072	; 0xc00
 8003d9e:	f43f aed8 	beq.w	8003b52 <HAL_RCCEx_PeriphCLKConfig+0x44e>
 8003da2:	2601      	movs	r6, #1
 8003da4:	4635      	mov	r5, r6
 8003da6:	e6df      	b.n	8003b68 <HAL_RCCEx_PeriphCLKConfig+0x464>
 8003da8:	2101      	movs	r1, #1
 8003daa:	f104 0024 	add.w	r0, r4, #36	; 0x24
 8003dae:	f7ff fc2d 	bl	800360c <RCCEx_PLL3_Config>
 8003db2:	6823      	ldr	r3, [r4, #0]
 8003db4:	4605      	mov	r5, r0
 8003db6:	2d00      	cmp	r5, #0
 8003db8:	f040 80c8 	bne.w	8003f4c <HAL_RCCEx_PeriphCLKConfig+0x848>
 8003dbc:	4910      	ldr	r1, [pc, #64]	; (8003e00 <HAL_RCCEx_PeriphCLKConfig+0x6fc>)
 8003dbe:	f8d4 0084 	ldr.w	r0, [r4, #132]	; 0x84
 8003dc2:	6d4a      	ldr	r2, [r1, #84]	; 0x54
 8003dc4:	f422 1240 	bic.w	r2, r2, #3145728	; 0x300000
 8003dc8:	4302      	orrs	r2, r0
 8003dca:	654a      	str	r2, [r1, #84]	; 0x54
 8003dcc:	03d9      	lsls	r1, r3, #15
 8003dce:	f57f af44 	bpl.w	8003c5a <HAL_RCCEx_PeriphCLKConfig+0x556>
 8003dd2:	e72a      	b.n	8003c2a <HAL_RCCEx_PeriphCLKConfig+0x526>
 8003dd4:	2102      	movs	r1, #2
 8003dd6:	f104 0024 	add.w	r0, r4, #36	; 0x24
 8003dda:	f7ff fc17 	bl	800360c <RCCEx_PLL3_Config>
 8003dde:	6823      	ldr	r3, [r4, #0]
 8003de0:	4605      	mov	r5, r0
 8003de2:	2d00      	cmp	r5, #0
 8003de4:	f040 80ad 	bne.w	8003f42 <HAL_RCCEx_PeriphCLKConfig+0x83e>
 8003de8:	4905      	ldr	r1, [pc, #20]	; (8003e00 <HAL_RCCEx_PeriphCLKConfig+0x6fc>)
 8003dea:	f8d4 00a0 	ldr.w	r0, [r4, #160]	; 0xa0
 8003dee:	6d8a      	ldr	r2, [r1, #88]	; 0x58
 8003df0:	f422 3240 	bic.w	r2, r2, #196608	; 0x30000
 8003df4:	4302      	orrs	r2, r0
 8003df6:	0358      	lsls	r0, r3, #13
 8003df8:	658a      	str	r2, [r1, #88]	; 0x58
 8003dfa:	f57f af14 	bpl.w	8003c26 <HAL_RCCEx_PeriphCLKConfig+0x522>
 8003dfe:	e702      	b.n	8003c06 <HAL_RCCEx_PeriphCLKConfig+0x502>
 8003e00:	58024400 	.word	0x58024400
 8003e04:	2102      	movs	r1, #2
 8003e06:	f104 0024 	add.w	r0, r4, #36	; 0x24
 8003e0a:	f7ff fbff 	bl	800360c <RCCEx_PLL3_Config>
 8003e0e:	6823      	ldr	r3, [r4, #0]
 8003e10:	2800      	cmp	r0, #0
 8003e12:	f43f af25 	beq.w	8003c60 <HAL_RCCEx_PeriphCLKConfig+0x55c>
 8003e16:	2601      	movs	r6, #1
 8003e18:	e722      	b.n	8003c60 <HAL_RCCEx_PeriphCLKConfig+0x55c>
 8003e1a:	4bb3      	ldr	r3, [pc, #716]	; (80040e8 <HAL_RCCEx_PeriphCLKConfig+0x9e4>)
 8003e1c:	681a      	ldr	r2, [r3, #0]
 8003e1e:	4698      	mov	r8, r3
 8003e20:	f442 7280 	orr.w	r2, r2, #256	; 0x100
 8003e24:	601a      	str	r2, [r3, #0]
 8003e26:	f7fd fbcf 	bl	80015c8 <HAL_GetTick>
 8003e2a:	4607      	mov	r7, r0
 8003e2c:	e005      	b.n	8003e3a <HAL_RCCEx_PeriphCLKConfig+0x736>
 8003e2e:	f7fd fbcb 	bl	80015c8 <HAL_GetTick>
 8003e32:	1bc0      	subs	r0, r0, r7
 8003e34:	2864      	cmp	r0, #100	; 0x64
 8003e36:	f200 8152 	bhi.w	80040de <HAL_RCCEx_PeriphCLKConfig+0x9da>
 8003e3a:	f8d8 3000 	ldr.w	r3, [r8]
 8003e3e:	05da      	lsls	r2, r3, #23
 8003e40:	d5f5      	bpl.n	8003e2e <HAL_RCCEx_PeriphCLKConfig+0x72a>
 8003e42:	2d00      	cmp	r5, #0
 8003e44:	f040 81a1 	bne.w	800418a <HAL_RCCEx_PeriphCLKConfig+0xa86>
 8003e48:	4aa8      	ldr	r2, [pc, #672]	; (80040ec <HAL_RCCEx_PeriphCLKConfig+0x9e8>)
 8003e4a:	f8d4 30b0 	ldr.w	r3, [r4, #176]	; 0xb0
 8003e4e:	6f11      	ldr	r1, [r2, #112]	; 0x70
 8003e50:	4059      	eors	r1, r3
 8003e52:	f411 7f40 	tst.w	r1, #768	; 0x300
 8003e56:	d00b      	beq.n	8003e70 <HAL_RCCEx_PeriphCLKConfig+0x76c>
 8003e58:	6f11      	ldr	r1, [r2, #112]	; 0x70
 8003e5a:	6f10      	ldr	r0, [r2, #112]	; 0x70
 8003e5c:	f421 7140 	bic.w	r1, r1, #768	; 0x300
 8003e60:	f440 3080 	orr.w	r0, r0, #65536	; 0x10000
 8003e64:	6710      	str	r0, [r2, #112]	; 0x70
 8003e66:	6f10      	ldr	r0, [r2, #112]	; 0x70
 8003e68:	f420 3080 	bic.w	r0, r0, #65536	; 0x10000
 8003e6c:	6710      	str	r0, [r2, #112]	; 0x70
 8003e6e:	6711      	str	r1, [r2, #112]	; 0x70
 8003e70:	f5b3 7f80 	cmp.w	r3, #256	; 0x100
 8003e74:	f000 816b 	beq.w	800414e <HAL_RCCEx_PeriphCLKConfig+0xa4a>
 8003e78:	f403 7240 	and.w	r2, r3, #768	; 0x300
 8003e7c:	f5b2 7f40 	cmp.w	r2, #768	; 0x300
 8003e80:	f000 8179 	beq.w	8004176 <HAL_RCCEx_PeriphCLKConfig+0xa72>
 8003e84:	4999      	ldr	r1, [pc, #612]	; (80040ec <HAL_RCCEx_PeriphCLKConfig+0x9e8>)
 8003e86:	690a      	ldr	r2, [r1, #16]
 8003e88:	f422 527c 	bic.w	r2, r2, #16128	; 0x3f00
 8003e8c:	610a      	str	r2, [r1, #16]
 8003e8e:	4a97      	ldr	r2, [pc, #604]	; (80040ec <HAL_RCCEx_PeriphCLKConfig+0x9e8>)
 8003e90:	f3c3 030b 	ubfx	r3, r3, #0, #12
 8003e94:	6f11      	ldr	r1, [r2, #112]	; 0x70
 8003e96:	430b      	orrs	r3, r1
 8003e98:	6713      	str	r3, [r2, #112]	; 0x70
 8003e9a:	6823      	ldr	r3, [r4, #0]
 8003e9c:	e5b5      	b.n	8003a0a <HAL_RCCEx_PeriphCLKConfig+0x306>
 8003e9e:	2601      	movs	r6, #1
 8003ea0:	4635      	mov	r5, r6
 8003ea2:	e6da      	b.n	8003c5a <HAL_RCCEx_PeriphCLKConfig+0x556>
 8003ea4:	462e      	mov	r6, r5
 8003ea6:	e466      	b.n	8003776 <HAL_RCCEx_PeriphCLKConfig+0x72>
 8003ea8:	462e      	mov	r6, r5
 8003eaa:	e4c6      	b.n	800383a <HAL_RCCEx_PeriphCLKConfig+0x136>
 8003eac:	462e      	mov	r6, r5
 8003eae:	e4ff      	b.n	80038b0 <HAL_RCCEx_PeriphCLKConfig+0x1ac>
 8003eb0:	462e      	mov	r6, r5
 8003eb2:	e47e      	b.n	80037b2 <HAL_RCCEx_PeriphCLKConfig+0xae>
 8003eb4:	462e      	mov	r6, r5
 8003eb6:	e49e      	b.n	80037f6 <HAL_RCCEx_PeriphCLKConfig+0xf2>
 8003eb8:	498c      	ldr	r1, [pc, #560]	; (80040ec <HAL_RCCEx_PeriphCLKConfig+0x9e8>)
 8003eba:	6aca      	ldr	r2, [r1, #44]	; 0x2c
 8003ebc:	f442 3200 	orr.w	r2, r2, #131072	; 0x20000
 8003ec0:	62ca      	str	r2, [r1, #44]	; 0x2c
 8003ec2:	e4eb      	b.n	800389c <HAL_RCCEx_PeriphCLKConfig+0x198>
 8003ec4:	4989      	ldr	r1, [pc, #548]	; (80040ec <HAL_RCCEx_PeriphCLKConfig+0x9e8>)
 8003ec6:	6aca      	ldr	r2, [r1, #44]	; 0x2c
 8003ec8:	f442 3200 	orr.w	r2, r2, #131072	; 0x20000
 8003ecc:	62ca      	str	r2, [r1, #44]	; 0x2c
 8003ece:	e487      	b.n	80037e0 <HAL_RCCEx_PeriphCLKConfig+0xdc>
 8003ed0:	4986      	ldr	r1, [pc, #536]	; (80040ec <HAL_RCCEx_PeriphCLKConfig+0x9e8>)
 8003ed2:	6aca      	ldr	r2, [r1, #44]	; 0x2c
 8003ed4:	f442 3200 	orr.w	r2, r2, #131072	; 0x20000
 8003ed8:	62ca      	str	r2, [r1, #44]	; 0x2c
 8003eda:	e460      	b.n	800379e <HAL_RCCEx_PeriphCLKConfig+0x9a>
 8003edc:	4883      	ldr	r0, [pc, #524]	; (80040ec <HAL_RCCEx_PeriphCLKConfig+0x9e8>)
 8003ede:	6ac1      	ldr	r1, [r0, #44]	; 0x2c
 8003ee0:	f441 3100 	orr.w	r1, r1, #131072	; 0x20000
 8003ee4:	62c1      	str	r1, [r0, #44]	; 0x2c
 8003ee6:	e42a      	b.n	800373e <HAL_RCCEx_PeriphCLKConfig+0x3a>
 8003ee8:	4980      	ldr	r1, [pc, #512]	; (80040ec <HAL_RCCEx_PeriphCLKConfig+0x9e8>)
 8003eea:	6aca      	ldr	r2, [r1, #44]	; 0x2c
 8003eec:	f442 3200 	orr.w	r2, r2, #131072	; 0x20000
 8003ef0:	62ca      	str	r2, [r1, #44]	; 0x2c
 8003ef2:	e497      	b.n	8003824 <HAL_RCCEx_PeriphCLKConfig+0x120>
 8003ef4:	462e      	mov	r6, r5
 8003ef6:	e526      	b.n	8003946 <HAL_RCCEx_PeriphCLKConfig+0x242>
 8003ef8:	497c      	ldr	r1, [pc, #496]	; (80040ec <HAL_RCCEx_PeriphCLKConfig+0x9e8>)
 8003efa:	f8d4 0090 	ldr.w	r0, [r4, #144]	; 0x90
 8003efe:	6d8a      	ldr	r2, [r1, #88]	; 0x58
 8003f00:	f022 0207 	bic.w	r2, r2, #7
 8003f04:	4302      	orrs	r2, r0
 8003f06:	658a      	str	r2, [r1, #88]	; 0x58
 8003f08:	e5ee      	b.n	8003ae8 <HAL_RCCEx_PeriphCLKConfig+0x3e4>
 8003f0a:	4978      	ldr	r1, [pc, #480]	; (80040ec <HAL_RCCEx_PeriphCLKConfig+0x9e8>)
 8003f0c:	6f60      	ldr	r0, [r4, #116]	; 0x74
 8003f0e:	6d4a      	ldr	r2, [r1, #84]	; 0x54
 8003f10:	f022 0207 	bic.w	r2, r2, #7
 8003f14:	4302      	orrs	r2, r0
 8003f16:	654a      	str	r2, [r1, #84]	; 0x54
 8003f18:	e5cc      	b.n	8003ab4 <HAL_RCCEx_PeriphCLKConfig+0x3b0>
 8003f1a:	462e      	mov	r6, r5
 8003f1c:	e503      	b.n	8003926 <HAL_RCCEx_PeriphCLKConfig+0x222>
 8003f1e:	4973      	ldr	r1, [pc, #460]	; (80040ec <HAL_RCCEx_PeriphCLKConfig+0x9e8>)
 8003f20:	6c60      	ldr	r0, [r4, #68]	; 0x44
 8003f22:	6cca      	ldr	r2, [r1, #76]	; 0x4c
 8003f24:	f022 0203 	bic.w	r2, r2, #3
 8003f28:	4302      	orrs	r2, r0
 8003f2a:	64ca      	str	r2, [r1, #76]	; 0x4c
 8003f2c:	e56a      	b.n	8003a04 <HAL_RCCEx_PeriphCLKConfig+0x300>
 8003f2e:	462e      	mov	r6, r5
 8003f30:	e49e      	b.n	8003870 <HAL_RCCEx_PeriphCLKConfig+0x16c>
 8003f32:	462e      	mov	r6, r5
 8003f34:	e4d9      	b.n	80038ea <HAL_RCCEx_PeriphCLKConfig+0x1e6>
 8003f36:	462e      	mov	r6, r5
 8003f38:	e616      	b.n	8003b68 <HAL_RCCEx_PeriphCLKConfig+0x464>
 8003f3a:	462e      	mov	r6, r5
 8003f3c:	e634      	b.n	8003ba8 <HAL_RCCEx_PeriphCLKConfig+0x4a4>
 8003f3e:	462e      	mov	r6, r5
 8003f40:	e5f2      	b.n	8003b28 <HAL_RCCEx_PeriphCLKConfig+0x424>
 8003f42:	0358      	lsls	r0, r3, #13
 8003f44:	462e      	mov	r6, r5
 8003f46:	f57f ae6e 	bpl.w	8003c26 <HAL_RCCEx_PeriphCLKConfig+0x522>
 8003f4a:	e65c      	b.n	8003c06 <HAL_RCCEx_PeriphCLKConfig+0x502>
 8003f4c:	03d9      	lsls	r1, r3, #15
 8003f4e:	462e      	mov	r6, r5
 8003f50:	f57f ae83 	bpl.w	8003c5a <HAL_RCCEx_PeriphCLKConfig+0x556>
 8003f54:	e669      	b.n	8003c2a <HAL_RCCEx_PeriphCLKConfig+0x526>
 8003f56:	4965      	ldr	r1, [pc, #404]	; (80040ec <HAL_RCCEx_PeriphCLKConfig+0x9e8>)
 8003f58:	6fa0      	ldr	r0, [r4, #120]	; 0x78
 8003f5a:	6d4a      	ldr	r2, [r1, #84]	; 0x54
 8003f5c:	f022 0238 	bic.w	r2, r2, #56	; 0x38
 8003f60:	4302      	orrs	r2, r0
 8003f62:	654a      	str	r2, [r1, #84]	; 0x54
 8003f64:	e58d      	b.n	8003a82 <HAL_RCCEx_PeriphCLKConfig+0x37e>
 8003f66:	462e      	mov	r6, r5
 8003f68:	e677      	b.n	8003c5a <HAL_RCCEx_PeriphCLKConfig+0x556>
 8003f6a:	2102      	movs	r1, #2
 8003f6c:	1d20      	adds	r0, r4, #4
 8003f6e:	f7ff fad1 	bl	8003514 <RCCEx_PLL2_Config>
 8003f72:	4605      	mov	r5, r0
 8003f74:	6823      	ldr	r3, [r4, #0]
 8003f76:	2d00      	cmp	r5, #0
 8003f78:	d1d9      	bne.n	8003f2e <HAL_RCCEx_PeriphCLKConfig+0x82a>
 8003f7a:	e472      	b.n	8003862 <HAL_RCCEx_PeriphCLKConfig+0x15e>
 8003f7c:	495b      	ldr	r1, [pc, #364]	; (80040ec <HAL_RCCEx_PeriphCLKConfig+0x9e8>)
 8003f7e:	6aca      	ldr	r2, [r1, #44]	; 0x2c
 8003f80:	f442 3200 	orr.w	r2, r2, #131072	; 0x20000
 8003f84:	62ca      	str	r2, [r1, #44]	; 0x2c
 8003f86:	2d00      	cmp	r5, #0
 8003f88:	f47f ad3b 	bne.w	8003a02 <HAL_RCCEx_PeriphCLKConfig+0x2fe>
 8003f8c:	e7c7      	b.n	8003f1e <HAL_RCCEx_PeriphCLKConfig+0x81a>
 8003f8e:	2101      	movs	r1, #1
 8003f90:	f104 0024 	add.w	r0, r4, #36	; 0x24
 8003f94:	f7ff fb3a 	bl	800360c <RCCEx_PLL3_Config>
 8003f98:	4605      	mov	r5, r0
 8003f9a:	6823      	ldr	r3, [r4, #0]
 8003f9c:	2d00      	cmp	r5, #0
 8003f9e:	d1bc      	bne.n	8003f1a <HAL_RCCEx_PeriphCLKConfig+0x816>
 8003fa0:	e4b9      	b.n	8003916 <HAL_RCCEx_PeriphCLKConfig+0x212>
 8003fa2:	2102      	movs	r1, #2
 8003fa4:	f104 0024 	add.w	r0, r4, #36	; 0x24
 8003fa8:	f7ff fb30 	bl	800360c <RCCEx_PLL3_Config>
 8003fac:	4605      	mov	r5, r0
 8003fae:	6823      	ldr	r3, [r4, #0]
 8003fb0:	2d00      	cmp	r5, #0
 8003fb2:	d1c2      	bne.n	8003f3a <HAL_RCCEx_PeriphCLKConfig+0x836>
 8003fb4:	e5f0      	b.n	8003b98 <HAL_RCCEx_PeriphCLKConfig+0x494>
 8003fb6:	2102      	movs	r1, #2
 8003fb8:	f104 0024 	add.w	r0, r4, #36	; 0x24
 8003fbc:	f7ff fb26 	bl	800360c <RCCEx_PLL3_Config>
 8003fc0:	4605      	mov	r5, r0
 8003fc2:	6823      	ldr	r3, [r4, #0]
 8003fc4:	2d00      	cmp	r5, #0
 8003fc6:	d1b6      	bne.n	8003f36 <HAL_RCCEx_PeriphCLKConfig+0x832>
 8003fc8:	e5c6      	b.n	8003b58 <HAL_RCCEx_PeriphCLKConfig+0x454>
 8003fca:	4948      	ldr	r1, [pc, #288]	; (80040ec <HAL_RCCEx_PeriphCLKConfig+0x9e8>)
 8003fcc:	6aca      	ldr	r2, [r1, #44]	; 0x2c
 8003fce:	f442 3200 	orr.w	r2, r2, #131072	; 0x20000
 8003fd2:	62ca      	str	r2, [r1, #44]	; 0x2c
 8003fd4:	2d00      	cmp	r5, #0
 8003fd6:	d18d      	bne.n	8003ef4 <HAL_RCCEx_PeriphCLKConfig+0x7f0>
 8003fd8:	e6a9      	b.n	8003d2e <HAL_RCCEx_PeriphCLKConfig+0x62a>
 8003fda:	2102      	movs	r1, #2
 8003fdc:	f104 0024 	add.w	r0, r4, #36	; 0x24
 8003fe0:	f7ff fb14 	bl	800360c <RCCEx_PLL3_Config>
 8003fe4:	4605      	mov	r5, r0
 8003fe6:	6823      	ldr	r3, [r4, #0]
 8003fe8:	2d00      	cmp	r5, #0
 8003fea:	d1a8      	bne.n	8003f3e <HAL_RCCEx_PeriphCLKConfig+0x83a>
 8003fec:	e594      	b.n	8003b18 <HAL_RCCEx_PeriphCLKConfig+0x414>
 8003fee:	2101      	movs	r1, #1
 8003ff0:	f104 0024 	add.w	r0, r4, #36	; 0x24
 8003ff4:	f7ff fb0a 	bl	800360c <RCCEx_PLL3_Config>
 8003ff8:	4605      	mov	r5, r0
 8003ffa:	6823      	ldr	r3, [r4, #0]
 8003ffc:	2d00      	cmp	r5, #0
 8003ffe:	d198      	bne.n	8003f32 <HAL_RCCEx_PeriphCLKConfig+0x82e>
 8004000:	e46c      	b.n	80038dc <HAL_RCCEx_PeriphCLKConfig+0x1d8>
 8004002:	2102      	movs	r1, #2
 8004004:	f104 0024 	add.w	r0, r4, #36	; 0x24
 8004008:	f7ff fb00 	bl	800360c <RCCEx_PLL3_Config>
 800400c:	f8d4 1080 	ldr.w	r1, [r4, #128]	; 0x80
 8004010:	b100      	cbz	r0, 8004014 <HAL_RCCEx_PeriphCLKConfig+0x910>
 8004012:	2601      	movs	r6, #1
 8004014:	6823      	ldr	r3, [r4, #0]
 8004016:	e5cf      	b.n	8003bb8 <HAL_RCCEx_PeriphCLKConfig+0x4b4>
 8004018:	2100      	movs	r1, #0
 800401a:	f104 0024 	add.w	r0, r4, #36	; 0x24
 800401e:	f7ff faf5 	bl	800360c <RCCEx_PLL3_Config>
 8004022:	6823      	ldr	r3, [r4, #0]
 8004024:	4605      	mov	r5, r0
 8004026:	e439      	b.n	800389c <HAL_RCCEx_PeriphCLKConfig+0x198>
 8004028:	2100      	movs	r1, #0
 800402a:	f104 0024 	add.w	r0, r4, #36	; 0x24
 800402e:	f7ff faed 	bl	800360c <RCCEx_PLL3_Config>
 8004032:	6823      	ldr	r3, [r4, #0]
 8004034:	4605      	mov	r5, r0
 8004036:	f7ff bbb2 	b.w	800379e <HAL_RCCEx_PeriphCLKConfig+0x9a>
 800403a:	492c      	ldr	r1, [pc, #176]	; (80040ec <HAL_RCCEx_PeriphCLKConfig+0x9e8>)
 800403c:	4635      	mov	r5, r6
 800403e:	6aca      	ldr	r2, [r1, #44]	; 0x2c
 8004040:	f442 3200 	orr.w	r2, r2, #131072	; 0x20000
 8004044:	62ca      	str	r2, [r1, #44]	; 0x2c
 8004046:	e65e      	b.n	8003d06 <HAL_RCCEx_PeriphCLKConfig+0x602>
 8004048:	2100      	movs	r1, #0
 800404a:	1d20      	adds	r0, r4, #4
 800404c:	f7ff fa62 	bl	8003514 <RCCEx_PLL2_Config>
 8004050:	6823      	ldr	r3, [r4, #0]
 8004052:	4605      	mov	r5, r0
 8004054:	e657      	b.n	8003d06 <HAL_RCCEx_PeriphCLKConfig+0x602>
 8004056:	2100      	movs	r1, #0
 8004058:	f104 0024 	add.w	r0, r4, #36	; 0x24
 800405c:	f7ff fad6 	bl	800360c <RCCEx_PLL3_Config>
 8004060:	6823      	ldr	r3, [r4, #0]
 8004062:	4605      	mov	r5, r0
 8004064:	f7ff bbbc 	b.w	80037e0 <HAL_RCCEx_PeriphCLKConfig+0xdc>
 8004068:	2100      	movs	r1, #0
 800406a:	f104 0024 	add.w	r0, r4, #36	; 0x24
 800406e:	f7ff facd 	bl	800360c <RCCEx_PLL3_Config>
 8004072:	6823      	ldr	r3, [r4, #0]
 8004074:	4605      	mov	r5, r0
 8004076:	e646      	b.n	8003d06 <HAL_RCCEx_PeriphCLKConfig+0x602>
 8004078:	6823      	ldr	r3, [r4, #0]
 800407a:	f7ff bb67 	b.w	800374c <HAL_RCCEx_PeriphCLKConfig+0x48>
 800407e:	2100      	movs	r1, #0
 8004080:	f104 0024 	add.w	r0, r4, #36	; 0x24
 8004084:	f7ff fac2 	bl	800360c <RCCEx_PLL3_Config>
 8004088:	6823      	ldr	r3, [r4, #0]
 800408a:	4605      	mov	r5, r0
 800408c:	f7ff bbca 	b.w	8003824 <HAL_RCCEx_PeriphCLKConfig+0x120>
 8004090:	2102      	movs	r1, #2
 8004092:	3024      	adds	r0, #36	; 0x24
 8004094:	f7ff faba 	bl	800360c <RCCEx_PLL3_Config>
 8004098:	4606      	mov	r6, r0
 800409a:	2e00      	cmp	r6, #0
 800409c:	f43f ab4d 	beq.w	800373a <HAL_RCCEx_PeriphCLKConfig+0x36>
 80040a0:	e7ea      	b.n	8004078 <HAL_RCCEx_PeriphCLKConfig+0x974>
 80040a2:	2101      	movs	r1, #1
 80040a4:	1d20      	adds	r0, r4, #4
 80040a6:	f7ff fa35 	bl	8003514 <RCCEx_PLL2_Config>
 80040aa:	4605      	mov	r5, r0
 80040ac:	6823      	ldr	r3, [r4, #0]
 80040ae:	2d00      	cmp	r5, #0
 80040b0:	f47f acff 	bne.w	8003ab2 <HAL_RCCEx_PeriphCLKConfig+0x3ae>
 80040b4:	e729      	b.n	8003f0a <HAL_RCCEx_PeriphCLKConfig+0x806>
 80040b6:	2101      	movs	r1, #1
 80040b8:	1d20      	adds	r0, r4, #4
 80040ba:	f7ff fa2b 	bl	8003514 <RCCEx_PLL2_Config>
 80040be:	4605      	mov	r5, r0
 80040c0:	6823      	ldr	r3, [r4, #0]
 80040c2:	2d00      	cmp	r5, #0
 80040c4:	f47f ad0f 	bne.w	8003ae6 <HAL_RCCEx_PeriphCLKConfig+0x3e2>
 80040c8:	e716      	b.n	8003ef8 <HAL_RCCEx_PeriphCLKConfig+0x7f4>
 80040ca:	2101      	movs	r1, #1
 80040cc:	1d20      	adds	r0, r4, #4
 80040ce:	f7ff fa21 	bl	8003514 <RCCEx_PLL2_Config>
 80040d2:	4605      	mov	r5, r0
 80040d4:	6823      	ldr	r3, [r4, #0]
 80040d6:	2d00      	cmp	r5, #0
 80040d8:	f47f acd2 	bne.w	8003a80 <HAL_RCCEx_PeriphCLKConfig+0x37c>
 80040dc:	e73b      	b.n	8003f56 <HAL_RCCEx_PeriphCLKConfig+0x852>
 80040de:	2603      	movs	r6, #3
 80040e0:	6823      	ldr	r3, [r4, #0]
 80040e2:	4635      	mov	r5, r6
 80040e4:	e491      	b.n	8003a0a <HAL_RCCEx_PeriphCLKConfig+0x306>
 80040e6:	bf00      	nop
 80040e8:	58024800 	.word	0x58024800
 80040ec:	58024400 	.word	0x58024400
 80040f0:	492d      	ldr	r1, [pc, #180]	; (80041a8 <HAL_RCCEx_PeriphCLKConfig+0xaa4>)
 80040f2:	6aca      	ldr	r2, [r1, #44]	; 0x2c
 80040f4:	f442 3200 	orr.w	r2, r2, #131072	; 0x20000
 80040f8:	62ca      	str	r2, [r1, #44]	; 0x2c
 80040fa:	2d00      	cmp	r5, #0
 80040fc:	f47f af33 	bne.w	8003f66 <HAL_RCCEx_PeriphCLKConfig+0x862>
 8004100:	e5a4      	b.n	8003c4c <HAL_RCCEx_PeriphCLKConfig+0x548>
 8004102:	4829      	ldr	r0, [pc, #164]	; (80041a8 <HAL_RCCEx_PeriphCLKConfig+0xaa4>)
 8004104:	6ac1      	ldr	r1, [r0, #44]	; 0x2c
 8004106:	f441 3100 	orr.w	r1, r1, #131072	; 0x20000
 800410a:	62c1      	str	r1, [r0, #44]	; 0x2c
 800410c:	2d00      	cmp	r5, #0
 800410e:	f47f adf4 	bne.w	8003cfa <HAL_RCCEx_PeriphCLKConfig+0x5f6>
 8004112:	e625      	b.n	8003d60 <HAL_RCCEx_PeriphCLKConfig+0x65c>
 8004114:	1d20      	adds	r0, r4, #4
 8004116:	f7ff f9fd 	bl	8003514 <RCCEx_PLL2_Config>
 800411a:	4605      	mov	r5, r0
 800411c:	6823      	ldr	r3, [r4, #0]
 800411e:	2d00      	cmp	r5, #0
 8004120:	f47f af0f 	bne.w	8003f42 <HAL_RCCEx_PeriphCLKConfig+0x83e>
 8004124:	e660      	b.n	8003de8 <HAL_RCCEx_PeriphCLKConfig+0x6e4>
 8004126:	4920      	ldr	r1, [pc, #128]	; (80041a8 <HAL_RCCEx_PeriphCLKConfig+0xaa4>)
 8004128:	6aca      	ldr	r2, [r1, #44]	; 0x2c
 800412a:	f442 3200 	orr.w	r2, r2, #131072	; 0x20000
 800412e:	62ca      	str	r2, [r1, #44]	; 0x2c
 8004130:	2d00      	cmp	r5, #0
 8004132:	f47f af0b 	bne.w	8003f4c <HAL_RCCEx_PeriphCLKConfig+0x848>
 8004136:	e641      	b.n	8003dbc <HAL_RCCEx_PeriphCLKConfig+0x6b8>
 8004138:	2102      	movs	r1, #2
 800413a:	f104 0024 	add.w	r0, r4, #36	; 0x24
 800413e:	f7ff fa65 	bl	800360c <RCCEx_PLL3_Config>
 8004142:	f8d4 1094 	ldr.w	r1, [r4, #148]	; 0x94
 8004146:	b100      	cbz	r0, 800414a <HAL_RCCEx_PeriphCLKConfig+0xa46>
 8004148:	2601      	movs	r6, #1
 800414a:	6823      	ldr	r3, [r4, #0]
 800414c:	e542      	b.n	8003bd4 <HAL_RCCEx_PeriphCLKConfig+0x4d0>
 800414e:	f7fd fa3b 	bl	80015c8 <HAL_GetTick>
 8004152:	f8df 8054 	ldr.w	r8, [pc, #84]	; 80041a8 <HAL_RCCEx_PeriphCLKConfig+0xaa4>
 8004156:	f241 3988 	movw	r9, #5000	; 0x1388
 800415a:	4607      	mov	r7, r0
 800415c:	e004      	b.n	8004168 <HAL_RCCEx_PeriphCLKConfig+0xa64>
 800415e:	f7fd fa33 	bl	80015c8 <HAL_GetTick>
 8004162:	1bc0      	subs	r0, r0, r7
 8004164:	4548      	cmp	r0, r9
 8004166:	d8ba      	bhi.n	80040de <HAL_RCCEx_PeriphCLKConfig+0x9da>
 8004168:	f8d8 3070 	ldr.w	r3, [r8, #112]	; 0x70
 800416c:	079b      	lsls	r3, r3, #30
 800416e:	d5f6      	bpl.n	800415e <HAL_RCCEx_PeriphCLKConfig+0xa5a>
 8004170:	f8d4 30b0 	ldr.w	r3, [r4, #176]	; 0xb0
 8004174:	e680      	b.n	8003e78 <HAL_RCCEx_PeriphCLKConfig+0x774>
 8004176:	480c      	ldr	r0, [pc, #48]	; (80041a8 <HAL_RCCEx_PeriphCLKConfig+0xaa4>)
 8004178:	4a0c      	ldr	r2, [pc, #48]	; (80041ac <HAL_RCCEx_PeriphCLKConfig+0xaa8>)
 800417a:	6901      	ldr	r1, [r0, #16]
 800417c:	ea02 1213 	and.w	r2, r2, r3, lsr #4
 8004180:	f421 517c 	bic.w	r1, r1, #16128	; 0x3f00
 8004184:	430a      	orrs	r2, r1
 8004186:	6102      	str	r2, [r0, #16]
 8004188:	e681      	b.n	8003e8e <HAL_RCCEx_PeriphCLKConfig+0x78a>
 800418a:	6823      	ldr	r3, [r4, #0]
 800418c:	462e      	mov	r6, r5
 800418e:	e43c      	b.n	8003a0a <HAL_RCCEx_PeriphCLKConfig+0x306>
 8004190:	2601      	movs	r6, #1
 8004192:	f7ff baef 	b.w	8003774 <HAL_RCCEx_PeriphCLKConfig+0x70>
 8004196:	2601      	movs	r6, #1
 8004198:	4635      	mov	r5, r6
 800419a:	e48b      	b.n	8003ab4 <HAL_RCCEx_PeriphCLKConfig+0x3b0>
 800419c:	2601      	movs	r6, #1
 800419e:	4635      	mov	r5, r6
 80041a0:	e430      	b.n	8003a04 <HAL_RCCEx_PeriphCLKConfig+0x300>
 80041a2:	2601      	movs	r6, #1
 80041a4:	4635      	mov	r5, r6
 80041a6:	e49f      	b.n	8003ae8 <HAL_RCCEx_PeriphCLKConfig+0x3e4>
 80041a8:	58024400 	.word	0x58024400
 80041ac:	00ffffcf 	.word	0x00ffffcf

080041b0 <HAL_RCCEx_GetPLL2ClockFreq>:
 80041b0:	4b4f      	ldr	r3, [pc, #316]	; (80042f0 <HAL_RCCEx_GetPLL2ClockFreq+0x140>)
 80041b2:	b470      	push	{r4, r5, r6}
 80041b4:	6a99      	ldr	r1, [r3, #40]	; 0x28
 80041b6:	6a9d      	ldr	r5, [r3, #40]	; 0x28
 80041b8:	6adc      	ldr	r4, [r3, #44]	; 0x2c
 80041ba:	f415 3f7c 	tst.w	r5, #258048	; 0x3f000
 80041be:	f3c5 3205 	ubfx	r2, r5, #12, #6
 80041c2:	6bde      	ldr	r6, [r3, #60]	; 0x3c
 80041c4:	d05c      	beq.n	8004280 <HAL_RCCEx_GetPLL2ClockFreq+0xd0>
 80041c6:	f3c6 06cc 	ubfx	r6, r6, #3, #13
 80041ca:	f3c4 1400 	ubfx	r4, r4, #4, #1
 80041ce:	f001 0103 	and.w	r1, r1, #3
 80041d2:	fb04 f406 	mul.w	r4, r4, r6
 80041d6:	2901      	cmp	r1, #1
 80041d8:	ee07 4a90 	vmov	s15, r4
 80041dc:	eeb8 7ae7 	vcvt.f32.s32	s14, s15
 80041e0:	d003      	beq.n	80041ea <HAL_RCCEx_GetPLL2ClockFreq+0x3a>
 80041e2:	2902      	cmp	r1, #2
 80041e4:	d075      	beq.n	80042d2 <HAL_RCCEx_GetPLL2ClockFreq+0x122>
 80041e6:	2900      	cmp	r1, #0
 80041e8:	d04f      	beq.n	800428a <HAL_RCCEx_GetPLL2ClockFreq+0xda>
 80041ea:	ee07 2a90 	vmov	s15, r2
 80041ee:	eddf 6a41 	vldr	s13, [pc, #260]	; 80042f4 <HAL_RCCEx_GetPLL2ClockFreq+0x144>
 80041f2:	eef8 7ae7 	vcvt.f32.s32	s15, s15
 80041f6:	6b9b      	ldr	r3, [r3, #56]	; 0x38
 80041f8:	ee86 6aa7 	vdiv.f32	s12, s13, s15
 80041fc:	eddf 5a3e 	vldr	s11, [pc, #248]	; 80042f8 <HAL_RCCEx_GetPLL2ClockFreq+0x148>
 8004200:	f3c3 0308 	ubfx	r3, r3, #0, #9
 8004204:	ee06 3a90 	vmov	s13, r3
 8004208:	eeb7 5a00 	vmov.f32	s10, #112	; 0x3f800000  1.0
 800420c:	eef8 6ae6 	vcvt.f32.s32	s13, s13
 8004210:	ee76 6a85 	vadd.f32	s13, s13, s10
 8004214:	eee7 6a25 	vfma.f32	s13, s14, s11
 8004218:	ee66 6a26 	vmul.f32	s13, s12, s13
 800421c:	4a34      	ldr	r2, [pc, #208]	; (80042f0 <HAL_RCCEx_GetPLL2ClockFreq+0x140>)
 800421e:	eeb7 6a00 	vmov.f32	s12, #112	; 0x3f800000  1.0
 8004222:	6b93      	ldr	r3, [r2, #56]	; 0x38
 8004224:	f3c3 2346 	ubfx	r3, r3, #9, #7
 8004228:	ee07 3a10 	vmov	s14, r3
 800422c:	eeb8 7ac7 	vcvt.f32.s32	s14, s14
 8004230:	bc70      	pop	{r4, r5, r6}
 8004232:	ee37 7a06 	vadd.f32	s14, s14, s12
 8004236:	eec6 7a87 	vdiv.f32	s15, s13, s14
 800423a:	eefc 7ae7 	vcvt.u32.f32	s15, s15
 800423e:	edc0 7a00 	vstr	s15, [r0]
 8004242:	6b93      	ldr	r3, [r2, #56]	; 0x38
 8004244:	f3c3 4306 	ubfx	r3, r3, #16, #7
 8004248:	ee07 3a10 	vmov	s14, r3
 800424c:	eeb8 7ac7 	vcvt.f32.s32	s14, s14
 8004250:	ee37 7a06 	vadd.f32	s14, s14, s12
 8004254:	eec6 7a87 	vdiv.f32	s15, s13, s14
 8004258:	eefc 7ae7 	vcvt.u32.f32	s15, s15
 800425c:	edc0 7a01 	vstr	s15, [r0, #4]
 8004260:	6b93      	ldr	r3, [r2, #56]	; 0x38
 8004262:	f3c3 6306 	ubfx	r3, r3, #24, #7
 8004266:	ee07 3a90 	vmov	s15, r3
 800426a:	eef8 7ae7 	vcvt.f32.s32	s15, s15
 800426e:	ee77 7a86 	vadd.f32	s15, s15, s12
 8004272:	ee86 7aa7 	vdiv.f32	s14, s13, s15
 8004276:	eebc 7ac7 	vcvt.u32.f32	s14, s14
 800427a:	ed80 7a02 	vstr	s14, [r0, #8]
 800427e:	4770      	bx	lr
 8004280:	bc70      	pop	{r4, r5, r6}
 8004282:	e9c0 2200 	strd	r2, r2, [r0]
 8004286:	6082      	str	r2, [r0, #8]
 8004288:	4770      	bx	lr
 800428a:	6819      	ldr	r1, [r3, #0]
 800428c:	0689      	lsls	r1, r1, #26
 800428e:	d527      	bpl.n	80042e0 <HAL_RCCEx_GetPLL2ClockFreq+0x130>
 8004290:	6819      	ldr	r1, [r3, #0]
 8004292:	ee07 2a90 	vmov	s15, r2
 8004296:	4a19      	ldr	r2, [pc, #100]	; (80042fc <HAL_RCCEx_GetPLL2ClockFreq+0x14c>)
 8004298:	eef7 4a00 	vmov.f32	s9, #112	; 0x3f800000  1.0
 800429c:	f3c1 01c1 	ubfx	r1, r1, #3, #2
 80042a0:	eef8 7ae7 	vcvt.f32.s32	s15, s15
 80042a4:	6b9b      	ldr	r3, [r3, #56]	; 0x38
 80042a6:	40ca      	lsrs	r2, r1
 80042a8:	ed9f 5a13 	vldr	s10, [pc, #76]	; 80042f8 <HAL_RCCEx_GetPLL2ClockFreq+0x148>
 80042ac:	f3c3 0308 	ubfx	r3, r3, #0, #9
 80042b0:	ee06 2a10 	vmov	s12, r2
 80042b4:	ee06 3a90 	vmov	s13, r3
 80042b8:	eef8 5ac6 	vcvt.f32.s32	s11, s12
 80042bc:	eef8 6ae6 	vcvt.f32.s32	s13, s13
 80042c0:	ee85 6aa7 	vdiv.f32	s12, s11, s15
 80042c4:	ee76 6aa4 	vadd.f32	s13, s13, s9
 80042c8:	eee7 6a05 	vfma.f32	s13, s14, s10
 80042cc:	ee66 6a26 	vmul.f32	s13, s12, s13
 80042d0:	e7a4      	b.n	800421c <HAL_RCCEx_GetPLL2ClockFreq+0x6c>
 80042d2:	ee07 2a90 	vmov	s15, r2
 80042d6:	eddf 6a0a 	vldr	s13, [pc, #40]	; 8004300 <HAL_RCCEx_GetPLL2ClockFreq+0x150>
 80042da:	eef8 7ae7 	vcvt.f32.s32	s15, s15
 80042de:	e78a      	b.n	80041f6 <HAL_RCCEx_GetPLL2ClockFreq+0x46>
 80042e0:	ee07 2a90 	vmov	s15, r2
 80042e4:	eddf 6a07 	vldr	s13, [pc, #28]	; 8004304 <HAL_RCCEx_GetPLL2ClockFreq+0x154>
 80042e8:	eef8 7ae7 	vcvt.f32.s32	s15, s15
 80042ec:	e783      	b.n	80041f6 <HAL_RCCEx_GetPLL2ClockFreq+0x46>
 80042ee:	bf00      	nop
 80042f0:	58024400 	.word	0x58024400
 80042f4:	4a742400 	.word	0x4a742400
 80042f8:	39000000 	.word	0x39000000
 80042fc:	03d09000 	.word	0x03d09000
 8004300:	4bbebc20 	.word	0x4bbebc20
 8004304:	4c742400 	.word	0x4c742400

08004308 <HAL_RCCEx_GetPLL3ClockFreq>:
 8004308:	4b4f      	ldr	r3, [pc, #316]	; (8004448 <HAL_RCCEx_GetPLL3ClockFreq+0x140>)
 800430a:	b470      	push	{r4, r5, r6}
 800430c:	6a99      	ldr	r1, [r3, #40]	; 0x28
 800430e:	6a9d      	ldr	r5, [r3, #40]	; 0x28
 8004310:	6adc      	ldr	r4, [r3, #44]	; 0x2c
 8004312:	f015 7f7c 	tst.w	r5, #66060288	; 0x3f00000
 8004316:	f3c5 5205 	ubfx	r2, r5, #20, #6
 800431a:	6c5e      	ldr	r6, [r3, #68]	; 0x44
 800431c:	d05c      	beq.n	80043d8 <HAL_RCCEx_GetPLL3ClockFreq+0xd0>
 800431e:	f3c6 06cc 	ubfx	r6, r6, #3, #13
 8004322:	f3c4 2400 	ubfx	r4, r4, #8, #1
 8004326:	f001 0103 	and.w	r1, r1, #3
 800432a:	fb04 f406 	mul.w	r4, r4, r6
 800432e:	2901      	cmp	r1, #1
 8004330:	ee07 4a90 	vmov	s15, r4
 8004334:	eeb8 7ae7 	vcvt.f32.s32	s14, s15
 8004338:	d003      	beq.n	8004342 <HAL_RCCEx_GetPLL3ClockFreq+0x3a>
 800433a:	2902      	cmp	r1, #2
 800433c:	d075      	beq.n	800442a <HAL_RCCEx_GetPLL3ClockFreq+0x122>
 800433e:	2900      	cmp	r1, #0
 8004340:	d04f      	beq.n	80043e2 <HAL_RCCEx_GetPLL3ClockFreq+0xda>
 8004342:	ee07 2a90 	vmov	s15, r2
 8004346:	eddf 6a41 	vldr	s13, [pc, #260]	; 800444c <HAL_RCCEx_GetPLL3ClockFreq+0x144>
 800434a:	eef8 7ae7 	vcvt.f32.s32	s15, s15
 800434e:	6c1b      	ldr	r3, [r3, #64]	; 0x40
 8004350:	ee86 6aa7 	vdiv.f32	s12, s13, s15
 8004354:	eddf 5a3e 	vldr	s11, [pc, #248]	; 8004450 <HAL_RCCEx_GetPLL3ClockFreq+0x148>
 8004358:	f3c3 0308 	ubfx	r3, r3, #0, #9
 800435c:	ee06 3a90 	vmov	s13, r3
 8004360:	eeb7 5a00 	vmov.f32	s10, #112	; 0x3f800000  1.0
 8004364:	eef8 6ae6 	vcvt.f32.s32	s13, s13
 8004368:	ee76 6a85 	vadd.f32	s13, s13, s10
 800436c:	eee7 6a25 	vfma.f32	s13, s14, s11
 8004370:	ee66 6a26 	vmul.f32	s13, s12, s13
 8004374:	4a34      	ldr	r2, [pc, #208]	; (8004448 <HAL_RCCEx_GetPLL3ClockFreq+0x140>)
 8004376:	eeb7 6a00 	vmov.f32	s12, #112	; 0x3f800000  1.0
 800437a:	6c13      	ldr	r3, [r2, #64]	; 0x40
 800437c:	f3c3 2346 	ubfx	r3, r3, #9, #7
 8004380:	ee07 3a10 	vmov	s14, r3
 8004384:	eeb8 7ac7 	vcvt.f32.s32	s14, s14
 8004388:	bc70      	pop	{r4, r5, r6}
 800438a:	ee37 7a06 	vadd.f32	s14, s14, s12
 800438e:	eec6 7a87 	vdiv.f32	s15, s13, s14
 8004392:	eefc 7ae7 	vcvt.u32.f32	s15, s15
 8004396:	edc0 7a00 	vstr	s15, [r0]
 800439a:	6c13      	ldr	r3, [r2, #64]	; 0x40
 800439c:	f3c3 4306 	ubfx	r3, r3, #16, #7
 80043a0:	ee07 3a10 	vmov	s14, r3
 80043a4:	eeb8 7ac7 	vcvt.f32.s32	s14, s14
 80043a8:	ee37 7a06 	vadd.f32	s14, s14, s12
 80043ac:	eec6 7a87 	vdiv.f32	s15, s13, s14
 80043b0:	eefc 7ae7 	vcvt.u32.f32	s15, s15
 80043b4:	edc0 7a01 	vstr	s15, [r0, #4]
 80043b8:	6c13      	ldr	r3, [r2, #64]	; 0x40
 80043ba:	f3c3 6306 	ubfx	r3, r3, #24, #7
 80043be:	ee07 3a90 	vmov	s15, r3
 80043c2:	eef8 7ae7 	vcvt.f32.s32	s15, s15
 80043c6:	ee77 7a86 	vadd.f32	s15, s15, s12
 80043ca:	ee86 7aa7 	vdiv.f32	s14, s13, s15
 80043ce:	eebc 7ac7 	vcvt.u32.f32	s14, s14
 80043d2:	ed80 7a02 	vstr	s14, [r0, #8]
 80043d6:	4770      	bx	lr
 80043d8:	bc70      	pop	{r4, r5, r6}
 80043da:	e9c0 2200 	strd	r2, r2, [r0]
 80043de:	6082      	str	r2, [r0, #8]
 80043e0:	4770      	bx	lr
 80043e2:	6819      	ldr	r1, [r3, #0]
 80043e4:	0689      	lsls	r1, r1, #26
 80043e6:	d527      	bpl.n	8004438 <HAL_RCCEx_GetPLL3ClockFreq+0x130>
 80043e8:	6819      	ldr	r1, [r3, #0]
 80043ea:	ee07 2a90 	vmov	s15, r2
 80043ee:	4a19      	ldr	r2, [pc, #100]	; (8004454 <HAL_RCCEx_GetPLL3ClockFreq+0x14c>)
 80043f0:	eef7 4a00 	vmov.f32	s9, #112	; 0x3f800000  1.0
 80043f4:	f3c1 01c1 	ubfx	r1, r1, #3, #2
 80043f8:	eef8 7ae7 	vcvt.f32.s32	s15, s15
 80043fc:	6c1b      	ldr	r3, [r3, #64]	; 0x40
 80043fe:	40ca      	lsrs	r2, r1
 8004400:	ed9f 5a13 	vldr	s10, [pc, #76]	; 8004450 <HAL_RCCEx_GetPLL3ClockFreq+0x148>
 8004404:	f3c3 0308 	ubfx	r3, r3, #0, #9
 8004408:	ee06 2a10 	vmov	s12, r2
 800440c:	ee06 3a90 	vmov	s13, r3
 8004410:	eef8 5ac6 	vcvt.f32.s32	s11, s12
 8004414:	eef8 6ae6 	vcvt.f32.s32	s13, s13
 8004418:	ee85 6aa7 	vdiv.f32	s12, s11, s15
 800441c:	ee76 6aa4 	vadd.f32	s13, s13, s9
 8004420:	eee7 6a05 	vfma.f32	s13, s14, s10
 8004424:	ee66 6a26 	vmul.f32	s13, s12, s13
 8004428:	e7a4      	b.n	8004374 <HAL_RCCEx_GetPLL3ClockFreq+0x6c>
 800442a:	ee07 2a90 	vmov	s15, r2
 800442e:	eddf 6a0a 	vldr	s13, [pc, #40]	; 8004458 <HAL_RCCEx_GetPLL3ClockFreq+0x150>
 8004432:	eef8 7ae7 	vcvt.f32.s32	s15, s15
 8004436:	e78a      	b.n	800434e <HAL_RCCEx_GetPLL3ClockFreq+0x46>
 8004438:	ee07 2a90 	vmov	s15, r2
 800443c:	eddf 6a07 	vldr	s13, [pc, #28]	; 800445c <HAL_RCCEx_GetPLL3ClockFreq+0x154>
 8004440:	eef8 7ae7 	vcvt.f32.s32	s15, s15
 8004444:	e783      	b.n	800434e <HAL_RCCEx_GetPLL3ClockFreq+0x46>
 8004446:	bf00      	nop
 8004448:	58024400 	.word	0x58024400
 800444c:	4a742400 	.word	0x4a742400
 8004450:	39000000 	.word	0x39000000
 8004454:	03d09000 	.word	0x03d09000
 8004458:	4bbebc20 	.word	0x4bbebc20
 800445c:	4c742400 	.word	0x4c742400

08004460 <HAL_RCCEx_GetPLL1ClockFreq>:
 8004460:	4b4f      	ldr	r3, [pc, #316]	; (80045a0 <HAL_RCCEx_GetPLL1ClockFreq+0x140>)
 8004462:	b470      	push	{r4, r5, r6}
 8004464:	6a99      	ldr	r1, [r3, #40]	; 0x28
 8004466:	6a9d      	ldr	r5, [r3, #40]	; 0x28
 8004468:	6adc      	ldr	r4, [r3, #44]	; 0x2c
 800446a:	f415 7f7c 	tst.w	r5, #1008	; 0x3f0
 800446e:	f3c5 1205 	ubfx	r2, r5, #4, #6
 8004472:	6b5e      	ldr	r6, [r3, #52]	; 0x34
 8004474:	d05c      	beq.n	8004530 <HAL_RCCEx_GetPLL1ClockFreq+0xd0>
 8004476:	f3c6 06cc 	ubfx	r6, r6, #3, #13
 800447a:	f004 0401 	and.w	r4, r4, #1
 800447e:	f001 0103 	and.w	r1, r1, #3
 8004482:	fb04 f406 	mul.w	r4, r4, r6
 8004486:	2901      	cmp	r1, #1
 8004488:	ee07 4a90 	vmov	s15, r4
 800448c:	eeb8 7ae7 	vcvt.f32.s32	s14, s15
 8004490:	d07e      	beq.n	8004590 <HAL_RCCEx_GetPLL1ClockFreq+0x130>
 8004492:	2902      	cmp	r1, #2
 8004494:	d075      	beq.n	8004582 <HAL_RCCEx_GetPLL1ClockFreq+0x122>
 8004496:	2900      	cmp	r1, #0
 8004498:	d04f      	beq.n	800453a <HAL_RCCEx_GetPLL1ClockFreq+0xda>
 800449a:	ee07 2a90 	vmov	s15, r2
 800449e:	eddf 6a41 	vldr	s13, [pc, #260]	; 80045a4 <HAL_RCCEx_GetPLL1ClockFreq+0x144>
 80044a2:	eef8 7ae7 	vcvt.f32.s32	s15, s15
 80044a6:	6b1b      	ldr	r3, [r3, #48]	; 0x30
 80044a8:	ee86 6aa7 	vdiv.f32	s12, s13, s15
 80044ac:	eddf 5a3e 	vldr	s11, [pc, #248]	; 80045a8 <HAL_RCCEx_GetPLL1ClockFreq+0x148>
 80044b0:	f3c3 0308 	ubfx	r3, r3, #0, #9
 80044b4:	ee06 3a90 	vmov	s13, r3
 80044b8:	eeb7 5a00 	vmov.f32	s10, #112	; 0x3f800000  1.0
 80044bc:	eef8 6ae6 	vcvt.f32.s32	s13, s13
 80044c0:	ee76 6a85 	vadd.f32	s13, s13, s10
 80044c4:	eee7 6a25 	vfma.f32	s13, s14, s11
 80044c8:	ee66 6a26 	vmul.f32	s13, s12, s13
 80044cc:	4a34      	ldr	r2, [pc, #208]	; (80045a0 <HAL_RCCEx_GetPLL1ClockFreq+0x140>)
 80044ce:	eeb7 6a00 	vmov.f32	s12, #112	; 0x3f800000  1.0
 80044d2:	6b13      	ldr	r3, [r2, #48]	; 0x30
 80044d4:	f3c3 2346 	ubfx	r3, r3, #9, #7
 80044d8:	ee07 3a10 	vmov	s14, r3
 80044dc:	eeb8 7ac7 	vcvt.f32.s32	s14, s14
 80044e0:	bc70      	pop	{r4, r5, r6}
 80044e2:	ee37 7a06 	vadd.f32	s14, s14, s12
 80044e6:	eec6 7a87 	vdiv.f32	s15, s13, s14
 80044ea:	eefc 7ae7 	vcvt.u32.f32	s15, s15
 80044ee:	edc0 7a00 	vstr	s15, [r0]
 80044f2:	6b13      	ldr	r3, [r2, #48]	; 0x30
 80044f4:	f3c3 4306 	ubfx	r3, r3, #16, #7
 80044f8:	ee07 3a10 	vmov	s14, r3
 80044fc:	eeb8 7ac7 	vcvt.f32.s32	s14, s14
 8004500:	ee37 7a06 	vadd.f32	s14, s14, s12
 8004504:	eec6 7a87 	vdiv.f32	s15, s13, s14
 8004508:	eefc 7ae7 	vcvt.u32.f32	s15, s15
 800450c:	edc0 7a01 	vstr	s15, [r0, #4]
 8004510:	6b13      	ldr	r3, [r2, #48]	; 0x30
 8004512:	f3c3 6306 	ubfx	r3, r3, #24, #7
 8004516:	ee07 3a90 	vmov	s15, r3
 800451a:	eef8 7ae7 	vcvt.f32.s32	s15, s15
 800451e:	ee77 7a86 	vadd.f32	s15, s15, s12
 8004522:	ee86 7aa7 	vdiv.f32	s14, s13, s15
 8004526:	eebc 7ac7 	vcvt.u32.f32	s14, s14
 800452a:	ed80 7a02 	vstr	s14, [r0, #8]
 800452e:	4770      	bx	lr
 8004530:	bc70      	pop	{r4, r5, r6}
 8004532:	e9c0 2200 	strd	r2, r2, [r0]
 8004536:	6082      	str	r2, [r0, #8]
 8004538:	4770      	bx	lr
 800453a:	6819      	ldr	r1, [r3, #0]
 800453c:	0689      	lsls	r1, r1, #26
 800453e:	d5ac      	bpl.n	800449a <HAL_RCCEx_GetPLL1ClockFreq+0x3a>
 8004540:	6819      	ldr	r1, [r3, #0]
 8004542:	ee07 2a90 	vmov	s15, r2
 8004546:	4a19      	ldr	r2, [pc, #100]	; (80045ac <HAL_RCCEx_GetPLL1ClockFreq+0x14c>)
 8004548:	eef7 4a00 	vmov.f32	s9, #112	; 0x3f800000  1.0
 800454c:	f3c1 01c1 	ubfx	r1, r1, #3, #2
 8004550:	eef8 7ae7 	vcvt.f32.s32	s15, s15
 8004554:	6b1b      	ldr	r3, [r3, #48]	; 0x30
 8004556:	40ca      	lsrs	r2, r1
 8004558:	ed9f 5a13 	vldr	s10, [pc, #76]	; 80045a8 <HAL_RCCEx_GetPLL1ClockFreq+0x148>
 800455c:	f3c3 0308 	ubfx	r3, r3, #0, #9
 8004560:	ee06 2a10 	vmov	s12, r2
 8004564:	ee06 3a90 	vmov	s13, r3
 8004568:	eef8 5ac6 	vcvt.f32.s32	s11, s12
 800456c:	eef8 6ae6 	vcvt.f32.s32	s13, s13
 8004570:	ee85 6aa7 	vdiv.f32	s12, s11, s15
 8004574:	ee76 6aa4 	vadd.f32	s13, s13, s9
 8004578:	eee7 6a05 	vfma.f32	s13, s14, s10
 800457c:	ee66 6a26 	vmul.f32	s13, s12, s13
 8004580:	e7a4      	b.n	80044cc <HAL_RCCEx_GetPLL1ClockFreq+0x6c>
 8004582:	ee07 2a90 	vmov	s15, r2
 8004586:	eddf 6a0a 	vldr	s13, [pc, #40]	; 80045b0 <HAL_RCCEx_GetPLL1ClockFreq+0x150>
 800458a:	eef8 7ae7 	vcvt.f32.s32	s15, s15
 800458e:	e78a      	b.n	80044a6 <HAL_RCCEx_GetPLL1ClockFreq+0x46>
 8004590:	ee07 2a90 	vmov	s15, r2
 8004594:	eddf 6a07 	vldr	s13, [pc, #28]	; 80045b4 <HAL_RCCEx_GetPLL1ClockFreq+0x154>
 8004598:	eef8 7ae7 	vcvt.f32.s32	s15, s15
 800459c:	e783      	b.n	80044a6 <HAL_RCCEx_GetPLL1ClockFreq+0x46>
 800459e:	bf00      	nop
 80045a0:	58024400 	.word	0x58024400
 80045a4:	4c742400 	.word	0x4c742400
 80045a8:	39000000 	.word	0x39000000
 80045ac:	03d09000 	.word	0x03d09000
 80045b0:	4bbebc20 	.word	0x4bbebc20
 80045b4:	4a742400 	.word	0x4a742400

080045b8 <HAL_RCCEx_GetPeriphCLKFreq>:
 80045b8:	f5b0 7f80 	cmp.w	r0, #256	; 0x100
 80045bc:	b500      	push	{lr}
 80045be:	b085      	sub	sp, #20
 80045c0:	d077      	beq.n	80046b2 <HAL_RCCEx_GetPeriphCLKFreq+0xfa>
 80045c2:	f5b0 7f00 	cmp.w	r0, #512	; 0x200
 80045c6:	d02e      	beq.n	8004626 <HAL_RCCEx_GetPeriphCLKFreq+0x6e>
 80045c8:	f5b0 6f80 	cmp.w	r0, #1024	; 0x400
 80045cc:	f000 80cf 	beq.w	800476e <HAL_RCCEx_GetPeriphCLKFreq+0x1b6>
 80045d0:	f5b0 6f00 	cmp.w	r0, #2048	; 0x800
 80045d4:	f000 8080 	beq.w	80046d8 <HAL_RCCEx_GetPeriphCLKFreq+0x120>
 80045d8:	f5b0 5f80 	cmp.w	r0, #4096	; 0x1000
 80045dc:	d05a      	beq.n	8004694 <HAL_RCCEx_GetPeriphCLKFreq+0xdc>
 80045de:	f5b0 2f00 	cmp.w	r0, #524288	; 0x80000
 80045e2:	f000 8105 	beq.w	80047f0 <HAL_RCCEx_GetPeriphCLKFreq+0x238>
 80045e6:	f5b0 3f80 	cmp.w	r0, #65536	; 0x10000
 80045ea:	f000 8110 	beq.w	800480e <HAL_RCCEx_GetPeriphCLKFreq+0x256>
 80045ee:	f5b0 4f80 	cmp.w	r0, #16384	; 0x4000
 80045f2:	f000 80e2 	beq.w	80047ba <HAL_RCCEx_GetPeriphCLKFreq+0x202>
 80045f6:	f5b0 4f00 	cmp.w	r0, #32768	; 0x8000
 80045fa:	d13a      	bne.n	8004672 <HAL_RCCEx_GetPeriphCLKFreq+0xba>
 80045fc:	4ba9      	ldr	r3, [pc, #676]	; (80048a4 <HAL_RCCEx_GetPeriphCLKFreq+0x2ec>)
 80045fe:	6d1b      	ldr	r3, [r3, #80]	; 0x50
 8004600:	f003 5340 	and.w	r3, r3, #805306368	; 0x30000000
 8004604:	f1b3 5f80 	cmp.w	r3, #268435456	; 0x10000000
 8004608:	f000 808e 	beq.w	8004728 <HAL_RCCEx_GetPeriphCLKFreq+0x170>
 800460c:	f1b3 5f00 	cmp.w	r3, #536870912	; 0x20000000
 8004610:	f000 812e 	beq.w	8004870 <HAL_RCCEx_GetPeriphCLKFreq+0x2b8>
 8004614:	bb6b      	cbnz	r3, 8004672 <HAL_RCCEx_GetPeriphCLKFreq+0xba>
 8004616:	4aa3      	ldr	r2, [pc, #652]	; (80048a4 <HAL_RCCEx_GetPeriphCLKFreq+0x2ec>)
 8004618:	4ba3      	ldr	r3, [pc, #652]	; (80048a8 <HAL_RCCEx_GetPeriphCLKFreq+0x2f0>)
 800461a:	6810      	ldr	r0, [r2, #0]
 800461c:	f410 3000 	ands.w	r0, r0, #131072	; 0x20000
 8004620:	bf18      	it	ne
 8004622:	4618      	movne	r0, r3
 8004624:	e042      	b.n	80046ac <HAL_RCCEx_GetPeriphCLKFreq+0xf4>
 8004626:	4a9f      	ldr	r2, [pc, #636]	; (80048a4 <HAL_RCCEx_GetPeriphCLKFreq+0x2ec>)
 8004628:	6d13      	ldr	r3, [r2, #80]	; 0x50
 800462a:	f403 73e0 	and.w	r3, r3, #448	; 0x1c0
 800462e:	2b80      	cmp	r3, #128	; 0x80
 8004630:	f000 8098 	beq.w	8004764 <HAL_RCCEx_GetPeriphCLKFreq+0x1ac>
 8004634:	d921      	bls.n	800467a <HAL_RCCEx_GetPeriphCLKFreq+0xc2>
 8004636:	2bc0      	cmp	r3, #192	; 0xc0
 8004638:	d037      	beq.n	80046aa <HAL_RCCEx_GetPeriphCLKFreq+0xf2>
 800463a:	f5b3 7f80 	cmp.w	r3, #256	; 0x100
 800463e:	d118      	bne.n	8004672 <HAL_RCCEx_GetPeriphCLKFreq+0xba>
 8004640:	6cd3      	ldr	r3, [r2, #76]	; 0x4c
 8004642:	6811      	ldr	r1, [r2, #0]
 8004644:	f003 5340 	and.w	r3, r3, #805306368	; 0x30000000
 8004648:	0749      	lsls	r1, r1, #29
 800464a:	d502      	bpl.n	8004652 <HAL_RCCEx_GetPeriphCLKFreq+0x9a>
 800464c:	2b00      	cmp	r3, #0
 800464e:	f000 80ae 	beq.w	80047ae <HAL_RCCEx_GetPeriphCLKFreq+0x1f6>
 8004652:	4a94      	ldr	r2, [pc, #592]	; (80048a4 <HAL_RCCEx_GetPeriphCLKFreq+0x2ec>)
 8004654:	6812      	ldr	r2, [r2, #0]
 8004656:	05d0      	lsls	r0, r2, #23
 8004658:	d503      	bpl.n	8004662 <HAL_RCCEx_GetPeriphCLKFreq+0xaa>
 800465a:	f1b3 5f80 	cmp.w	r3, #268435456	; 0x10000000
 800465e:	f000 80fb 	beq.w	8004858 <HAL_RCCEx_GetPeriphCLKFreq+0x2a0>
 8004662:	4a90      	ldr	r2, [pc, #576]	; (80048a4 <HAL_RCCEx_GetPeriphCLKFreq+0x2ec>)
 8004664:	6812      	ldr	r2, [r2, #0]
 8004666:	0391      	lsls	r1, r2, #14
 8004668:	d503      	bpl.n	8004672 <HAL_RCCEx_GetPeriphCLKFreq+0xba>
 800466a:	f1b3 5f00 	cmp.w	r3, #536870912	; 0x20000000
 800466e:	f000 80bd 	beq.w	80047ec <HAL_RCCEx_GetPeriphCLKFreq+0x234>
 8004672:	2000      	movs	r0, #0
 8004674:	b005      	add	sp, #20
 8004676:	f85d fb04 	ldr.w	pc, [sp], #4
 800467a:	2b00      	cmp	r3, #0
 800467c:	d04b      	beq.n	8004716 <HAL_RCCEx_GetPeriphCLKFreq+0x15e>
 800467e:	2b40      	cmp	r3, #64	; 0x40
 8004680:	d1f7      	bne.n	8004672 <HAL_RCCEx_GetPeriphCLKFreq+0xba>
 8004682:	6810      	ldr	r0, [r2, #0]
 8004684:	f010 6000 	ands.w	r0, r0, #134217728	; 0x8000000
 8004688:	d010      	beq.n	80046ac <HAL_RCCEx_GetPeriphCLKFreq+0xf4>
 800468a:	a801      	add	r0, sp, #4
 800468c:	f7ff fd90 	bl	80041b0 <HAL_RCCEx_GetPLL2ClockFreq>
 8004690:	9801      	ldr	r0, [sp, #4]
 8004692:	e00b      	b.n	80046ac <HAL_RCCEx_GetPeriphCLKFreq+0xf4>
 8004694:	4a83      	ldr	r2, [pc, #524]	; (80048a4 <HAL_RCCEx_GetPeriphCLKFreq+0x2ec>)
 8004696:	6d13      	ldr	r3, [r2, #80]	; 0x50
 8004698:	f403 43e0 	and.w	r3, r3, #28672	; 0x7000
 800469c:	f5b3 5f00 	cmp.w	r3, #8192	; 0x2000
 80046a0:	d060      	beq.n	8004764 <HAL_RCCEx_GetPeriphCLKFreq+0x1ac>
 80046a2:	d936      	bls.n	8004712 <HAL_RCCEx_GetPeriphCLKFreq+0x15a>
 80046a4:	f5b3 5f40 	cmp.w	r3, #12288	; 0x3000
 80046a8:	d178      	bne.n	800479c <HAL_RCCEx_GetPeriphCLKFreq+0x1e4>
 80046aa:	4880      	ldr	r0, [pc, #512]	; (80048ac <HAL_RCCEx_GetPeriphCLKFreq+0x2f4>)
 80046ac:	b005      	add	sp, #20
 80046ae:	f85d fb04 	ldr.w	pc, [sp], #4
 80046b2:	4b7c      	ldr	r3, [pc, #496]	; (80048a4 <HAL_RCCEx_GetPeriphCLKFreq+0x2ec>)
 80046b4:	6d1b      	ldr	r3, [r3, #80]	; 0x50
 80046b6:	f003 0307 	and.w	r3, r3, #7
 80046ba:	2b04      	cmp	r3, #4
 80046bc:	d8d9      	bhi.n	8004672 <HAL_RCCEx_GetPeriphCLKFreq+0xba>
 80046be:	a201      	add	r2, pc, #4	; (adr r2, 80046c4 <HAL_RCCEx_GetPeriphCLKFreq+0x10c>)
 80046c0:	f852 f023 	ldr.w	pc, [r2, r3, lsl #2]
 80046c4:	08004729 	.word	0x08004729
 80046c8:	0800474d 	.word	0x0800474d
 80046cc:	08004739 	.word	0x08004739
 80046d0:	080046ab 	.word	0x080046ab
 80046d4:	08004735 	.word	0x08004735
 80046d8:	4a72      	ldr	r2, [pc, #456]	; (80048a4 <HAL_RCCEx_GetPeriphCLKFreq+0x2ec>)
 80046da:	6d93      	ldr	r3, [r2, #88]	; 0x58
 80046dc:	f003 63e0 	and.w	r3, r3, #117440512	; 0x7000000
 80046e0:	f1b3 7f00 	cmp.w	r3, #33554432	; 0x2000000
 80046e4:	d03e      	beq.n	8004764 <HAL_RCCEx_GetPeriphCLKFreq+0x1ac>
 80046e6:	d937      	bls.n	8004758 <HAL_RCCEx_GetPeriphCLKFreq+0x1a0>
 80046e8:	f1b3 7f40 	cmp.w	r3, #50331648	; 0x3000000
 80046ec:	d0dd      	beq.n	80046aa <HAL_RCCEx_GetPeriphCLKFreq+0xf2>
 80046ee:	f1b3 6f80 	cmp.w	r3, #67108864	; 0x4000000
 80046f2:	d1be      	bne.n	8004672 <HAL_RCCEx_GetPeriphCLKFreq+0xba>
 80046f4:	6cd3      	ldr	r3, [r2, #76]	; 0x4c
 80046f6:	6812      	ldr	r2, [r2, #0]
 80046f8:	f003 5340 	and.w	r3, r3, #805306368	; 0x30000000
 80046fc:	0752      	lsls	r2, r2, #29
 80046fe:	d5a8      	bpl.n	8004652 <HAL_RCCEx_GetPeriphCLKFreq+0x9a>
 8004700:	2b00      	cmp	r3, #0
 8004702:	d1a6      	bne.n	8004652 <HAL_RCCEx_GetPeriphCLKFreq+0x9a>
 8004704:	4b67      	ldr	r3, [pc, #412]	; (80048a4 <HAL_RCCEx_GetPeriphCLKFreq+0x2ec>)
 8004706:	486a      	ldr	r0, [pc, #424]	; (80048b0 <HAL_RCCEx_GetPeriphCLKFreq+0x2f8>)
 8004708:	681b      	ldr	r3, [r3, #0]
 800470a:	f3c3 03c1 	ubfx	r3, r3, #3, #2
 800470e:	40d8      	lsrs	r0, r3
 8004710:	e7cc      	b.n	80046ac <HAL_RCCEx_GetPeriphCLKFreq+0xf4>
 8004712:	2b00      	cmp	r3, #0
 8004714:	d146      	bne.n	80047a4 <HAL_RCCEx_GetPeriphCLKFreq+0x1ec>
 8004716:	6810      	ldr	r0, [r2, #0]
 8004718:	f010 7000 	ands.w	r0, r0, #33554432	; 0x2000000
 800471c:	d0c6      	beq.n	80046ac <HAL_RCCEx_GetPeriphCLKFreq+0xf4>
 800471e:	a801      	add	r0, sp, #4
 8004720:	f7ff fe9e 	bl	8004460 <HAL_RCCEx_GetPLL1ClockFreq>
 8004724:	9802      	ldr	r0, [sp, #8]
 8004726:	e7c1      	b.n	80046ac <HAL_RCCEx_GetPeriphCLKFreq+0xf4>
 8004728:	4b5e      	ldr	r3, [pc, #376]	; (80048a4 <HAL_RCCEx_GetPeriphCLKFreq+0x2ec>)
 800472a:	6818      	ldr	r0, [r3, #0]
 800472c:	f010 7000 	ands.w	r0, r0, #33554432	; 0x2000000
 8004730:	d0bc      	beq.n	80046ac <HAL_RCCEx_GetPeriphCLKFreq+0xf4>
 8004732:	e7f4      	b.n	800471e <HAL_RCCEx_GetPeriphCLKFreq+0x166>
 8004734:	4a5b      	ldr	r2, [pc, #364]	; (80048a4 <HAL_RCCEx_GetPeriphCLKFreq+0x2ec>)
 8004736:	e783      	b.n	8004640 <HAL_RCCEx_GetPeriphCLKFreq+0x88>
 8004738:	4b5a      	ldr	r3, [pc, #360]	; (80048a4 <HAL_RCCEx_GetPeriphCLKFreq+0x2ec>)
 800473a:	6818      	ldr	r0, [r3, #0]
 800473c:	f010 5000 	ands.w	r0, r0, #536870912	; 0x20000000
 8004740:	d0b4      	beq.n	80046ac <HAL_RCCEx_GetPeriphCLKFreq+0xf4>
 8004742:	a801      	add	r0, sp, #4
 8004744:	f7ff fde0 	bl	8004308 <HAL_RCCEx_GetPLL3ClockFreq>
 8004748:	9801      	ldr	r0, [sp, #4]
 800474a:	e7af      	b.n	80046ac <HAL_RCCEx_GetPeriphCLKFreq+0xf4>
 800474c:	4b55      	ldr	r3, [pc, #340]	; (80048a4 <HAL_RCCEx_GetPeriphCLKFreq+0x2ec>)
 800474e:	6818      	ldr	r0, [r3, #0]
 8004750:	f010 6000 	ands.w	r0, r0, #134217728	; 0x8000000
 8004754:	d0aa      	beq.n	80046ac <HAL_RCCEx_GetPeriphCLKFreq+0xf4>
 8004756:	e798      	b.n	800468a <HAL_RCCEx_GetPeriphCLKFreq+0xd2>
 8004758:	2b00      	cmp	r3, #0
 800475a:	d0dc      	beq.n	8004716 <HAL_RCCEx_GetPeriphCLKFreq+0x15e>
 800475c:	f1b3 7f80 	cmp.w	r3, #16777216	; 0x1000000
 8004760:	d08f      	beq.n	8004682 <HAL_RCCEx_GetPeriphCLKFreq+0xca>
 8004762:	e786      	b.n	8004672 <HAL_RCCEx_GetPeriphCLKFreq+0xba>
 8004764:	6810      	ldr	r0, [r2, #0]
 8004766:	f010 5000 	ands.w	r0, r0, #536870912	; 0x20000000
 800476a:	d09f      	beq.n	80046ac <HAL_RCCEx_GetPeriphCLKFreq+0xf4>
 800476c:	e7e9      	b.n	8004742 <HAL_RCCEx_GetPeriphCLKFreq+0x18a>
 800476e:	4a4d      	ldr	r2, [pc, #308]	; (80048a4 <HAL_RCCEx_GetPeriphCLKFreq+0x2ec>)
 8004770:	6d93      	ldr	r3, [r2, #88]	; 0x58
 8004772:	f403 0360 	and.w	r3, r3, #14680064	; 0xe00000
 8004776:	f5b3 0f80 	cmp.w	r3, #4194304	; 0x400000
 800477a:	d0f3      	beq.n	8004764 <HAL_RCCEx_GetPeriphCLKFreq+0x1ac>
 800477c:	d806      	bhi.n	800478c <HAL_RCCEx_GetPeriphCLKFreq+0x1d4>
 800477e:	2b00      	cmp	r3, #0
 8004780:	d0c9      	beq.n	8004716 <HAL_RCCEx_GetPeriphCLKFreq+0x15e>
 8004782:	f5b3 1f00 	cmp.w	r3, #2097152	; 0x200000
 8004786:	f43f af7c 	beq.w	8004682 <HAL_RCCEx_GetPeriphCLKFreq+0xca>
 800478a:	e772      	b.n	8004672 <HAL_RCCEx_GetPeriphCLKFreq+0xba>
 800478c:	f5b3 0fc0 	cmp.w	r3, #6291456	; 0x600000
 8004790:	d08b      	beq.n	80046aa <HAL_RCCEx_GetPeriphCLKFreq+0xf2>
 8004792:	f5b3 0f00 	cmp.w	r3, #8388608	; 0x800000
 8004796:	f43f af53 	beq.w	8004640 <HAL_RCCEx_GetPeriphCLKFreq+0x88>
 800479a:	e76a      	b.n	8004672 <HAL_RCCEx_GetPeriphCLKFreq+0xba>
 800479c:	f5b3 4f80 	cmp.w	r3, #16384	; 0x4000
 80047a0:	d0a8      	beq.n	80046f4 <HAL_RCCEx_GetPeriphCLKFreq+0x13c>
 80047a2:	e766      	b.n	8004672 <HAL_RCCEx_GetPeriphCLKFreq+0xba>
 80047a4:	f5b3 5f80 	cmp.w	r3, #4096	; 0x1000
 80047a8:	f43f af6b 	beq.w	8004682 <HAL_RCCEx_GetPeriphCLKFreq+0xca>
 80047ac:	e761      	b.n	8004672 <HAL_RCCEx_GetPeriphCLKFreq+0xba>
 80047ae:	6813      	ldr	r3, [r2, #0]
 80047b0:	483f      	ldr	r0, [pc, #252]	; (80048b0 <HAL_RCCEx_GetPeriphCLKFreq+0x2f8>)
 80047b2:	f3c3 03c1 	ubfx	r3, r3, #3, #2
 80047b6:	40d8      	lsrs	r0, r3
 80047b8:	e778      	b.n	80046ac <HAL_RCCEx_GetPeriphCLKFreq+0xf4>
 80047ba:	4a3a      	ldr	r2, [pc, #232]	; (80048a4 <HAL_RCCEx_GetPeriphCLKFreq+0x2ec>)
 80047bc:	6d93      	ldr	r3, [r2, #88]	; 0x58
 80047be:	f003 43e0 	and.w	r3, r3, #1879048192	; 0x70000000
 80047c2:	f1b3 5f40 	cmp.w	r3, #805306368	; 0x30000000
 80047c6:	d066      	beq.n	8004896 <HAL_RCCEx_GetPeriphCLKFreq+0x2de>
 80047c8:	d82f      	bhi.n	800482a <HAL_RCCEx_GetPeriphCLKFreq+0x272>
 80047ca:	f1b3 5f80 	cmp.w	r3, #268435456	; 0x10000000
 80047ce:	d04f      	beq.n	8004870 <HAL_RCCEx_GetPeriphCLKFreq+0x2b8>
 80047d0:	f1b3 5f00 	cmp.w	r3, #536870912	; 0x20000000
 80047d4:	d131      	bne.n	800483a <HAL_RCCEx_GetPeriphCLKFreq+0x282>
 80047d6:	4b33      	ldr	r3, [pc, #204]	; (80048a4 <HAL_RCCEx_GetPeriphCLKFreq+0x2ec>)
 80047d8:	6818      	ldr	r0, [r3, #0]
 80047da:	f010 5000 	ands.w	r0, r0, #536870912	; 0x20000000
 80047de:	f43f af65 	beq.w	80046ac <HAL_RCCEx_GetPeriphCLKFreq+0xf4>
 80047e2:	a801      	add	r0, sp, #4
 80047e4:	f7ff fd90 	bl	8004308 <HAL_RCCEx_GetPLL3ClockFreq>
 80047e8:	9802      	ldr	r0, [sp, #8]
 80047ea:	e75f      	b.n	80046ac <HAL_RCCEx_GetPeriphCLKFreq+0xf4>
 80047ec:	482e      	ldr	r0, [pc, #184]	; (80048a8 <HAL_RCCEx_GetPeriphCLKFreq+0x2f0>)
 80047ee:	e75d      	b.n	80046ac <HAL_RCCEx_GetPeriphCLKFreq+0xf4>
 80047f0:	4a2c      	ldr	r2, [pc, #176]	; (80048a4 <HAL_RCCEx_GetPeriphCLKFreq+0x2ec>)
 80047f2:	6d93      	ldr	r3, [r2, #88]	; 0x58
 80047f4:	f403 3340 	and.w	r3, r3, #196608	; 0x30000
 80047f8:	f5b3 3f80 	cmp.w	r3, #65536	; 0x10000
 80047fc:	d02e      	beq.n	800485c <HAL_RCCEx_GetPeriphCLKFreq+0x2a4>
 80047fe:	f5b3 3f00 	cmp.w	r3, #131072	; 0x20000
 8004802:	f43f af77 	beq.w	80046f4 <HAL_RCCEx_GetPeriphCLKFreq+0x13c>
 8004806:	2b00      	cmp	r3, #0
 8004808:	f47f af33 	bne.w	8004672 <HAL_RCCEx_GetPeriphCLKFreq+0xba>
 800480c:	e739      	b.n	8004682 <HAL_RCCEx_GetPeriphCLKFreq+0xca>
 800480e:	4b25      	ldr	r3, [pc, #148]	; (80048a4 <HAL_RCCEx_GetPeriphCLKFreq+0x2ec>)
 8004810:	6cda      	ldr	r2, [r3, #76]	; 0x4c
 8004812:	03d2      	lsls	r2, r2, #15
 8004814:	d589      	bpl.n	800472a <HAL_RCCEx_GetPeriphCLKFreq+0x172>
 8004816:	6818      	ldr	r0, [r3, #0]
 8004818:	f010 6000 	ands.w	r0, r0, #134217728	; 0x8000000
 800481c:	f43f af46 	beq.w	80046ac <HAL_RCCEx_GetPeriphCLKFreq+0xf4>
 8004820:	a801      	add	r0, sp, #4
 8004822:	f7ff fcc5 	bl	80041b0 <HAL_RCCEx_GetPLL2ClockFreq>
 8004826:	9803      	ldr	r0, [sp, #12]
 8004828:	e740      	b.n	80046ac <HAL_RCCEx_GetPeriphCLKFreq+0xf4>
 800482a:	f1b3 4f80 	cmp.w	r3, #1073741824	; 0x40000000
 800482e:	d02a      	beq.n	8004886 <HAL_RCCEx_GetPeriphCLKFreq+0x2ce>
 8004830:	f1b3 4fa0 	cmp.w	r3, #1342177280	; 0x50000000
 8004834:	f43f aeef 	beq.w	8004616 <HAL_RCCEx_GetPeriphCLKFreq+0x5e>
 8004838:	e71b      	b.n	8004672 <HAL_RCCEx_GetPeriphCLKFreq+0xba>
 800483a:	2b00      	cmp	r3, #0
 800483c:	f47f af19 	bne.w	8004672 <HAL_RCCEx_GetPeriphCLKFreq+0xba>
 8004840:	f7fe fe28 	bl	8003494 <HAL_RCC_GetHCLKFreq>
 8004844:	4b17      	ldr	r3, [pc, #92]	; (80048a4 <HAL_RCCEx_GetPeriphCLKFreq+0x2ec>)
 8004846:	4a1b      	ldr	r2, [pc, #108]	; (80048b4 <HAL_RCCEx_GetPeriphCLKFreq+0x2fc>)
 8004848:	6a1b      	ldr	r3, [r3, #32]
 800484a:	f3c3 1302 	ubfx	r3, r3, #4, #3
 800484e:	5cd3      	ldrb	r3, [r2, r3]
 8004850:	f003 031f 	and.w	r3, r3, #31
 8004854:	40d8      	lsrs	r0, r3
 8004856:	e729      	b.n	80046ac <HAL_RCCEx_GetPeriphCLKFreq+0xf4>
 8004858:	4817      	ldr	r0, [pc, #92]	; (80048b8 <HAL_RCCEx_GetPeriphCLKFreq+0x300>)
 800485a:	e727      	b.n	80046ac <HAL_RCCEx_GetPeriphCLKFreq+0xf4>
 800485c:	6810      	ldr	r0, [r2, #0]
 800485e:	f010 5000 	ands.w	r0, r0, #536870912	; 0x20000000
 8004862:	f43f af23 	beq.w	80046ac <HAL_RCCEx_GetPeriphCLKFreq+0xf4>
 8004866:	a801      	add	r0, sp, #4
 8004868:	f7ff fd4e 	bl	8004308 <HAL_RCCEx_GetPLL3ClockFreq>
 800486c:	9803      	ldr	r0, [sp, #12]
 800486e:	e71d      	b.n	80046ac <HAL_RCCEx_GetPeriphCLKFreq+0xf4>
 8004870:	4b0c      	ldr	r3, [pc, #48]	; (80048a4 <HAL_RCCEx_GetPeriphCLKFreq+0x2ec>)
 8004872:	6818      	ldr	r0, [r3, #0]
 8004874:	f010 6000 	ands.w	r0, r0, #134217728	; 0x8000000
 8004878:	f43f af18 	beq.w	80046ac <HAL_RCCEx_GetPeriphCLKFreq+0xf4>
 800487c:	a801      	add	r0, sp, #4
 800487e:	f7ff fc97 	bl	80041b0 <HAL_RCCEx_GetPLL2ClockFreq>
 8004882:	9802      	ldr	r0, [sp, #8]
 8004884:	e712      	b.n	80046ac <HAL_RCCEx_GetPeriphCLKFreq+0xf4>
 8004886:	4a07      	ldr	r2, [pc, #28]	; (80048a4 <HAL_RCCEx_GetPeriphCLKFreq+0x2ec>)
 8004888:	4b0b      	ldr	r3, [pc, #44]	; (80048b8 <HAL_RCCEx_GetPeriphCLKFreq+0x300>)
 800488a:	6810      	ldr	r0, [r2, #0]
 800488c:	f410 7080 	ands.w	r0, r0, #256	; 0x100
 8004890:	bf18      	it	ne
 8004892:	4618      	movne	r0, r3
 8004894:	e70a      	b.n	80046ac <HAL_RCCEx_GetPeriphCLKFreq+0xf4>
 8004896:	6810      	ldr	r0, [r2, #0]
 8004898:	f010 0004 	ands.w	r0, r0, #4
 800489c:	f43f af06 	beq.w	80046ac <HAL_RCCEx_GetPeriphCLKFreq+0xf4>
 80048a0:	e730      	b.n	8004704 <HAL_RCCEx_GetPeriphCLKFreq+0x14c>
 80048a2:	bf00      	nop
 80048a4:	58024400 	.word	0x58024400
 80048a8:	017d7840 	.word	0x017d7840
 80048ac:	00bb8000 	.word	0x00bb8000
 80048b0:	03d09000 	.word	0x03d09000
 80048b4:	08004cfc 	.word	0x08004cfc
 80048b8:	003d0900 	.word	0x003d0900

080048bc <HAL_TIM_Base_Init>:
 80048bc:	2800      	cmp	r0, #0
 80048be:	f000 809c 	beq.w	80049fa <HAL_TIM_Base_Init+0x13e>
 80048c2:	b5f8      	push	{r3, r4, r5, r6, r7, lr}
 80048c4:	f890 303d 	ldrb.w	r3, [r0, #61]	; 0x3d
 80048c8:	4604      	mov	r4, r0
 80048ca:	f003 02ff 	and.w	r2, r3, #255	; 0xff
 80048ce:	2b00      	cmp	r3, #0
 80048d0:	d075      	beq.n	80049be <HAL_TIM_Base_Init+0x102>
 80048d2:	6822      	ldr	r2, [r4, #0]
 80048d4:	2302      	movs	r3, #2
 80048d6:	494a      	ldr	r1, [pc, #296]	; (8004a00 <HAL_TIM_Base_Init+0x144>)
 80048d8:	f1b2 4f80 	cmp.w	r2, #1073741824	; 0x40000000
 80048dc:	f884 303d 	strb.w	r3, [r4, #61]	; 0x3d
 80048e0:	eba2 0101 	sub.w	r1, r2, r1
 80048e4:	6813      	ldr	r3, [r2, #0]
 80048e6:	fab1 f181 	clz	r1, r1
 80048ea:	ea4f 1151 	mov.w	r1, r1, lsr #5
 80048ee:	d026      	beq.n	800493e <HAL_TIM_Base_Init+0x82>
 80048f0:	bb29      	cbnz	r1, 800493e <HAL_TIM_Base_Init+0x82>
 80048f2:	4844      	ldr	r0, [pc, #272]	; (8004a04 <HAL_TIM_Base_Init+0x148>)
 80048f4:	4282      	cmp	r2, r0
 80048f6:	d022      	beq.n	800493e <HAL_TIM_Base_Init+0x82>
 80048f8:	f500 6080 	add.w	r0, r0, #1024	; 0x400
 80048fc:	4282      	cmp	r2, r0
 80048fe:	d01e      	beq.n	800493e <HAL_TIM_Base_Init+0x82>
 8004900:	4f41      	ldr	r7, [pc, #260]	; (8004a08 <HAL_TIM_Base_Init+0x14c>)
 8004902:	4d42      	ldr	r5, [pc, #264]	; (8004a0c <HAL_TIM_Base_Init+0x150>)
 8004904:	1bd7      	subs	r7, r2, r7
 8004906:	42aa      	cmp	r2, r5
 8004908:	fab7 f787 	clz	r7, r7
 800490c:	ea4f 1757 	mov.w	r7, r7, lsr #5
 8004910:	d05a      	beq.n	80049c8 <HAL_TIM_Base_Init+0x10c>
 8004912:	2f00      	cmp	r7, #0
 8004914:	d158      	bne.n	80049c8 <HAL_TIM_Base_Init+0x10c>
 8004916:	483e      	ldr	r0, [pc, #248]	; (8004a10 <HAL_TIM_Base_Init+0x154>)
 8004918:	493e      	ldr	r1, [pc, #248]	; (8004a14 <HAL_TIM_Base_Init+0x158>)
 800491a:	428a      	cmp	r2, r1
 800491c:	bf18      	it	ne
 800491e:	4282      	cmpne	r2, r0
 8004920:	d05d      	beq.n	80049de <HAL_TIM_Base_Init+0x122>
 8004922:	f501 6180 	add.w	r1, r1, #1024	; 0x400
 8004926:	428a      	cmp	r2, r1
 8004928:	d059      	beq.n	80049de <HAL_TIM_Base_Init+0x122>
 800492a:	69a1      	ldr	r1, [r4, #24]
 800492c:	f023 0380 	bic.w	r3, r3, #128	; 0x80
 8004930:	68e0      	ldr	r0, [r4, #12]
 8004932:	430b      	orrs	r3, r1
 8004934:	6861      	ldr	r1, [r4, #4]
 8004936:	6013      	str	r3, [r2, #0]
 8004938:	62d0      	str	r0, [r2, #44]	; 0x2c
 800493a:	6291      	str	r1, [r2, #40]	; 0x28
 800493c:	e023      	b.n	8004986 <HAL_TIM_Base_Init+0xca>
 800493e:	4f32      	ldr	r7, [pc, #200]	; (8004a08 <HAL_TIM_Base_Init+0x14c>)
 8004940:	f023 0370 	bic.w	r3, r3, #112	; 0x70
 8004944:	68a5      	ldr	r5, [r4, #8]
 8004946:	1bd7      	subs	r7, r2, r7
 8004948:	432b      	orrs	r3, r5
 800494a:	fab7 f787 	clz	r7, r7
 800494e:	097f      	lsrs	r7, r7, #5
 8004950:	6920      	ldr	r0, [r4, #16]
 8004952:	f423 7340 	bic.w	r3, r3, #768	; 0x300
 8004956:	69a5      	ldr	r5, [r4, #24]
 8004958:	4303      	orrs	r3, r0
 800495a:	68e6      	ldr	r6, [r4, #12]
 800495c:	6860      	ldr	r0, [r4, #4]
 800495e:	f023 0380 	bic.w	r3, r3, #128	; 0x80
 8004962:	432b      	orrs	r3, r5
 8004964:	6013      	str	r3, [r2, #0]
 8004966:	62d6      	str	r6, [r2, #44]	; 0x2c
 8004968:	6290      	str	r0, [r2, #40]	; 0x28
 800496a:	b951      	cbnz	r1, 8004982 <HAL_TIM_Base_Init+0xc6>
 800496c:	b94f      	cbnz	r7, 8004982 <HAL_TIM_Base_Init+0xc6>
 800496e:	4928      	ldr	r1, [pc, #160]	; (8004a10 <HAL_TIM_Base_Init+0x154>)
 8004970:	4b28      	ldr	r3, [pc, #160]	; (8004a14 <HAL_TIM_Base_Init+0x158>)
 8004972:	429a      	cmp	r2, r3
 8004974:	bf18      	it	ne
 8004976:	428a      	cmpne	r2, r1
 8004978:	d003      	beq.n	8004982 <HAL_TIM_Base_Init+0xc6>
 800497a:	f503 6380 	add.w	r3, r3, #1024	; 0x400
 800497e:	429a      	cmp	r2, r3
 8004980:	d101      	bne.n	8004986 <HAL_TIM_Base_Init+0xca>
 8004982:	6963      	ldr	r3, [r4, #20]
 8004984:	6313      	str	r3, [r2, #48]	; 0x30
 8004986:	2301      	movs	r3, #1
 8004988:	2000      	movs	r0, #0
 800498a:	6153      	str	r3, [r2, #20]
 800498c:	f884 3048 	strb.w	r3, [r4, #72]	; 0x48
 8004990:	f884 303e 	strb.w	r3, [r4, #62]	; 0x3e
 8004994:	f884 303f 	strb.w	r3, [r4, #63]	; 0x3f
 8004998:	f884 3040 	strb.w	r3, [r4, #64]	; 0x40
 800499c:	f884 3041 	strb.w	r3, [r4, #65]	; 0x41
 80049a0:	f884 3042 	strb.w	r3, [r4, #66]	; 0x42
 80049a4:	f884 3043 	strb.w	r3, [r4, #67]	; 0x43
 80049a8:	f884 3044 	strb.w	r3, [r4, #68]	; 0x44
 80049ac:	f884 3045 	strb.w	r3, [r4, #69]	; 0x45
 80049b0:	f884 3046 	strb.w	r3, [r4, #70]	; 0x46
 80049b4:	f884 3047 	strb.w	r3, [r4, #71]	; 0x47
 80049b8:	f884 303d 	strb.w	r3, [r4, #61]	; 0x3d
 80049bc:	bdf8      	pop	{r3, r4, r5, r6, r7, pc}
 80049be:	f880 203c 	strb.w	r2, [r0, #60]	; 0x3c
 80049c2:	f7fc fd51 	bl	8001468 <HAL_TIM_Base_MspInit>
 80049c6:	e784      	b.n	80048d2 <HAL_TIM_Base_Init+0x16>
 80049c8:	4810      	ldr	r0, [pc, #64]	; (8004a0c <HAL_TIM_Base_Init+0x150>)
 80049ca:	f023 0370 	bic.w	r3, r3, #112	; 0x70
 80049ce:	68a5      	ldr	r5, [r4, #8]
 80049d0:	4282      	cmp	r2, r0
 80049d2:	ea43 0305 	orr.w	r3, r3, r5
 80049d6:	d0bb      	beq.n	8004950 <HAL_TIM_Base_Init+0x94>
 80049d8:	2f00      	cmp	r7, #0
 80049da:	d1b9      	bne.n	8004950 <HAL_TIM_Base_Init+0x94>
 80049dc:	e79b      	b.n	8004916 <HAL_TIM_Base_Init+0x5a>
 80049de:	6921      	ldr	r1, [r4, #16]
 80049e0:	f423 7340 	bic.w	r3, r3, #768	; 0x300
 80049e4:	69a5      	ldr	r5, [r4, #24]
 80049e6:	430b      	orrs	r3, r1
 80049e8:	68e0      	ldr	r0, [r4, #12]
 80049ea:	6861      	ldr	r1, [r4, #4]
 80049ec:	f023 0380 	bic.w	r3, r3, #128	; 0x80
 80049f0:	432b      	orrs	r3, r5
 80049f2:	6013      	str	r3, [r2, #0]
 80049f4:	62d0      	str	r0, [r2, #44]	; 0x2c
 80049f6:	6291      	str	r1, [r2, #40]	; 0x28
 80049f8:	e7b9      	b.n	800496e <HAL_TIM_Base_Init+0xb2>
 80049fa:	2001      	movs	r0, #1
 80049fc:	4770      	bx	lr
 80049fe:	bf00      	nop
 8004a00:	40010000 	.word	0x40010000
 8004a04:	40000400 	.word	0x40000400
 8004a08:	40010400 	.word	0x40010400
 8004a0c:	40000c00 	.word	0x40000c00
 8004a10:	40014000 	.word	0x40014000
 8004a14:	40014400 	.word	0x40014400

08004a18 <HAL_TIM_Base_Start_IT>:
 8004a18:	f890 303d 	ldrb.w	r3, [r0, #61]	; 0x3d
 8004a1c:	2b01      	cmp	r3, #1
 8004a1e:	d141      	bne.n	8004aa4 <HAL_TIM_Base_Start_IT+0x8c>
 8004a20:	6802      	ldr	r2, [r0, #0]
 8004a22:	4b25      	ldr	r3, [pc, #148]	; (8004ab8 <HAL_TIM_Base_Start_IT+0xa0>)
 8004a24:	4925      	ldr	r1, [pc, #148]	; (8004abc <HAL_TIM_Base_Start_IT+0xa4>)
 8004a26:	f1b2 4f80 	cmp.w	r2, #1073741824	; 0x40000000
 8004a2a:	bf18      	it	ne
 8004a2c:	429a      	cmpne	r2, r3
 8004a2e:	b430      	push	{r4, r5}
 8004a30:	bf0c      	ite	eq
 8004a32:	2301      	moveq	r3, #1
 8004a34:	2300      	movne	r3, #0
 8004a36:	4c22      	ldr	r4, [pc, #136]	; (8004ac0 <HAL_TIM_Base_Start_IT+0xa8>)
 8004a38:	2502      	movs	r5, #2
 8004a3a:	42a2      	cmp	r2, r4
 8004a3c:	bf08      	it	eq
 8004a3e:	f043 0301 	orreq.w	r3, r3, #1
 8004a42:	f880 503d 	strb.w	r5, [r0, #61]	; 0x3d
 8004a46:	4d1f      	ldr	r5, [pc, #124]	; (8004ac4 <HAL_TIM_Base_Start_IT+0xac>)
 8004a48:	f504 3480 	add.w	r4, r4, #65536	; 0x10000
 8004a4c:	428a      	cmp	r2, r1
 8004a4e:	bf08      	it	eq
 8004a50:	f043 0301 	orreq.w	r3, r3, #1
 8004a54:	481c      	ldr	r0, [pc, #112]	; (8004ac8 <HAL_TIM_Base_Start_IT+0xb0>)
 8004a56:	68d1      	ldr	r1, [r2, #12]
 8004a58:	42aa      	cmp	r2, r5
 8004a5a:	bf08      	it	eq
 8004a5c:	f043 0301 	orreq.w	r3, r3, #1
 8004a60:	f041 0101 	orr.w	r1, r1, #1
 8004a64:	42a2      	cmp	r2, r4
 8004a66:	bf08      	it	eq
 8004a68:	f043 0301 	orreq.w	r3, r3, #1
 8004a6c:	60d1      	str	r1, [r2, #12]
 8004a6e:	4282      	cmp	r2, r0
 8004a70:	bf08      	it	eq
 8004a72:	f043 0301 	orreq.w	r3, r3, #1
 8004a76:	b933      	cbnz	r3, 8004a86 <HAL_TIM_Base_Start_IT+0x6e>
 8004a78:	f500 3094 	add.w	r0, r0, #75776	; 0x12800
 8004a7c:	1a10      	subs	r0, r2, r0
 8004a7e:	fab0 f080 	clz	r0, r0
 8004a82:	0940      	lsrs	r0, r0, #5
 8004a84:	b198      	cbz	r0, 8004aae <HAL_TIM_Base_Start_IT+0x96>
 8004a86:	6891      	ldr	r1, [r2, #8]
 8004a88:	4b10      	ldr	r3, [pc, #64]	; (8004acc <HAL_TIM_Base_Start_IT+0xb4>)
 8004a8a:	400b      	ands	r3, r1
 8004a8c:	2b06      	cmp	r3, #6
 8004a8e:	d00b      	beq.n	8004aa8 <HAL_TIM_Base_Start_IT+0x90>
 8004a90:	f5b3 3f80 	cmp.w	r3, #65536	; 0x10000
 8004a94:	d008      	beq.n	8004aa8 <HAL_TIM_Base_Start_IT+0x90>
 8004a96:	6813      	ldr	r3, [r2, #0]
 8004a98:	2000      	movs	r0, #0
 8004a9a:	f043 0301 	orr.w	r3, r3, #1
 8004a9e:	6013      	str	r3, [r2, #0]
 8004aa0:	bc30      	pop	{r4, r5}
 8004aa2:	4770      	bx	lr
 8004aa4:	2001      	movs	r0, #1
 8004aa6:	4770      	bx	lr
 8004aa8:	2000      	movs	r0, #0
 8004aaa:	bc30      	pop	{r4, r5}
 8004aac:	4770      	bx	lr
 8004aae:	6813      	ldr	r3, [r2, #0]
 8004ab0:	f043 0301 	orr.w	r3, r3, #1
 8004ab4:	6013      	str	r3, [r2, #0]
 8004ab6:	e7f3      	b.n	8004aa0 <HAL_TIM_Base_Start_IT+0x88>
 8004ab8:	40010000 	.word	0x40010000
 8004abc:	40000800 	.word	0x40000800
 8004ac0:	40000400 	.word	0x40000400
 8004ac4:	40000c00 	.word	0x40000c00
 8004ac8:	40001800 	.word	0x40001800
 8004acc:	00010007 	.word	0x00010007

08004ad0 <HAL_TIM_OC_DelayElapsedCallback>:
 8004ad0:	4770      	bx	lr
 8004ad2:	bf00      	nop

08004ad4 <HAL_TIM_IC_CaptureCallback>:
 8004ad4:	4770      	bx	lr
 8004ad6:	bf00      	nop

08004ad8 <HAL_TIM_PWM_PulseFinishedCallback>:
 8004ad8:	4770      	bx	lr
 8004ada:	bf00      	nop

08004adc <HAL_TIM_TriggerCallback>:
 8004adc:	4770      	bx	lr
 8004ade:	bf00      	nop

08004ae0 <HAL_TIM_IRQHandler>:
 8004ae0:	6803      	ldr	r3, [r0, #0]
 8004ae2:	691a      	ldr	r2, [r3, #16]
 8004ae4:	0791      	lsls	r1, r2, #30
 8004ae6:	b510      	push	{r4, lr}
 8004ae8:	4604      	mov	r4, r0
 8004aea:	d502      	bpl.n	8004af2 <HAL_TIM_IRQHandler+0x12>
 8004aec:	68da      	ldr	r2, [r3, #12]
 8004aee:	0792      	lsls	r2, r2, #30
 8004af0:	d468      	bmi.n	8004bc4 <HAL_TIM_IRQHandler+0xe4>
 8004af2:	691a      	ldr	r2, [r3, #16]
 8004af4:	0752      	lsls	r2, r2, #29
 8004af6:	d502      	bpl.n	8004afe <HAL_TIM_IRQHandler+0x1e>
 8004af8:	68da      	ldr	r2, [r3, #12]
 8004afa:	0750      	lsls	r0, r2, #29
 8004afc:	d44f      	bmi.n	8004b9e <HAL_TIM_IRQHandler+0xbe>
 8004afe:	691a      	ldr	r2, [r3, #16]
 8004b00:	0711      	lsls	r1, r2, #28
 8004b02:	d502      	bpl.n	8004b0a <HAL_TIM_IRQHandler+0x2a>
 8004b04:	68da      	ldr	r2, [r3, #12]
 8004b06:	0712      	lsls	r2, r2, #28
 8004b08:	d437      	bmi.n	8004b7a <HAL_TIM_IRQHandler+0x9a>
 8004b0a:	691a      	ldr	r2, [r3, #16]
 8004b0c:	06d0      	lsls	r0, r2, #27
 8004b0e:	d502      	bpl.n	8004b16 <HAL_TIM_IRQHandler+0x36>
 8004b10:	68da      	ldr	r2, [r3, #12]
 8004b12:	06d1      	lsls	r1, r2, #27
 8004b14:	d41e      	bmi.n	8004b54 <HAL_TIM_IRQHandler+0x74>
 8004b16:	691a      	ldr	r2, [r3, #16]
 8004b18:	07d2      	lsls	r2, r2, #31
 8004b1a:	d502      	bpl.n	8004b22 <HAL_TIM_IRQHandler+0x42>
 8004b1c:	68da      	ldr	r2, [r3, #12]
 8004b1e:	07d0      	lsls	r0, r2, #31
 8004b20:	d469      	bmi.n	8004bf6 <HAL_TIM_IRQHandler+0x116>
 8004b22:	691a      	ldr	r2, [r3, #16]
 8004b24:	0611      	lsls	r1, r2, #24
 8004b26:	d502      	bpl.n	8004b2e <HAL_TIM_IRQHandler+0x4e>
 8004b28:	68da      	ldr	r2, [r3, #12]
 8004b2a:	0612      	lsls	r2, r2, #24
 8004b2c:	d46b      	bmi.n	8004c06 <HAL_TIM_IRQHandler+0x126>
 8004b2e:	691a      	ldr	r2, [r3, #16]
 8004b30:	05d0      	lsls	r0, r2, #23
 8004b32:	d502      	bpl.n	8004b3a <HAL_TIM_IRQHandler+0x5a>
 8004b34:	68da      	ldr	r2, [r3, #12]
 8004b36:	0611      	lsls	r1, r2, #24
 8004b38:	d46d      	bmi.n	8004c16 <HAL_TIM_IRQHandler+0x136>
 8004b3a:	691a      	ldr	r2, [r3, #16]
 8004b3c:	0652      	lsls	r2, r2, #25
 8004b3e:	d502      	bpl.n	8004b46 <HAL_TIM_IRQHandler+0x66>
 8004b40:	68da      	ldr	r2, [r3, #12]
 8004b42:	0650      	lsls	r0, r2, #25
 8004b44:	d46f      	bmi.n	8004c26 <HAL_TIM_IRQHandler+0x146>
 8004b46:	691a      	ldr	r2, [r3, #16]
 8004b48:	0691      	lsls	r1, r2, #26
 8004b4a:	d502      	bpl.n	8004b52 <HAL_TIM_IRQHandler+0x72>
 8004b4c:	68da      	ldr	r2, [r3, #12]
 8004b4e:	0692      	lsls	r2, r2, #26
 8004b50:	d449      	bmi.n	8004be6 <HAL_TIM_IRQHandler+0x106>
 8004b52:	bd10      	pop	{r4, pc}
 8004b54:	f06f 0110 	mvn.w	r1, #16
 8004b58:	2208      	movs	r2, #8
 8004b5a:	4620      	mov	r0, r4
 8004b5c:	6119      	str	r1, [r3, #16]
 8004b5e:	7722      	strb	r2, [r4, #28]
 8004b60:	69db      	ldr	r3, [r3, #28]
 8004b62:	f413 7f40 	tst.w	r3, #768	; 0x300
 8004b66:	d16f      	bne.n	8004c48 <HAL_TIM_IRQHandler+0x168>
 8004b68:	f7ff ffb2 	bl	8004ad0 <HAL_TIM_OC_DelayElapsedCallback>
 8004b6c:	4620      	mov	r0, r4
 8004b6e:	f7ff ffb3 	bl	8004ad8 <HAL_TIM_PWM_PulseFinishedCallback>
 8004b72:	2200      	movs	r2, #0
 8004b74:	6823      	ldr	r3, [r4, #0]
 8004b76:	7722      	strb	r2, [r4, #28]
 8004b78:	e7cd      	b.n	8004b16 <HAL_TIM_IRQHandler+0x36>
 8004b7a:	f06f 0108 	mvn.w	r1, #8
 8004b7e:	2204      	movs	r2, #4
 8004b80:	4620      	mov	r0, r4
 8004b82:	6119      	str	r1, [r3, #16]
 8004b84:	7722      	strb	r2, [r4, #28]
 8004b86:	69db      	ldr	r3, [r3, #28]
 8004b88:	079b      	lsls	r3, r3, #30
 8004b8a:	d15a      	bne.n	8004c42 <HAL_TIM_IRQHandler+0x162>
 8004b8c:	f7ff ffa0 	bl	8004ad0 <HAL_TIM_OC_DelayElapsedCallback>
 8004b90:	4620      	mov	r0, r4
 8004b92:	f7ff ffa1 	bl	8004ad8 <HAL_TIM_PWM_PulseFinishedCallback>
 8004b96:	2200      	movs	r2, #0
 8004b98:	6823      	ldr	r3, [r4, #0]
 8004b9a:	7722      	strb	r2, [r4, #28]
 8004b9c:	e7b5      	b.n	8004b0a <HAL_TIM_IRQHandler+0x2a>
 8004b9e:	f06f 0104 	mvn.w	r1, #4
 8004ba2:	2202      	movs	r2, #2
 8004ba4:	4620      	mov	r0, r4
 8004ba6:	6119      	str	r1, [r3, #16]
 8004ba8:	7722      	strb	r2, [r4, #28]
 8004baa:	699b      	ldr	r3, [r3, #24]
 8004bac:	f413 7f40 	tst.w	r3, #768	; 0x300
 8004bb0:	d144      	bne.n	8004c3c <HAL_TIM_IRQHandler+0x15c>
 8004bb2:	f7ff ff8d 	bl	8004ad0 <HAL_TIM_OC_DelayElapsedCallback>
 8004bb6:	4620      	mov	r0, r4
 8004bb8:	f7ff ff8e 	bl	8004ad8 <HAL_TIM_PWM_PulseFinishedCallback>
 8004bbc:	2200      	movs	r2, #0
 8004bbe:	6823      	ldr	r3, [r4, #0]
 8004bc0:	7722      	strb	r2, [r4, #28]
 8004bc2:	e79c      	b.n	8004afe <HAL_TIM_IRQHandler+0x1e>
 8004bc4:	f06f 0102 	mvn.w	r1, #2
 8004bc8:	2201      	movs	r2, #1
 8004bca:	6119      	str	r1, [r3, #16]
 8004bcc:	7702      	strb	r2, [r0, #28]
 8004bce:	699b      	ldr	r3, [r3, #24]
 8004bd0:	0799      	lsls	r1, r3, #30
 8004bd2:	d130      	bne.n	8004c36 <HAL_TIM_IRQHandler+0x156>
 8004bd4:	f7ff ff7c 	bl	8004ad0 <HAL_TIM_OC_DelayElapsedCallback>
 8004bd8:	4620      	mov	r0, r4
 8004bda:	f7ff ff7d 	bl	8004ad8 <HAL_TIM_PWM_PulseFinishedCallback>
 8004bde:	2200      	movs	r2, #0
 8004be0:	6823      	ldr	r3, [r4, #0]
 8004be2:	7722      	strb	r2, [r4, #28]
 8004be4:	e785      	b.n	8004af2 <HAL_TIM_IRQHandler+0x12>
 8004be6:	f06f 0220 	mvn.w	r2, #32
 8004bea:	4620      	mov	r0, r4
 8004bec:	611a      	str	r2, [r3, #16]
 8004bee:	e8bd 4010 	ldmia.w	sp!, {r4, lr}
 8004bf2:	f000 b82d 	b.w	8004c50 <HAL_TIMEx_CommutCallback>
 8004bf6:	f06f 0201 	mvn.w	r2, #1
 8004bfa:	4620      	mov	r0, r4
 8004bfc:	611a      	str	r2, [r3, #16]
 8004bfe:	f7fc fb7b 	bl	80012f8 <HAL_TIM_PeriodElapsedCallback>
 8004c02:	6823      	ldr	r3, [r4, #0]
 8004c04:	e78d      	b.n	8004b22 <HAL_TIM_IRQHandler+0x42>
 8004c06:	f06f 0280 	mvn.w	r2, #128	; 0x80
 8004c0a:	4620      	mov	r0, r4
 8004c0c:	611a      	str	r2, [r3, #16]
 8004c0e:	f000 f821 	bl	8004c54 <HAL_TIMEx_BreakCallback>
 8004c12:	6823      	ldr	r3, [r4, #0]
 8004c14:	e78b      	b.n	8004b2e <HAL_TIM_IRQHandler+0x4e>
 8004c16:	f46f 7280 	mvn.w	r2, #256	; 0x100
 8004c1a:	4620      	mov	r0, r4
 8004c1c:	611a      	str	r2, [r3, #16]
 8004c1e:	f000 f81b 	bl	8004c58 <HAL_TIMEx_Break2Callback>
 8004c22:	6823      	ldr	r3, [r4, #0]
 8004c24:	e789      	b.n	8004b3a <HAL_TIM_IRQHandler+0x5a>
 8004c26:	f06f 0240 	mvn.w	r2, #64	; 0x40
 8004c2a:	4620      	mov	r0, r4
 8004c2c:	611a      	str	r2, [r3, #16]
 8004c2e:	f7ff ff55 	bl	8004adc <HAL_TIM_TriggerCallback>
 8004c32:	6823      	ldr	r3, [r4, #0]
 8004c34:	e787      	b.n	8004b46 <HAL_TIM_IRQHandler+0x66>
 8004c36:	f7ff ff4d 	bl	8004ad4 <HAL_TIM_IC_CaptureCallback>
 8004c3a:	e7d0      	b.n	8004bde <HAL_TIM_IRQHandler+0xfe>
 8004c3c:	f7ff ff4a 	bl	8004ad4 <HAL_TIM_IC_CaptureCallback>
 8004c40:	e7bc      	b.n	8004bbc <HAL_TIM_IRQHandler+0xdc>
 8004c42:	f7ff ff47 	bl	8004ad4 <HAL_TIM_IC_CaptureCallback>
 8004c46:	e7a6      	b.n	8004b96 <HAL_TIM_IRQHandler+0xb6>
 8004c48:	f7ff ff44 	bl	8004ad4 <HAL_TIM_IC_CaptureCallback>
 8004c4c:	e791      	b.n	8004b72 <HAL_TIM_IRQHandler+0x92>
 8004c4e:	bf00      	nop

08004c50 <HAL_TIMEx_CommutCallback>:
 8004c50:	4770      	bx	lr
 8004c52:	bf00      	nop

08004c54 <HAL_TIMEx_BreakCallback>:
 8004c54:	4770      	bx	lr
 8004c56:	bf00      	nop

08004c58 <HAL_TIMEx_Break2Callback>:
 8004c58:	4770      	bx	lr
 8004c5a:	bf00      	nop

08004c5c <__libc_init_array>:
 8004c5c:	b570      	push	{r4, r5, r6, lr}
 8004c5e:	4d0d      	ldr	r5, [pc, #52]	; (8004c94 <__libc_init_array+0x38>)
 8004c60:	4c0d      	ldr	r4, [pc, #52]	; (8004c98 <__libc_init_array+0x3c>)
 8004c62:	1b64      	subs	r4, r4, r5
 8004c64:	10a4      	asrs	r4, r4, #2
 8004c66:	2600      	movs	r6, #0
 8004c68:	42a6      	cmp	r6, r4
 8004c6a:	d109      	bne.n	8004c80 <__libc_init_array+0x24>
 8004c6c:	4d0b      	ldr	r5, [pc, #44]	; (8004c9c <__libc_init_array+0x40>)
 8004c6e:	4c0c      	ldr	r4, [pc, #48]	; (8004ca0 <__libc_init_array+0x44>)
 8004c70:	f000 f82e 	bl	8004cd0 <_init>
 8004c74:	1b64      	subs	r4, r4, r5
 8004c76:	10a4      	asrs	r4, r4, #2
 8004c78:	2600      	movs	r6, #0
 8004c7a:	42a6      	cmp	r6, r4
 8004c7c:	d105      	bne.n	8004c8a <__libc_init_array+0x2e>
 8004c7e:	bd70      	pop	{r4, r5, r6, pc}
 8004c80:	f855 3b04 	ldr.w	r3, [r5], #4
 8004c84:	4798      	blx	r3
 8004c86:	3601      	adds	r6, #1
 8004c88:	e7ee      	b.n	8004c68 <__libc_init_array+0xc>
 8004c8a:	f855 3b04 	ldr.w	r3, [r5], #4
 8004c8e:	4798      	blx	r3
 8004c90:	3601      	adds	r6, #1
 8004c92:	e7f2      	b.n	8004c7a <__libc_init_array+0x1e>
 8004c94:	08004d0c 	.word	0x08004d0c
 8004c98:	08004d0c 	.word	0x08004d0c
 8004c9c:	08004d0c 	.word	0x08004d0c
 8004ca0:	08004d10 	.word	0x08004d10

08004ca4 <memcpy>:
 8004ca4:	440a      	add	r2, r1
 8004ca6:	4291      	cmp	r1, r2
 8004ca8:	f100 33ff 	add.w	r3, r0, #4294967295
 8004cac:	d100      	bne.n	8004cb0 <memcpy+0xc>
 8004cae:	4770      	bx	lr
 8004cb0:	b510      	push	{r4, lr}
 8004cb2:	f811 4b01 	ldrb.w	r4, [r1], #1
 8004cb6:	f803 4f01 	strb.w	r4, [r3, #1]!
 8004cba:	4291      	cmp	r1, r2
 8004cbc:	d1f9      	bne.n	8004cb2 <memcpy+0xe>
 8004cbe:	bd10      	pop	{r4, pc}

08004cc0 <memset>:
 8004cc0:	4402      	add	r2, r0
 8004cc2:	4603      	mov	r3, r0
 8004cc4:	4293      	cmp	r3, r2
 8004cc6:	d100      	bne.n	8004cca <memset+0xa>
 8004cc8:	4770      	bx	lr
 8004cca:	f803 1b01 	strb.w	r1, [r3], #1
 8004cce:	e7f9      	b.n	8004cc4 <memset+0x4>

08004cd0 <_init>:
 8004cd0:	b5f8      	push	{r3, r4, r5, r6, r7, lr}
 8004cd2:	bf00      	nop
 8004cd4:	bcf8      	pop	{r3, r4, r5, r6, r7}
 8004cd6:	bc08      	pop	{r3}
 8004cd8:	469e      	mov	lr, r3
 8004cda:	4770      	bx	lr

08004cdc <_fini>:
 8004cdc:	b5f8      	push	{r3, r4, r5, r6, r7, lr}
 8004cde:	bf00      	nop
 8004ce0:	bcf8      	pop	{r3, r4, r5, r6, r7}
 8004ce2:	bc08      	pop	{r3}
 8004ce4:	469e      	mov	lr, r3
 8004ce6:	4770      	bx	lr
