
FinalProject.elf:     file format elf32-littlearm

Sections:
Idx Name          Size      VMA       LMA       File off  Algn
  0 .isr_vector   00000298  08000000  08000000  00010000  2**0
                  CONTENTS, ALLOC, LOAD, READONLY, DATA
  1 .text         00004df8  08000298  08000298  00010298  2**2
                  CONTENTS, ALLOC, LOAD, READONLY, CODE
  2 .rodata       0000002c  08005090  08005090  00015090  2**2
                  CONTENTS, ALLOC, LOAD, READONLY, DATA
  3 .init_array   00000004  080050bc  080050bc  000150bc  2**2
                  CONTENTS, ALLOC, LOAD, DATA
  4 .fini_array   00000004  080050c0  080050c0  000150c0  2**2
                  CONTENTS, ALLOC, LOAD, DATA
  5 .data         000040d8  24000000  080050c4  00020000  2**2
                  CONTENTS, ALLOC, LOAD, DATA
  6 .bss          000001fc  240040d8  0800919c  000240d8  2**2
                  ALLOC
  7 ._user_heap_stack 00000604  240042d4  0800919c  000242d4  2**0
                  ALLOC
  8 .ARM.attributes 0000002e  00000000  00000000  000240d8  2**0
                  CONTENTS, READONLY
  9 .comment      00000053  00000000  00000000  00024106  2**0
                  CONTENTS, READONLY
 10 .debug_frame  00000074  00000000  00000000  0002415c  2**2
                  CONTENTS, READONLY, DEBUGGING, OCTETS

Disassembly of section .text:

08000298 <__do_global_dtors_aux>:
 8000298:	b510      	push	{r4, lr}
 800029a:	4c05      	ldr	r4, [pc, #20]	; (80002b0 <__do_global_dtors_aux+0x18>)
 800029c:	7823      	ldrb	r3, [r4, #0]
 800029e:	b933      	cbnz	r3, 80002ae <__do_global_dtors_aux+0x16>
 80002a0:	4b04      	ldr	r3, [pc, #16]	; (80002b4 <__do_global_dtors_aux+0x1c>)
 80002a2:	b113      	cbz	r3, 80002aa <__do_global_dtors_aux+0x12>
 80002a4:	4804      	ldr	r0, [pc, #16]	; (80002b8 <__do_global_dtors_aux+0x20>)
 80002a6:	f3af 8000 	nop.w
 80002aa:	2301      	movs	r3, #1
 80002ac:	7023      	strb	r3, [r4, #0]
 80002ae:	bd10      	pop	{r4, pc}
 80002b0:	240040d8 	.word	0x240040d8
 80002b4:	00000000 	.word	0x00000000
 80002b8:	08005078 	.word	0x08005078

080002bc <frame_dummy>:
 80002bc:	b508      	push	{r3, lr}
 80002be:	4b03      	ldr	r3, [pc, #12]	; (80002cc <frame_dummy+0x10>)
 80002c0:	b11b      	cbz	r3, 80002ca <frame_dummy+0xe>
 80002c2:	4903      	ldr	r1, [pc, #12]	; (80002d0 <frame_dummy+0x14>)
 80002c4:	4803      	ldr	r0, [pc, #12]	; (80002d4 <frame_dummy+0x18>)
 80002c6:	f3af 8000 	nop.w
 80002ca:	bd08      	pop	{r3, pc}
 80002cc:	00000000 	.word	0x00000000
 80002d0:	240040dc 	.word	0x240040dc
 80002d4:	08005078 	.word	0x08005078

080002d8 <MX_ADC1_Init>:
 80002d8:	b500      	push	{lr}
 80002da:	b08b      	sub	sp, #44	; 0x2c
 80002dc:	2300      	movs	r3, #0
 80002de:	9307      	str	r3, [sp, #28]
 80002e0:	9308      	str	r3, [sp, #32]
 80002e2:	9309      	str	r3, [sp, #36]	; 0x24
 80002e4:	9300      	str	r3, [sp, #0]
 80002e6:	9301      	str	r3, [sp, #4]
 80002e8:	9302      	str	r3, [sp, #8]
 80002ea:	9303      	str	r3, [sp, #12]
 80002ec:	9304      	str	r3, [sp, #16]
 80002ee:	9305      	str	r3, [sp, #20]
 80002f0:	9306      	str	r3, [sp, #24]
 80002f2:	481e      	ldr	r0, [pc, #120]	; (800036c <MX_ADC1_Init+0x94>)
 80002f4:	4a1e      	ldr	r2, [pc, #120]	; (8000370 <MX_ADC1_Init+0x98>)
 80002f6:	6002      	str	r2, [r0, #0]
 80002f8:	6043      	str	r3, [r0, #4]
 80002fa:	6083      	str	r3, [r0, #8]
 80002fc:	60c3      	str	r3, [r0, #12]
 80002fe:	2204      	movs	r2, #4
 8000300:	6102      	str	r2, [r0, #16]
 8000302:	7503      	strb	r3, [r0, #20]
 8000304:	7543      	strb	r3, [r0, #21]
 8000306:	2201      	movs	r2, #1
 8000308:	6182      	str	r2, [r0, #24]
 800030a:	7703      	strb	r3, [r0, #28]
 800030c:	6243      	str	r3, [r0, #36]	; 0x24
 800030e:	6283      	str	r3, [r0, #40]	; 0x28
 8000310:	62c3      	str	r3, [r0, #44]	; 0x2c
 8000312:	6303      	str	r3, [r0, #48]	; 0x30
 8000314:	6343      	str	r3, [r0, #52]	; 0x34
 8000316:	f880 3038 	strb.w	r3, [r0, #56]	; 0x38
 800031a:	f001 fdfd 	bl	8001f18 <HAL_ADC_Init>
 800031e:	b9e0      	cbnz	r0, 800035a <MX_ADC1_Init+0x82>
 8000320:	2300      	movs	r3, #0
 8000322:	9307      	str	r3, [sp, #28]
 8000324:	a907      	add	r1, sp, #28
 8000326:	4811      	ldr	r0, [pc, #68]	; (800036c <MX_ADC1_Init+0x94>)
 8000328:	f001 ff26 	bl	8002178 <HAL_ADCEx_MultiModeConfigChannel>
 800032c:	b9c0      	cbnz	r0, 8000360 <MX_ADC1_Init+0x88>
 800032e:	4b11      	ldr	r3, [pc, #68]	; (8000374 <MX_ADC1_Init+0x9c>)
 8000330:	9300      	str	r3, [sp, #0]
 8000332:	2306      	movs	r3, #6
 8000334:	9301      	str	r3, [sp, #4]
 8000336:	2300      	movs	r3, #0
 8000338:	9302      	str	r3, [sp, #8]
 800033a:	f240 72ff 	movw	r2, #2047	; 0x7ff
 800033e:	9203      	str	r2, [sp, #12]
 8000340:	2204      	movs	r2, #4
 8000342:	9204      	str	r2, [sp, #16]
 8000344:	9305      	str	r3, [sp, #20]
 8000346:	f88d 3019 	strb.w	r3, [sp, #25]
 800034a:	4669      	mov	r1, sp
 800034c:	4807      	ldr	r0, [pc, #28]	; (800036c <MX_ADC1_Init+0x94>)
 800034e:	f001 f8e7 	bl	8001520 <HAL_ADC_ConfigChannel>
 8000352:	b940      	cbnz	r0, 8000366 <MX_ADC1_Init+0x8e>
 8000354:	b00b      	add	sp, #44	; 0x2c
 8000356:	f85d fb04 	ldr.w	pc, [sp], #4
 800035a:	f000 fe35 	bl	8000fc8 <Error_Handler>
 800035e:	e7df      	b.n	8000320 <MX_ADC1_Init+0x48>
 8000360:	f000 fe32 	bl	8000fc8 <Error_Handler>
 8000364:	e7e3      	b.n	800032e <MX_ADC1_Init+0x56>
 8000366:	f000 fe2f 	bl	8000fc8 <Error_Handler>
 800036a:	e7f3      	b.n	8000354 <MX_ADC1_Init+0x7c>
 800036c:	240041cc 	.word	0x240041cc
 8000370:	40022000 	.word	0x40022000
 8000374:	0c900008 	.word	0x0c900008

08000378 <HAL_ADC_MspInit>:
 8000378:	b510      	push	{r4, lr}
 800037a:	b0b6      	sub	sp, #216	; 0xd8
 800037c:	4604      	mov	r4, r0
 800037e:	2100      	movs	r1, #0
 8000380:	9131      	str	r1, [sp, #196]	; 0xc4
 8000382:	9132      	str	r1, [sp, #200]	; 0xc8
 8000384:	9133      	str	r1, [sp, #204]	; 0xcc
 8000386:	9134      	str	r1, [sp, #208]	; 0xd0
 8000388:	9135      	str	r1, [sp, #212]	; 0xd4
 800038a:	22bc      	movs	r2, #188	; 0xbc
 800038c:	a802      	add	r0, sp, #8
 800038e:	f004 fe6b 	bl	8005068 <memset>
 8000392:	6822      	ldr	r2, [r4, #0]
 8000394:	4b21      	ldr	r3, [pc, #132]	; (800041c <HAL_ADC_MspInit+0xa4>)
 8000396:	429a      	cmp	r2, r3
 8000398:	d001      	beq.n	800039e <HAL_ADC_MspInit+0x26>
 800039a:	b036      	add	sp, #216	; 0xd8
 800039c:	bd10      	pop	{r4, pc}
 800039e:	f44f 2300 	mov.w	r3, #524288	; 0x80000
 80003a2:	9302      	str	r3, [sp, #8]
 80003a4:	2304      	movs	r3, #4
 80003a6:	9303      	str	r3, [sp, #12]
 80003a8:	2209      	movs	r2, #9
 80003aa:	9204      	str	r2, [sp, #16]
 80003ac:	9305      	str	r3, [sp, #20]
 80003ae:	2302      	movs	r3, #2
 80003b0:	9306      	str	r3, [sp, #24]
 80003b2:	9307      	str	r3, [sp, #28]
 80003b4:	23c0      	movs	r3, #192	; 0xc0
 80003b6:	9308      	str	r3, [sp, #32]
 80003b8:	2320      	movs	r3, #32
 80003ba:	9309      	str	r3, [sp, #36]	; 0x24
 80003bc:	f44f 6340 	mov.w	r3, #3072	; 0xc00
 80003c0:	930a      	str	r3, [sp, #40]	; 0x28
 80003c2:	2300      	movs	r3, #0
 80003c4:	932a      	str	r3, [sp, #168]	; 0xa8
 80003c6:	a802      	add	r0, sp, #8
 80003c8:	f003 f956 	bl	8003678 <HAL_RCCEx_PeriphCLKConfig>
 80003cc:	bb18      	cbnz	r0, 8000416 <HAL_ADC_MspInit+0x9e>
 80003ce:	4b14      	ldr	r3, [pc, #80]	; (8000420 <HAL_ADC_MspInit+0xa8>)
 80003d0:	f8d3 20d8 	ldr.w	r2, [r3, #216]	; 0xd8
 80003d4:	f042 0220 	orr.w	r2, r2, #32
 80003d8:	f8c3 20d8 	str.w	r2, [r3, #216]	; 0xd8
 80003dc:	f8d3 20d8 	ldr.w	r2, [r3, #216]	; 0xd8
 80003e0:	f002 0220 	and.w	r2, r2, #32
 80003e4:	9200      	str	r2, [sp, #0]
 80003e6:	9a00      	ldr	r2, [sp, #0]
 80003e8:	f8d3 20e0 	ldr.w	r2, [r3, #224]	; 0xe0
 80003ec:	f042 0201 	orr.w	r2, r2, #1
 80003f0:	f8c3 20e0 	str.w	r2, [r3, #224]	; 0xe0
 80003f4:	f8d3 30e0 	ldr.w	r3, [r3, #224]	; 0xe0
 80003f8:	f003 0301 	and.w	r3, r3, #1
 80003fc:	9301      	str	r3, [sp, #4]
 80003fe:	9b01      	ldr	r3, [sp, #4]
 8000400:	2340      	movs	r3, #64	; 0x40
 8000402:	9331      	str	r3, [sp, #196]	; 0xc4
 8000404:	2303      	movs	r3, #3
 8000406:	9332      	str	r3, [sp, #200]	; 0xc8
 8000408:	2300      	movs	r3, #0
 800040a:	9333      	str	r3, [sp, #204]	; 0xcc
 800040c:	a931      	add	r1, sp, #196	; 0xc4
 800040e:	4805      	ldr	r0, [pc, #20]	; (8000424 <HAL_ADC_MspInit+0xac>)
 8000410:	f001 ffcc 	bl	80023ac <HAL_GPIO_Init>
 8000414:	e7c1      	b.n	800039a <HAL_ADC_MspInit+0x22>
 8000416:	f000 fdd7 	bl	8000fc8 <Error_Handler>
 800041a:	e7d8      	b.n	80003ce <HAL_ADC_MspInit+0x56>
 800041c:	40022000 	.word	0x40022000
 8000420:	58024400 	.word	0x58024400
 8000424:	58020000 	.word	0x58020000

08000428 <add_voice>:
 8000428:	2901      	cmp	r1, #1
 800042a:	d002      	beq.n	8000432 <add_voice+0xa>
 800042c:	2902      	cmp	r1, #2
 800042e:	d008      	beq.n	8000442 <add_voice+0x1a>
 8000430:	4770      	bx	lr
 8000432:	0240      	lsls	r0, r0, #9
 8000434:	4b07      	ldr	r3, [pc, #28]	; (8000454 <add_voice+0x2c>)
 8000436:	fb83 3000 	smull	r3, r0, r3, r0
 800043a:	1040      	asrs	r0, r0, #1
 800043c:	4b06      	ldr	r3, [pc, #24]	; (8000458 <add_voice+0x30>)
 800043e:	6018      	str	r0, [r3, #0]
 8000440:	4770      	bx	lr
 8000442:	0240      	lsls	r0, r0, #9
 8000444:	4b03      	ldr	r3, [pc, #12]	; (8000454 <add_voice+0x2c>)
 8000446:	fb83 3000 	smull	r3, r0, r3, r0
 800044a:	1040      	asrs	r0, r0, #1
 800044c:	4b03      	ldr	r3, [pc, #12]	; (800045c <add_voice+0x34>)
 800044e:	6018      	str	r0, [r3, #0]
 8000450:	4770      	bx	lr
 8000452:	bf00      	nop
 8000454:	66666667 	.word	0x66666667
 8000458:	240041b8 	.word	0x240041b8
 800045c:	240041bc 	.word	0x240041bc

08000460 <remove_voice>:
 8000460:	2801      	cmp	r0, #1
 8000462:	d002      	beq.n	800046a <remove_voice+0xa>
 8000464:	2802      	cmp	r0, #2
 8000466:	d006      	beq.n	8000476 <remove_voice+0x16>
 8000468:	4770      	bx	lr
 800046a:	2300      	movs	r3, #0
 800046c:	4a05      	ldr	r2, [pc, #20]	; (8000484 <remove_voice+0x24>)
 800046e:	6013      	str	r3, [r2, #0]
 8000470:	4a05      	ldr	r2, [pc, #20]	; (8000488 <remove_voice+0x28>)
 8000472:	6013      	str	r3, [r2, #0]
 8000474:	4770      	bx	lr
 8000476:	2300      	movs	r3, #0
 8000478:	4a04      	ldr	r2, [pc, #16]	; (800048c <remove_voice+0x2c>)
 800047a:	6013      	str	r3, [r2, #0]
 800047c:	4a04      	ldr	r2, [pc, #16]	; (8000490 <remove_voice+0x30>)
 800047e:	6013      	str	r3, [r2, #0]
 8000480:	4770      	bx	lr
 8000482:	bf00      	nop
 8000484:	240041b8 	.word	0x240041b8
 8000488:	240040f8 	.word	0x240040f8
 800048c:	240041bc 	.word	0x240041bc
 8000490:	240040fc 	.word	0x240040fc

08000494 <lcd_rs>:
 8000494:	b508      	push	{r3, lr}
 8000496:	b128      	cbz	r0, 80004a4 <lcd_rs+0x10>
 8000498:	2201      	movs	r2, #1
 800049a:	4611      	mov	r1, r2
 800049c:	4804      	ldr	r0, [pc, #16]	; (80004b0 <lcd_rs+0x1c>)
 800049e:	f002 f882 	bl	80025a6 <HAL_GPIO_WritePin>
 80004a2:	bd08      	pop	{r3, pc}
 80004a4:	2200      	movs	r2, #0
 80004a6:	2101      	movs	r1, #1
 80004a8:	4801      	ldr	r0, [pc, #4]	; (80004b0 <lcd_rs+0x1c>)
 80004aa:	f002 f87c 	bl	80025a6 <HAL_GPIO_WritePin>
 80004ae:	e7f8      	b.n	80004a2 <lcd_rs+0xe>
 80004b0:	58021000 	.word	0x58021000

080004b4 <lcd_data>:
 80004b4:	b510      	push	{r4, lr}
 80004b6:	4604      	mov	r4, r0
 80004b8:	f010 0f01 	tst.w	r0, #1
 80004bc:	d03d      	beq.n	800053a <lcd_data+0x86>
 80004be:	2201      	movs	r2, #1
 80004c0:	4611      	mov	r1, r2
 80004c2:	4836      	ldr	r0, [pc, #216]	; (800059c <lcd_data+0xe8>)
 80004c4:	f002 f86f 	bl	80025a6 <HAL_GPIO_WritePin>
 80004c8:	f014 0f02 	tst.w	r4, #2
 80004cc:	d03b      	beq.n	8000546 <lcd_data+0x92>
 80004ce:	2201      	movs	r2, #1
 80004d0:	2102      	movs	r1, #2
 80004d2:	4832      	ldr	r0, [pc, #200]	; (800059c <lcd_data+0xe8>)
 80004d4:	f002 f867 	bl	80025a6 <HAL_GPIO_WritePin>
 80004d8:	f014 0f04 	tst.w	r4, #4
 80004dc:	d039      	beq.n	8000552 <lcd_data+0x9e>
 80004de:	2201      	movs	r2, #1
 80004e0:	2104      	movs	r1, #4
 80004e2:	482e      	ldr	r0, [pc, #184]	; (800059c <lcd_data+0xe8>)
 80004e4:	f002 f85f 	bl	80025a6 <HAL_GPIO_WritePin>
 80004e8:	f014 0f08 	tst.w	r4, #8
 80004ec:	d037      	beq.n	800055e <lcd_data+0xaa>
 80004ee:	2201      	movs	r2, #1
 80004f0:	2108      	movs	r1, #8
 80004f2:	482a      	ldr	r0, [pc, #168]	; (800059c <lcd_data+0xe8>)
 80004f4:	f002 f857 	bl	80025a6 <HAL_GPIO_WritePin>
 80004f8:	f014 0f10 	tst.w	r4, #16
 80004fc:	d035      	beq.n	800056a <lcd_data+0xb6>
 80004fe:	2201      	movs	r2, #1
 8000500:	2110      	movs	r1, #16
 8000502:	4826      	ldr	r0, [pc, #152]	; (800059c <lcd_data+0xe8>)
 8000504:	f002 f84f 	bl	80025a6 <HAL_GPIO_WritePin>
 8000508:	f014 0f20 	tst.w	r4, #32
 800050c:	d033      	beq.n	8000576 <lcd_data+0xc2>
 800050e:	2201      	movs	r2, #1
 8000510:	2120      	movs	r1, #32
 8000512:	4822      	ldr	r0, [pc, #136]	; (800059c <lcd_data+0xe8>)
 8000514:	f002 f847 	bl	80025a6 <HAL_GPIO_WritePin>
 8000518:	f014 0f40 	tst.w	r4, #64	; 0x40
 800051c:	d031      	beq.n	8000582 <lcd_data+0xce>
 800051e:	2201      	movs	r2, #1
 8000520:	2140      	movs	r1, #64	; 0x40
 8000522:	481e      	ldr	r0, [pc, #120]	; (800059c <lcd_data+0xe8>)
 8000524:	f002 f83f 	bl	80025a6 <HAL_GPIO_WritePin>
 8000528:	f014 0f80 	tst.w	r4, #128	; 0x80
 800052c:	d12f      	bne.n	800058e <lcd_data+0xda>
 800052e:	2200      	movs	r2, #0
 8000530:	2180      	movs	r1, #128	; 0x80
 8000532:	481a      	ldr	r0, [pc, #104]	; (800059c <lcd_data+0xe8>)
 8000534:	f002 f837 	bl	80025a6 <HAL_GPIO_WritePin>
 8000538:	bd10      	pop	{r4, pc}
 800053a:	2200      	movs	r2, #0
 800053c:	2101      	movs	r1, #1
 800053e:	4817      	ldr	r0, [pc, #92]	; (800059c <lcd_data+0xe8>)
 8000540:	f002 f831 	bl	80025a6 <HAL_GPIO_WritePin>
 8000544:	e7c0      	b.n	80004c8 <lcd_data+0x14>
 8000546:	2200      	movs	r2, #0
 8000548:	2102      	movs	r1, #2
 800054a:	4814      	ldr	r0, [pc, #80]	; (800059c <lcd_data+0xe8>)
 800054c:	f002 f82b 	bl	80025a6 <HAL_GPIO_WritePin>
 8000550:	e7c2      	b.n	80004d8 <lcd_data+0x24>
 8000552:	2200      	movs	r2, #0
 8000554:	2104      	movs	r1, #4
 8000556:	4811      	ldr	r0, [pc, #68]	; (800059c <lcd_data+0xe8>)
 8000558:	f002 f825 	bl	80025a6 <HAL_GPIO_WritePin>
 800055c:	e7c4      	b.n	80004e8 <lcd_data+0x34>
 800055e:	2200      	movs	r2, #0
 8000560:	2108      	movs	r1, #8
 8000562:	480e      	ldr	r0, [pc, #56]	; (800059c <lcd_data+0xe8>)
 8000564:	f002 f81f 	bl	80025a6 <HAL_GPIO_WritePin>
 8000568:	e7c6      	b.n	80004f8 <lcd_data+0x44>
 800056a:	2200      	movs	r2, #0
 800056c:	2110      	movs	r1, #16
 800056e:	480b      	ldr	r0, [pc, #44]	; (800059c <lcd_data+0xe8>)
 8000570:	f002 f819 	bl	80025a6 <HAL_GPIO_WritePin>
 8000574:	e7c8      	b.n	8000508 <lcd_data+0x54>
 8000576:	2200      	movs	r2, #0
 8000578:	2120      	movs	r1, #32
 800057a:	4808      	ldr	r0, [pc, #32]	; (800059c <lcd_data+0xe8>)
 800057c:	f002 f813 	bl	80025a6 <HAL_GPIO_WritePin>
 8000580:	e7ca      	b.n	8000518 <lcd_data+0x64>
 8000582:	2200      	movs	r2, #0
 8000584:	2140      	movs	r1, #64	; 0x40
 8000586:	4805      	ldr	r0, [pc, #20]	; (800059c <lcd_data+0xe8>)
 8000588:	f002 f80d 	bl	80025a6 <HAL_GPIO_WritePin>
 800058c:	e7cc      	b.n	8000528 <lcd_data+0x74>
 800058e:	2201      	movs	r2, #1
 8000590:	2180      	movs	r1, #128	; 0x80
 8000592:	4802      	ldr	r0, [pc, #8]	; (800059c <lcd_data+0xe8>)
 8000594:	f002 f807 	bl	80025a6 <HAL_GPIO_WritePin>
 8000598:	e7ce      	b.n	8000538 <lcd_data+0x84>
 800059a:	bf00      	nop
 800059c:	58020c00 	.word	0x58020c00

080005a0 <lcd_e>:
 80005a0:	b508      	push	{r3, lr}
 80005a2:	b128      	cbz	r0, 80005b0 <lcd_e+0x10>
 80005a4:	2201      	movs	r2, #1
 80005a6:	2102      	movs	r1, #2
 80005a8:	4804      	ldr	r0, [pc, #16]	; (80005bc <lcd_e+0x1c>)
 80005aa:	f001 fffc 	bl	80025a6 <HAL_GPIO_WritePin>
 80005ae:	bd08      	pop	{r3, pc}
 80005b0:	2200      	movs	r2, #0
 80005b2:	2102      	movs	r1, #2
 80005b4:	4801      	ldr	r0, [pc, #4]	; (80005bc <lcd_e+0x1c>)
 80005b6:	f001 fff6 	bl	80025a6 <HAL_GPIO_WritePin>
 80005ba:	e7f8      	b.n	80005ae <lcd_e+0xe>
 80005bc:	58021000 	.word	0x58021000

080005c0 <lcd_clear>:
 80005c0:	b510      	push	{r4, lr}
 80005c2:	4c07      	ldr	r4, [pc, #28]	; (80005e0 <lcd_clear+0x20>)
 80005c4:	2200      	movs	r2, #0
 80005c6:	2101      	movs	r1, #1
 80005c8:	4620      	mov	r0, r4
 80005ca:	f001 ffec 	bl	80025a6 <HAL_GPIO_WritePin>
 80005ce:	2200      	movs	r2, #0
 80005d0:	2102      	movs	r1, #2
 80005d2:	4620      	mov	r0, r4
 80005d4:	f001 ffe7 	bl	80025a6 <HAL_GPIO_WritePin>
 80005d8:	2000      	movs	r0, #0
 80005da:	f7ff ff6b 	bl	80004b4 <lcd_data>
 80005de:	bd10      	pop	{r4, pc}
 80005e0:	58021000 	.word	0x58021000

080005e4 <i2s>:
 80005e4:	b500      	push	{lr}
 80005e6:	b083      	sub	sp, #12
 80005e8:	f8ad 0004 	strh.w	r0, [sp, #4]
 80005ec:	f8ad 1006 	strh.w	r1, [sp, #6]
 80005f0:	2300      	movs	r3, #0
 80005f2:	2202      	movs	r2, #2
 80005f4:	a901      	add	r1, sp, #4
 80005f6:	4803      	ldr	r0, [pc, #12]	; (8000604 <i2s+0x20>)
 80005f8:	f002 f8ce 	bl	8002798 <HAL_I2S_Transmit>
 80005fc:	b003      	add	sp, #12
 80005fe:	f85d fb04 	ldr.w	pc, [sp], #4
 8000602:	bf00      	nop
 8000604:	24004164 	.word	0x24004164

08000608 <lcd_enable>:
 8000608:	b508      	push	{r3, lr}
 800060a:	2000      	movs	r0, #0
 800060c:	f7ff ffc8 	bl	80005a0 <lcd_e>
 8000610:	2001      	movs	r0, #1
 8000612:	f000 fecd 	bl	80013b0 <HAL_Delay>
 8000616:	2001      	movs	r0, #1
 8000618:	f7ff ffc2 	bl	80005a0 <lcd_e>
 800061c:	2001      	movs	r0, #1
 800061e:	f000 fec7 	bl	80013b0 <HAL_Delay>
 8000622:	2000      	movs	r0, #0
 8000624:	f7ff ffbc 	bl	80005a0 <lcd_e>
 8000628:	2001      	movs	r0, #1
 800062a:	f000 fec1 	bl	80013b0 <HAL_Delay>
 800062e:	bd08      	pop	{r3, pc}

08000630 <lcd_config>:
 8000630:	b510      	push	{r4, lr}
 8000632:	4604      	mov	r4, r0
 8000634:	2000      	movs	r0, #0
 8000636:	f7ff ff2d 	bl	8000494 <lcd_rs>
 800063a:	4620      	mov	r0, r4
 800063c:	f7ff ff3a 	bl	80004b4 <lcd_data>
 8000640:	f7ff ffe2 	bl	8000608 <lcd_enable>
 8000644:	f7ff ffbc 	bl	80005c0 <lcd_clear>
 8000648:	bd10      	pop	{r4, pc}

0800064a <lcd_pos>:
 800064a:	b508      	push	{r3, lr}
 800064c:	b108      	cbz	r0, 8000652 <lcd_pos+0x8>
 800064e:	f041 0140 	orr.w	r1, r1, #64	; 0x40
 8000652:	f041 0080 	orr.w	r0, r1, #128	; 0x80
 8000656:	f7ff ffeb 	bl	8000630 <lcd_config>
 800065a:	bd08      	pop	{r3, pc}

0800065c <lcd_write>:
 800065c:	b510      	push	{r4, lr}
 800065e:	4604      	mov	r4, r0
 8000660:	2001      	movs	r0, #1
 8000662:	f7ff ff17 	bl	8000494 <lcd_rs>
 8000666:	4620      	mov	r0, r4
 8000668:	f7ff ff24 	bl	80004b4 <lcd_data>
 800066c:	f7ff ffcc 	bl	8000608 <lcd_enable>
 8000670:	f7ff ffa6 	bl	80005c0 <lcd_clear>
 8000674:	bd10      	pop	{r4, pc}
	...

08000678 <lcd_number>:
 8000678:	b570      	push	{r4, r5, r6, lr}
 800067a:	460e      	mov	r6, r1
 800067c:	eb00 0080 	add.w	r0, r0, r0, lsl #2
 8000680:	0045      	lsls	r5, r0, #1
 8000682:	b2d9      	uxtb	r1, r3
 8000684:	b2d0      	uxtb	r0, r2
 8000686:	f7ff ffe0 	bl	800064a <lcd_pos>
 800068a:	4634      	mov	r4, r6
 800068c:	e016      	b.n	80006bc <lcd_number+0x44>
 800068e:	eb03 0383 	add.w	r3, r3, r3, lsl #2
 8000692:	005b      	lsls	r3, r3, #1
 8000694:	3201      	adds	r2, #1
 8000696:	4294      	cmp	r4, r2
 8000698:	d2f9      	bcs.n	800068e <lcd_number+0x16>
 800069a:	42b4      	cmp	r4, r6
 800069c:	d212      	bcs.n	80006c4 <lcd_number+0x4c>
 800069e:	fbb5 f3f3 	udiv	r3, r5, r3
 80006a2:	480b      	ldr	r0, [pc, #44]	; (80006d0 <lcd_number+0x58>)
 80006a4:	fba0 2003 	umull	r2, r0, r0, r3
 80006a8:	08c0      	lsrs	r0, r0, #3
 80006aa:	eb00 0080 	add.w	r0, r0, r0, lsl #2
 80006ae:	eba3 0040 	sub.w	r0, r3, r0, lsl #1
 80006b2:	3030      	adds	r0, #48	; 0x30
 80006b4:	b2c0      	uxtb	r0, r0
 80006b6:	f7ff ffd1 	bl	800065c <lcd_write>
 80006ba:	3c01      	subs	r4, #1
 80006bc:	b13c      	cbz	r4, 80006ce <lcd_number+0x56>
 80006be:	2201      	movs	r2, #1
 80006c0:	4613      	mov	r3, r2
 80006c2:	e7e8      	b.n	8000696 <lcd_number+0x1e>
 80006c4:	fbb5 f3f3 	udiv	r3, r5, r3
 80006c8:	f103 0030 	add.w	r0, r3, #48	; 0x30
 80006cc:	e7f2      	b.n	80006b4 <lcd_number+0x3c>
 80006ce:	bd70      	pop	{r4, r5, r6, pc}
 80006d0:	cccccccd 	.word	0xcccccccd

080006d4 <lcd_string>:
 80006d4:	b538      	push	{r3, r4, r5, lr}
 80006d6:	4604      	mov	r4, r0
 80006d8:	4608      	mov	r0, r1
 80006da:	b2d1      	uxtb	r1, r2
 80006dc:	b2c0      	uxtb	r0, r0
 80006de:	f7ff ffb4 	bl	800064a <lcd_pos>
 80006e2:	2300      	movs	r3, #0
 80006e4:	1c5d      	adds	r5, r3, #1
 80006e6:	2b0f      	cmp	r3, #15
 80006e8:	d806      	bhi.n	80006f8 <lcd_string+0x24>
 80006ea:	7820      	ldrb	r0, [r4, #0]
 80006ec:	b120      	cbz	r0, 80006f8 <lcd_string+0x24>
 80006ee:	3401      	adds	r4, #1
 80006f0:	f7ff ffb4 	bl	800065c <lcd_write>
 80006f4:	462b      	mov	r3, r5
 80006f6:	e7f5      	b.n	80006e4 <lcd_string+0x10>
 80006f8:	bd38      	pop	{r3, r4, r5, pc}
	...

080006fc <refresh>:
 80006fc:	b510      	push	{r4, lr}
 80006fe:	4c2d      	ldr	r4, [pc, #180]	; (80007b4 <refresh+0xb8>)
 8000700:	7820      	ldrb	r0, [r4, #0]
 8000702:	2200      	movs	r2, #0
 8000704:	4611      	mov	r1, r2
 8000706:	4b2c      	ldr	r3, [pc, #176]	; (80007b8 <refresh+0xbc>)
 8000708:	eb03 1000 	add.w	r0, r3, r0, lsl #4
 800070c:	f7ff ffe2 	bl	80006d4 <lcd_string>
 8000710:	2200      	movs	r2, #0
 8000712:	2101      	movs	r1, #1
 8000714:	4829      	ldr	r0, [pc, #164]	; (80007bc <refresh+0xc0>)
 8000716:	f7ff ffdd 	bl	80006d4 <lcd_string>
 800071a:	2300      	movs	r3, #0
 800071c:	2201      	movs	r2, #1
 800071e:	4611      	mov	r1, r2
 8000720:	7820      	ldrb	r0, [r4, #0]
 8000722:	f7ff ffa9 	bl	8000678 <lcd_number>
 8000726:	7823      	ldrb	r3, [r4, #0]
 8000728:	2b05      	cmp	r3, #5
 800072a:	d80b      	bhi.n	8000744 <refresh+0x48>
 800072c:	e8df f003 	tbb	[pc, r3]
 8000730:	1e130b03 	.word	0x1e130b03
 8000734:	3529      	.short	0x3529
 8000736:	2306      	movs	r3, #6
 8000738:	2201      	movs	r2, #1
 800073a:	2102      	movs	r1, #2
 800073c:	4820      	ldr	r0, [pc, #128]	; (80007c0 <refresh+0xc4>)
 800073e:	8800      	ldrh	r0, [r0, #0]
 8000740:	f7ff ff9a 	bl	8000678 <lcd_number>
 8000744:	bd10      	pop	{r4, pc}
 8000746:	2306      	movs	r3, #6
 8000748:	2201      	movs	r2, #1
 800074a:	2102      	movs	r1, #2
 800074c:	481c      	ldr	r0, [pc, #112]	; (80007c0 <refresh+0xc4>)
 800074e:	8840      	ldrh	r0, [r0, #2]
 8000750:	f7ff ff92 	bl	8000678 <lcd_number>
 8000754:	e7f6      	b.n	8000744 <refresh+0x48>
 8000756:	4b1a      	ldr	r3, [pc, #104]	; (80007c0 <refresh+0xc4>)
 8000758:	7918      	ldrb	r0, [r3, #4]
 800075a:	eb00 00c0 	add.w	r0, r0, r0, lsl #3
 800075e:	2204      	movs	r2, #4
 8000760:	2101      	movs	r1, #1
 8000762:	4b18      	ldr	r3, [pc, #96]	; (80007c4 <refresh+0xc8>)
 8000764:	4418      	add	r0, r3
 8000766:	f7ff ffb5 	bl	80006d4 <lcd_string>
 800076a:	e7eb      	b.n	8000744 <refresh+0x48>
 800076c:	4b14      	ldr	r3, [pc, #80]	; (80007c0 <refresh+0xc4>)
 800076e:	7958      	ldrb	r0, [r3, #5]
 8000770:	eb00 00c0 	add.w	r0, r0, r0, lsl #3
 8000774:	2204      	movs	r2, #4
 8000776:	2101      	movs	r1, #1
 8000778:	4b12      	ldr	r3, [pc, #72]	; (80007c4 <refresh+0xc8>)
 800077a:	4418      	add	r0, r3
 800077c:	f7ff ffaa 	bl	80006d4 <lcd_string>
 8000780:	e7e0      	b.n	8000744 <refresh+0x48>
 8000782:	4b0f      	ldr	r3, [pc, #60]	; (80007c0 <refresh+0xc4>)
 8000784:	799b      	ldrb	r3, [r3, #6]
 8000786:	eb03 0343 	add.w	r3, r3, r3, lsl #1
 800078a:	0058      	lsls	r0, r3, #1
 800078c:	2205      	movs	r2, #5
 800078e:	2101      	movs	r1, #1
 8000790:	4b0d      	ldr	r3, [pc, #52]	; (80007c8 <refresh+0xcc>)
 8000792:	4418      	add	r0, r3
 8000794:	f7ff ff9e 	bl	80006d4 <lcd_string>
 8000798:	e7d4      	b.n	8000744 <refresh+0x48>
 800079a:	4b09      	ldr	r3, [pc, #36]	; (80007c0 <refresh+0xc4>)
 800079c:	79db      	ldrb	r3, [r3, #7]
 800079e:	eb03 0343 	add.w	r3, r3, r3, lsl #1
 80007a2:	0058      	lsls	r0, r3, #1
 80007a4:	2205      	movs	r2, #5
 80007a6:	2101      	movs	r1, #1
 80007a8:	4b07      	ldr	r3, [pc, #28]	; (80007c8 <refresh+0xcc>)
 80007aa:	4418      	add	r0, r3
 80007ac:	f7ff ff92 	bl	80006d4 <lcd_string>
 80007b0:	e7c8      	b.n	8000744 <refresh+0x48>
 80007b2:	bf00      	nop
 80007b4:	240041c0 	.word	0x240041c0
 80007b8:	24003e80 	.word	0x24003e80
 80007bc:	08005090 	.word	0x08005090
 80007c0:	240041c4 	.word	0x240041c4
 80007c4:	240040a4 	.word	0x240040a4
 80007c8:	24003f00 	.word	0x24003f00

080007cc <lcd_flush>:
 80007cc:	b508      	push	{r3, lr}
 80007ce:	2000      	movs	r0, #0
 80007d0:	f7ff fe60 	bl	8000494 <lcd_rs>
 80007d4:	2001      	movs	r0, #1
 80007d6:	f7ff fe6d 	bl	80004b4 <lcd_data>
 80007da:	f7ff ff15 	bl	8000608 <lcd_enable>
 80007de:	2002      	movs	r0, #2
 80007e0:	f000 fde6 	bl	80013b0 <HAL_Delay>
 80007e4:	f7ff feec 	bl	80005c0 <lcd_clear>
 80007e8:	bd08      	pop	{r3, pc}

080007ea <lcd_init>:
 80007ea:	b508      	push	{r3, lr}
 80007ec:	2006      	movs	r0, #6
 80007ee:	f7ff ff1f 	bl	8000630 <lcd_config>
 80007f2:	200c      	movs	r0, #12
 80007f4:	f7ff ff1c 	bl	8000630 <lcd_config>
 80007f8:	2038      	movs	r0, #56	; 0x38
 80007fa:	f7ff ff19 	bl	8000630 <lcd_config>
 80007fe:	f7ff ffe5 	bl	80007cc <lcd_flush>
 8000802:	2100      	movs	r1, #0
 8000804:	4608      	mov	r0, r1
 8000806:	f7ff ff20 	bl	800064a <lcd_pos>
 800080a:	bd08      	pop	{r3, pc}

0800080c <delay>:
 800080c:	b508      	push	{r3, lr}
 800080e:	f000 fdcf 	bl	80013b0 <HAL_Delay>
 8000812:	bd08      	pop	{r3, pc}

08000814 <button_check>:
 8000814:	b538      	push	{r3, r4, r5, lr}
 8000816:	2104      	movs	r1, #4
 8000818:	4811      	ldr	r0, [pc, #68]	; (8000860 <button_check+0x4c>)
 800081a:	f001 febd 	bl	8002598 <HAL_GPIO_ReadPin>
 800081e:	b9d8      	cbnz	r0, 8000858 <button_check+0x44>
 8000820:	4605      	mov	r5, r0
 8000822:	2400      	movs	r4, #0
 8000824:	2108      	movs	r1, #8
 8000826:	480e      	ldr	r0, [pc, #56]	; (8000860 <button_check+0x4c>)
 8000828:	f001 feb6 	bl	8002598 <HAL_GPIO_ReadPin>
 800082c:	b108      	cbz	r0, 8000832 <button_check+0x1e>
 800082e:	3401      	adds	r4, #1
 8000830:	2502      	movs	r5, #2
 8000832:	2110      	movs	r1, #16
 8000834:	480a      	ldr	r0, [pc, #40]	; (8000860 <button_check+0x4c>)
 8000836:	f001 feaf 	bl	8002598 <HAL_GPIO_ReadPin>
 800083a:	b108      	cbz	r0, 8000840 <button_check+0x2c>
 800083c:	3401      	adds	r4, #1
 800083e:	2503      	movs	r5, #3
 8000840:	2120      	movs	r1, #32
 8000842:	4807      	ldr	r0, [pc, #28]	; (8000860 <button_check+0x4c>)
 8000844:	f001 fea8 	bl	8002598 <HAL_GPIO_ReadPin>
 8000848:	b108      	cbz	r0, 800084e <button_check+0x3a>
 800084a:	3401      	adds	r4, #1
 800084c:	2504      	movs	r5, #4
 800084e:	2c01      	cmp	r4, #1
 8000850:	d900      	bls.n	8000854 <button_check+0x40>
 8000852:	2500      	movs	r5, #0
 8000854:	4628      	mov	r0, r5
 8000856:	bd38      	pop	{r3, r4, r5, pc}
 8000858:	2401      	movs	r4, #1
 800085a:	4625      	mov	r5, r4
 800085c:	e7e2      	b.n	8000824 <button_check+0x10>
 800085e:	bf00      	nop
 8000860:	58021000 	.word	0x58021000

08000864 <adc>:
 8000864:	b570      	push	{r4, r5, r6, lr}
 8000866:	2600      	movs	r6, #0
 8000868:	4635      	mov	r5, r6
 800086a:	2d31      	cmp	r5, #49	; 0x31
 800086c:	d810      	bhi.n	8000890 <adc+0x2c>
 800086e:	4c0d      	ldr	r4, [pc, #52]	; (80008a4 <adc+0x40>)
 8000870:	4620      	mov	r0, r4
 8000872:	f001 f9ab 	bl	8001bcc <HAL_ADC_Start>
 8000876:	2101      	movs	r1, #1
 8000878:	4620      	mov	r0, r4
 800087a:	f000 fdb3 	bl	80013e4 <HAL_ADC_PollForConversion>
 800087e:	4620      	mov	r0, r4
 8000880:	f000 fe4a 	bl	8001518 <HAL_ADC_GetValue>
 8000884:	4406      	add	r6, r0
 8000886:	4620      	mov	r0, r4
 8000888:	f001 fa72 	bl	8001d70 <HAL_ADC_Stop>
 800088c:	3501      	adds	r5, #1
 800088e:	e7ec      	b.n	800086a <adc+0x6>
 8000890:	4805      	ldr	r0, [pc, #20]	; (80008a8 <adc+0x44>)
 8000892:	fba0 3006 	umull	r3, r0, r0, r6
 8000896:	0c00      	lsrs	r0, r0, #16
 8000898:	3802      	subs	r0, #2
 800089a:	d400      	bmi.n	800089e <adc+0x3a>
 800089c:	bd70      	pop	{r4, r5, r6, pc}
 800089e:	2000      	movs	r0, #0
 80008a0:	e7fc      	b.n	800089c <adc+0x38>
 80008a2:	bf00      	nop
 80008a4:	24004100 	.word	0x24004100
 80008a8:	8aa798f5 	.word	0x8aa798f5

080008ac <customButtonInterrupt>:
 80008ac:	4770      	bx	lr
	...

080008b0 <customTimerInterrupt>:
 80008b0:	b500      	push	{lr}
 80008b2:	b083      	sub	sp, #12
 80008b4:	2300      	movs	r3, #0
 80008b6:	f8ad 3006 	strh.w	r3, [sp, #6]
 80008ba:	f8ad 3004 	strh.w	r3, [sp, #4]
 80008be:	2201      	movs	r2, #1
 80008c0:	2120      	movs	r1, #32
 80008c2:	486c      	ldr	r0, [pc, #432]	; (8000a74 <customTimerInterrupt+0x1c4>)
 80008c4:	f001 fe6f 	bl	80025a6 <HAL_GPIO_WritePin>
 80008c8:	4a6b      	ldr	r2, [pc, #428]	; (8000a78 <customTimerInterrupt+0x1c8>)
 80008ca:	6813      	ldr	r3, [r2, #0]
 80008cc:	496b      	ldr	r1, [pc, #428]	; (8000a7c <customTimerInterrupt+0x1cc>)
 80008ce:	6809      	ldr	r1, [r1, #0]
 80008d0:	440b      	add	r3, r1
 80008d2:	6013      	str	r3, [r2, #0]
 80008d4:	f5b3 1ffa 	cmp.w	r3, #2048000	; 0x1f4000
 80008d8:	d302      	bcc.n	80008e0 <customTimerInterrupt+0x30>
 80008da:	f5a3 13fa 	sub.w	r3, r3, #2048000	; 0x1f4000
 80008de:	6013      	str	r3, [r2, #0]
 80008e0:	4b67      	ldr	r3, [pc, #412]	; (8000a80 <customTimerInterrupt+0x1d0>)
 80008e2:	791b      	ldrb	r3, [r3, #4]
 80008e4:	2b03      	cmp	r3, #3
 80008e6:	d814      	bhi.n	8000912 <customTimerInterrupt+0x62>
 80008e8:	e8df f003 	tbb	[pc, r3]
 80008ec:	513d2902 	.word	0x513d2902
 80008f0:	4b61      	ldr	r3, [pc, #388]	; (8000a78 <customTimerInterrupt+0x1c8>)
 80008f2:	681b      	ldr	r3, [r3, #0]
 80008f4:	0a9b      	lsrs	r3, r3, #10
 80008f6:	4a63      	ldr	r2, [pc, #396]	; (8000a84 <customTimerInterrupt+0x1d4>)
 80008f8:	f832 3013 	ldrh.w	r3, [r2, r3, lsl #1]
 80008fc:	b21a      	sxth	r2, r3
 80008fe:	4b60      	ldr	r3, [pc, #384]	; (8000a80 <customTimerInterrupt+0x1d0>)
 8000900:	881b      	ldrh	r3, [r3, #0]
 8000902:	fb03 f302 	mul.w	r3, r3, r2
 8000906:	2b00      	cmp	r3, #0
 8000908:	db17      	blt.n	800093a <customTimerInterrupt+0x8a>
 800090a:	f3c3 130f 	ubfx	r3, r3, #4, #16
 800090e:	f8ad 3006 	strh.w	r3, [sp, #6]
 8000912:	4a5d      	ldr	r2, [pc, #372]	; (8000a88 <customTimerInterrupt+0x1d8>)
 8000914:	6813      	ldr	r3, [r2, #0]
 8000916:	495d      	ldr	r1, [pc, #372]	; (8000a8c <customTimerInterrupt+0x1dc>)
 8000918:	6809      	ldr	r1, [r1, #0]
 800091a:	440b      	add	r3, r1
 800091c:	6013      	str	r3, [r2, #0]
 800091e:	f5b3 1ffa 	cmp.w	r3, #2048000	; 0x1f4000
 8000922:	d302      	bcc.n	800092a <customTimerInterrupt+0x7a>
 8000924:	f5a3 13fa 	sub.w	r3, r3, #2048000	; 0x1f4000
 8000928:	6013      	str	r3, [r2, #0]
 800092a:	4b55      	ldr	r3, [pc, #340]	; (8000a80 <customTimerInterrupt+0x1d0>)
 800092c:	795b      	ldrb	r3, [r3, #5]
 800092e:	2b03      	cmp	r3, #3
 8000930:	d852      	bhi.n	80009d8 <customTimerInterrupt+0x128>
 8000932:	e8df f003 	tbb	[pc, r3]
 8000936:	6340      	.short	0x6340
 8000938:	8b77      	.short	0x8b77
 800093a:	330f      	adds	r3, #15
 800093c:	e7e5      	b.n	800090a <customTimerInterrupt+0x5a>
 800093e:	4b4e      	ldr	r3, [pc, #312]	; (8000a78 <customTimerInterrupt+0x1c8>)
 8000940:	681b      	ldr	r3, [r3, #0]
 8000942:	0a9b      	lsrs	r3, r3, #10
 8000944:	4a52      	ldr	r2, [pc, #328]	; (8000a90 <customTimerInterrupt+0x1e0>)
 8000946:	f832 3013 	ldrh.w	r3, [r2, r3, lsl #1]
 800094a:	b21a      	sxth	r2, r3
 800094c:	4b4c      	ldr	r3, [pc, #304]	; (8000a80 <customTimerInterrupt+0x1d0>)
 800094e:	881b      	ldrh	r3, [r3, #0]
 8000950:	fb03 f302 	mul.w	r3, r3, r2
 8000954:	2b00      	cmp	r3, #0
 8000956:	db04      	blt.n	8000962 <customTimerInterrupt+0xb2>
 8000958:	f3c3 130f 	ubfx	r3, r3, #4, #16
 800095c:	f8ad 3006 	strh.w	r3, [sp, #6]
 8000960:	e7d7      	b.n	8000912 <customTimerInterrupt+0x62>
 8000962:	330f      	adds	r3, #15
 8000964:	e7f8      	b.n	8000958 <customTimerInterrupt+0xa8>
 8000966:	4b44      	ldr	r3, [pc, #272]	; (8000a78 <customTimerInterrupt+0x1c8>)
 8000968:	681b      	ldr	r3, [r3, #0]
 800096a:	0a9b      	lsrs	r3, r3, #10
 800096c:	4a49      	ldr	r2, [pc, #292]	; (8000a94 <customTimerInterrupt+0x1e4>)
 800096e:	f832 3013 	ldrh.w	r3, [r2, r3, lsl #1]
 8000972:	b21a      	sxth	r2, r3
 8000974:	4b42      	ldr	r3, [pc, #264]	; (8000a80 <customTimerInterrupt+0x1d0>)
 8000976:	881b      	ldrh	r3, [r3, #0]
 8000978:	fb03 f302 	mul.w	r3, r3, r2
 800097c:	2b00      	cmp	r3, #0
 800097e:	db04      	blt.n	800098a <customTimerInterrupt+0xda>
 8000980:	f3c3 130f 	ubfx	r3, r3, #4, #16
 8000984:	f8ad 3006 	strh.w	r3, [sp, #6]
 8000988:	e7c3      	b.n	8000912 <customTimerInterrupt+0x62>
 800098a:	330f      	adds	r3, #15
 800098c:	e7f8      	b.n	8000980 <customTimerInterrupt+0xd0>
 800098e:	4b3a      	ldr	r3, [pc, #232]	; (8000a78 <customTimerInterrupt+0x1c8>)
 8000990:	681b      	ldr	r3, [r3, #0]
 8000992:	0a9b      	lsrs	r3, r3, #10
 8000994:	4a40      	ldr	r2, [pc, #256]	; (8000a98 <customTimerInterrupt+0x1e8>)
 8000996:	f832 3013 	ldrh.w	r3, [r2, r3, lsl #1]
 800099a:	b21a      	sxth	r2, r3
 800099c:	4b38      	ldr	r3, [pc, #224]	; (8000a80 <customTimerInterrupt+0x1d0>)
 800099e:	881b      	ldrh	r3, [r3, #0]
 80009a0:	fb03 f302 	mul.w	r3, r3, r2
 80009a4:	2b00      	cmp	r3, #0
 80009a6:	db04      	blt.n	80009b2 <customTimerInterrupt+0x102>
 80009a8:	f3c3 130f 	ubfx	r3, r3, #4, #16
 80009ac:	f8ad 3006 	strh.w	r3, [sp, #6]
 80009b0:	e7af      	b.n	8000912 <customTimerInterrupt+0x62>
 80009b2:	330f      	adds	r3, #15
 80009b4:	e7f8      	b.n	80009a8 <customTimerInterrupt+0xf8>
 80009b6:	4b34      	ldr	r3, [pc, #208]	; (8000a88 <customTimerInterrupt+0x1d8>)
 80009b8:	681b      	ldr	r3, [r3, #0]
 80009ba:	0a9b      	lsrs	r3, r3, #10
 80009bc:	4a31      	ldr	r2, [pc, #196]	; (8000a84 <customTimerInterrupt+0x1d4>)
 80009be:	f832 3013 	ldrh.w	r3, [r2, r3, lsl #1]
 80009c2:	b21a      	sxth	r2, r3
 80009c4:	4b2e      	ldr	r3, [pc, #184]	; (8000a80 <customTimerInterrupt+0x1d0>)
 80009c6:	885b      	ldrh	r3, [r3, #2]
 80009c8:	fb03 f302 	mul.w	r3, r3, r2
 80009cc:	2b00      	cmp	r3, #0
 80009ce:	db13      	blt.n	80009f8 <customTimerInterrupt+0x148>
 80009d0:	f3c3 130f 	ubfx	r3, r3, #4, #16
 80009d4:	f8ad 3004 	strh.w	r3, [sp, #4]
 80009d8:	f8bd 0006 	ldrh.w	r0, [sp, #6]
 80009dc:	f8bd 1004 	ldrh.w	r1, [sp, #4]
 80009e0:	b289      	uxth	r1, r1
 80009e2:	b280      	uxth	r0, r0
 80009e4:	f7ff fdfe 	bl	80005e4 <i2s>
 80009e8:	2200      	movs	r2, #0
 80009ea:	2120      	movs	r1, #32
 80009ec:	4821      	ldr	r0, [pc, #132]	; (8000a74 <customTimerInterrupt+0x1c4>)
 80009ee:	f001 fdda 	bl	80025a6 <HAL_GPIO_WritePin>
 80009f2:	b003      	add	sp, #12
 80009f4:	f85d fb04 	ldr.w	pc, [sp], #4
 80009f8:	330f      	adds	r3, #15
 80009fa:	e7e9      	b.n	80009d0 <customTimerInterrupt+0x120>
 80009fc:	4b22      	ldr	r3, [pc, #136]	; (8000a88 <customTimerInterrupt+0x1d8>)
 80009fe:	681b      	ldr	r3, [r3, #0]
 8000a00:	0a9b      	lsrs	r3, r3, #10
 8000a02:	4a23      	ldr	r2, [pc, #140]	; (8000a90 <customTimerInterrupt+0x1e0>)
 8000a04:	f832 3013 	ldrh.w	r3, [r2, r3, lsl #1]
 8000a08:	b21a      	sxth	r2, r3
 8000a0a:	4b1d      	ldr	r3, [pc, #116]	; (8000a80 <customTimerInterrupt+0x1d0>)
 8000a0c:	885b      	ldrh	r3, [r3, #2]
 8000a0e:	fb03 f302 	mul.w	r3, r3, r2
 8000a12:	2b00      	cmp	r3, #0
 8000a14:	db04      	blt.n	8000a20 <customTimerInterrupt+0x170>
 8000a16:	f3c3 130f 	ubfx	r3, r3, #4, #16
 8000a1a:	f8ad 3004 	strh.w	r3, [sp, #4]
 8000a1e:	e7db      	b.n	80009d8 <customTimerInterrupt+0x128>
 8000a20:	330f      	adds	r3, #15
 8000a22:	e7f8      	b.n	8000a16 <customTimerInterrupt+0x166>
 8000a24:	4b18      	ldr	r3, [pc, #96]	; (8000a88 <customTimerInterrupt+0x1d8>)
 8000a26:	681b      	ldr	r3, [r3, #0]
 8000a28:	0a9b      	lsrs	r3, r3, #10
 8000a2a:	4a1a      	ldr	r2, [pc, #104]	; (8000a94 <customTimerInterrupt+0x1e4>)
 8000a2c:	f832 3013 	ldrh.w	r3, [r2, r3, lsl #1]
 8000a30:	b21a      	sxth	r2, r3
 8000a32:	4b13      	ldr	r3, [pc, #76]	; (8000a80 <customTimerInterrupt+0x1d0>)
 8000a34:	885b      	ldrh	r3, [r3, #2]
 8000a36:	fb03 f302 	mul.w	r3, r3, r2
 8000a3a:	2b00      	cmp	r3, #0
 8000a3c:	db04      	blt.n	8000a48 <customTimerInterrupt+0x198>
 8000a3e:	f3c3 130f 	ubfx	r3, r3, #4, #16
 8000a42:	f8ad 3004 	strh.w	r3, [sp, #4]
 8000a46:	e7c7      	b.n	80009d8 <customTimerInterrupt+0x128>
 8000a48:	330f      	adds	r3, #15
 8000a4a:	e7f8      	b.n	8000a3e <customTimerInterrupt+0x18e>
 8000a4c:	4b0e      	ldr	r3, [pc, #56]	; (8000a88 <customTimerInterrupt+0x1d8>)
 8000a4e:	681b      	ldr	r3, [r3, #0]
 8000a50:	0a9b      	lsrs	r3, r3, #10
 8000a52:	4a11      	ldr	r2, [pc, #68]	; (8000a98 <customTimerInterrupt+0x1e8>)
 8000a54:	f832 3013 	ldrh.w	r3, [r2, r3, lsl #1]
 8000a58:	b21a      	sxth	r2, r3
 8000a5a:	4b09      	ldr	r3, [pc, #36]	; (8000a80 <customTimerInterrupt+0x1d0>)
 8000a5c:	885b      	ldrh	r3, [r3, #2]
 8000a5e:	fb03 f302 	mul.w	r3, r3, r2
 8000a62:	2b00      	cmp	r3, #0
 8000a64:	db04      	blt.n	8000a70 <customTimerInterrupt+0x1c0>
 8000a66:	f3c3 130f 	ubfx	r3, r3, #4, #16
 8000a6a:	f8ad 3004 	strh.w	r3, [sp, #4]
 8000a6e:	e7b3      	b.n	80009d8 <customTimerInterrupt+0x128>
 8000a70:	330f      	adds	r3, #15
 8000a72:	e7f8      	b.n	8000a66 <customTimerInterrupt+0x1b6>
 8000a74:	58020400 	.word	0x58020400
 8000a78:	240040f8 	.word	0x240040f8
 8000a7c:	240041b8 	.word	0x240041b8
 8000a80:	240041c4 	.word	0x240041c4
 8000a84:	24000fa0 	.word	0x24000fa0
 8000a88:	240040fc 	.word	0x240040fc
 8000a8c:	240041bc 	.word	0x240041bc
 8000a90:	24001f40 	.word	0x24001f40
 8000a94:	24002ee0 	.word	0x24002ee0
 8000a98:	24000000 	.word	0x24000000

08000a9c <customSetup>:
 8000a9c:	b084      	sub	sp, #16
 8000a9e:	b508      	push	{r3, lr}
 8000aa0:	f10d 0c08 	add.w	ip, sp, #8
 8000aa4:	e88c 000f 	stmia.w	ip, {r0, r1, r2, r3}
 8000aa8:	2264      	movs	r2, #100	; 0x64
 8000aaa:	4661      	mov	r1, ip
 8000aac:	480d      	ldr	r0, [pc, #52]	; (8000ae4 <customSetup+0x48>)
 8000aae:	f004 facd 	bl	800504c <memcpy>
 8000ab2:	2254      	movs	r2, #84	; 0x54
 8000ab4:	a91b      	add	r1, sp, #108	; 0x6c
 8000ab6:	480c      	ldr	r0, [pc, #48]	; (8000ae8 <customSetup+0x4c>)
 8000ab8:	f004 fac8 	bl	800504c <memcpy>
 8000abc:	f7ff fe95 	bl	80007ea <lcd_init>
 8000ac0:	4b0a      	ldr	r3, [pc, #40]	; (8000aec <customSetup+0x50>)
 8000ac2:	2207      	movs	r2, #7
 8000ac4:	801a      	strh	r2, [r3, #0]
 8000ac6:	805a      	strh	r2, [r3, #2]
 8000ac8:	2200      	movs	r2, #0
 8000aca:	711a      	strb	r2, [r3, #4]
 8000acc:	715a      	strb	r2, [r3, #5]
 8000ace:	719a      	strb	r2, [r3, #6]
 8000ad0:	71da      	strb	r2, [r3, #7]
 8000ad2:	200a      	movs	r0, #10
 8000ad4:	f7ff fe9a 	bl	800080c <delay>
 8000ad8:	f7ff fe10 	bl	80006fc <refresh>
 8000adc:	e8bd 4008 	ldmia.w	sp!, {r3, lr}
 8000ae0:	b004      	add	sp, #16
 8000ae2:	4770      	bx	lr
 8000ae4:	24004100 	.word	0x24004100
 8000ae8:	24004164 	.word	0x24004164
 8000aec:	240041c4 	.word	0x240041c4

08000af0 <customLoop>:
 8000af0:	b570      	push	{r4, r5, r6, lr}
 8000af2:	f7ff fe8f 	bl	8000814 <button_check>
 8000af6:	4604      	mov	r4, r0
 8000af8:	f7ff feb4 	bl	8000864 <adc>
 8000afc:	4605      	mov	r5, r0
 8000afe:	b286      	uxth	r6, r0
 8000b00:	b19c      	cbz	r4, 8000b2a <customLoop+0x3a>
 8000b02:	4b95      	ldr	r3, [pc, #596]	; (8000d58 <customLoop+0x268>)
 8000b04:	781b      	ldrb	r3, [r3, #0]
 8000b06:	2b05      	cmp	r3, #5
 8000b08:	d80f      	bhi.n	8000b2a <customLoop+0x3a>
 8000b0a:	e8df f013 	tbh	[pc, r3, lsl #1]
 8000b0e:	0006      	.short	0x0006
 8000b10:	0062003f 	.word	0x0062003f
 8000b14:	00a80085 	.word	0x00a80085
 8000b18:	00cb      	.short	0x00cb
 8000b1a:	2c03      	cmp	r4, #3
 8000b1c:	d024      	beq.n	8000b68 <customLoop+0x78>
 8000b1e:	2c04      	cmp	r4, #4
 8000b20:	d02c      	beq.n	8000b7c <customLoop+0x8c>
 8000b22:	2c02      	cmp	r4, #2
 8000b24:	d01c      	beq.n	8000b60 <customLoop+0x70>
 8000b26:	f7ff fde9 	bl	80006fc <refresh>
 8000b2a:	4b8c      	ldr	r3, [pc, #560]	; (8000d5c <customLoop+0x26c>)
 8000b2c:	881b      	ldrh	r3, [r3, #0]
 8000b2e:	42b3      	cmp	r3, r6
 8000b30:	d012      	beq.n	8000b58 <customLoop+0x68>
 8000b32:	4b8a      	ldr	r3, [pc, #552]	; (8000d5c <customLoop+0x26c>)
 8000b34:	801e      	strh	r6, [r3, #0]
 8000b36:	2e00      	cmp	r6, #0
 8000b38:	f040 80d3 	bne.w	8000ce2 <customLoop+0x1f2>
 8000b3c:	2201      	movs	r2, #1
 8000b3e:	2102      	movs	r1, #2
 8000b40:	4887      	ldr	r0, [pc, #540]	; (8000d60 <customLoop+0x270>)
 8000b42:	f001 fd30 	bl	80025a6 <HAL_GPIO_WritePin>
 8000b46:	2001      	movs	r0, #1
 8000b48:	f7ff fc8a 	bl	8000460 <remove_voice>
 8000b4c:	2002      	movs	r0, #2
 8000b4e:	f7ff fc87 	bl	8000460 <remove_voice>
 8000b52:	2005      	movs	r0, #5
 8000b54:	f7ff fe5a 	bl	800080c <delay>
 8000b58:	2064      	movs	r0, #100	; 0x64
 8000b5a:	f7ff fe57 	bl	800080c <delay>
 8000b5e:	bd70      	pop	{r4, r5, r6, pc}
 8000b60:	3301      	adds	r3, #1
 8000b62:	4a7d      	ldr	r2, [pc, #500]	; (8000d58 <customLoop+0x268>)
 8000b64:	7013      	strb	r3, [r2, #0]
 8000b66:	e7de      	b.n	8000b26 <customLoop+0x36>
 8000b68:	4a7e      	ldr	r2, [pc, #504]	; (8000d64 <customLoop+0x274>)
 8000b6a:	8812      	ldrh	r2, [r2, #0]
 8000b6c:	497e      	ldr	r1, [pc, #504]	; (8000d68 <customLoop+0x278>)
 8000b6e:	5ccb      	ldrb	r3, [r1, r3]
 8000b70:	429a      	cmp	r2, r3
 8000b72:	d2d8      	bcs.n	8000b26 <customLoop+0x36>
 8000b74:	3201      	adds	r2, #1
 8000b76:	4b7b      	ldr	r3, [pc, #492]	; (8000d64 <customLoop+0x274>)
 8000b78:	801a      	strh	r2, [r3, #0]
 8000b7a:	e7d4      	b.n	8000b26 <customLoop+0x36>
 8000b7c:	4b79      	ldr	r3, [pc, #484]	; (8000d64 <customLoop+0x274>)
 8000b7e:	881b      	ldrh	r3, [r3, #0]
 8000b80:	2b00      	cmp	r3, #0
 8000b82:	d0d0      	beq.n	8000b26 <customLoop+0x36>
 8000b84:	3b01      	subs	r3, #1
 8000b86:	4a77      	ldr	r2, [pc, #476]	; (8000d64 <customLoop+0x274>)
 8000b88:	8013      	strh	r3, [r2, #0]
 8000b8a:	e7cc      	b.n	8000b26 <customLoop+0x36>
 8000b8c:	3c01      	subs	r4, #1
 8000b8e:	2c03      	cmp	r4, #3
 8000b90:	d806      	bhi.n	8000ba0 <customLoop+0xb0>
 8000b92:	e8df f004 	tbb	[pc, r4]
 8000b96:	0802      	.short	0x0802
 8000b98:	160c      	.short	0x160c
 8000b9a:	3b01      	subs	r3, #1
 8000b9c:	4a6e      	ldr	r2, [pc, #440]	; (8000d58 <customLoop+0x268>)
 8000b9e:	7013      	strb	r3, [r2, #0]
 8000ba0:	f7ff fdac 	bl	80006fc <refresh>
 8000ba4:	e7c1      	b.n	8000b2a <customLoop+0x3a>
 8000ba6:	3301      	adds	r3, #1
 8000ba8:	4a6b      	ldr	r2, [pc, #428]	; (8000d58 <customLoop+0x268>)
 8000baa:	7013      	strb	r3, [r2, #0]
 8000bac:	e7f8      	b.n	8000ba0 <customLoop+0xb0>
 8000bae:	4a6d      	ldr	r2, [pc, #436]	; (8000d64 <customLoop+0x274>)
 8000bb0:	8852      	ldrh	r2, [r2, #2]
 8000bb2:	496d      	ldr	r1, [pc, #436]	; (8000d68 <customLoop+0x278>)
 8000bb4:	5ccb      	ldrb	r3, [r1, r3]
 8000bb6:	429a      	cmp	r2, r3
 8000bb8:	d2f2      	bcs.n	8000ba0 <customLoop+0xb0>
 8000bba:	3201      	adds	r2, #1
 8000bbc:	4b69      	ldr	r3, [pc, #420]	; (8000d64 <customLoop+0x274>)
 8000bbe:	805a      	strh	r2, [r3, #2]
 8000bc0:	e7ee      	b.n	8000ba0 <customLoop+0xb0>
 8000bc2:	4b68      	ldr	r3, [pc, #416]	; (8000d64 <customLoop+0x274>)
 8000bc4:	885b      	ldrh	r3, [r3, #2]
 8000bc6:	2b00      	cmp	r3, #0
 8000bc8:	d0ea      	beq.n	8000ba0 <customLoop+0xb0>
 8000bca:	3b01      	subs	r3, #1
 8000bcc:	4a65      	ldr	r2, [pc, #404]	; (8000d64 <customLoop+0x274>)
 8000bce:	8053      	strh	r3, [r2, #2]
 8000bd0:	e7e6      	b.n	8000ba0 <customLoop+0xb0>
 8000bd2:	3c01      	subs	r4, #1
 8000bd4:	2c03      	cmp	r4, #3
 8000bd6:	d806      	bhi.n	8000be6 <customLoop+0xf6>
 8000bd8:	e8df f004 	tbb	[pc, r4]
 8000bdc:	160c0802 	.word	0x160c0802
 8000be0:	3b01      	subs	r3, #1
 8000be2:	4a5d      	ldr	r2, [pc, #372]	; (8000d58 <customLoop+0x268>)
 8000be4:	7013      	strb	r3, [r2, #0]
 8000be6:	f7ff fd89 	bl	80006fc <refresh>
 8000bea:	e79e      	b.n	8000b2a <customLoop+0x3a>
 8000bec:	3301      	adds	r3, #1
 8000bee:	4a5a      	ldr	r2, [pc, #360]	; (8000d58 <customLoop+0x268>)
 8000bf0:	7013      	strb	r3, [r2, #0]
 8000bf2:	e7f8      	b.n	8000be6 <customLoop+0xf6>
 8000bf4:	4a5b      	ldr	r2, [pc, #364]	; (8000d64 <customLoop+0x274>)
 8000bf6:	7912      	ldrb	r2, [r2, #4]
 8000bf8:	495b      	ldr	r1, [pc, #364]	; (8000d68 <customLoop+0x278>)
 8000bfa:	5ccb      	ldrb	r3, [r1, r3]
 8000bfc:	429a      	cmp	r2, r3
 8000bfe:	d2f2      	bcs.n	8000be6 <customLoop+0xf6>
 8000c00:	3201      	adds	r2, #1
 8000c02:	4b58      	ldr	r3, [pc, #352]	; (8000d64 <customLoop+0x274>)
 8000c04:	711a      	strb	r2, [r3, #4]
 8000c06:	e7ee      	b.n	8000be6 <customLoop+0xf6>
 8000c08:	4b56      	ldr	r3, [pc, #344]	; (8000d64 <customLoop+0x274>)
 8000c0a:	791b      	ldrb	r3, [r3, #4]
 8000c0c:	2b00      	cmp	r3, #0
 8000c0e:	d0ea      	beq.n	8000be6 <customLoop+0xf6>
 8000c10:	3b01      	subs	r3, #1
 8000c12:	4a54      	ldr	r2, [pc, #336]	; (8000d64 <customLoop+0x274>)
 8000c14:	7113      	strb	r3, [r2, #4]
 8000c16:	e7e6      	b.n	8000be6 <customLoop+0xf6>
 8000c18:	3c01      	subs	r4, #1
 8000c1a:	2c03      	cmp	r4, #3
 8000c1c:	d806      	bhi.n	8000c2c <customLoop+0x13c>
 8000c1e:	e8df f004 	tbb	[pc, r4]
 8000c22:	0802      	.short	0x0802
 8000c24:	160c      	.short	0x160c
 8000c26:	3b01      	subs	r3, #1
 8000c28:	4a4b      	ldr	r2, [pc, #300]	; (8000d58 <customLoop+0x268>)
 8000c2a:	7013      	strb	r3, [r2, #0]
 8000c2c:	f7ff fd66 	bl	80006fc <refresh>
 8000c30:	e77b      	b.n	8000b2a <customLoop+0x3a>
 8000c32:	3301      	adds	r3, #1
 8000c34:	4a48      	ldr	r2, [pc, #288]	; (8000d58 <customLoop+0x268>)
 8000c36:	7013      	strb	r3, [r2, #0]
 8000c38:	e7f8      	b.n	8000c2c <customLoop+0x13c>
 8000c3a:	4a4a      	ldr	r2, [pc, #296]	; (8000d64 <customLoop+0x274>)
 8000c3c:	7952      	ldrb	r2, [r2, #5]
 8000c3e:	494a      	ldr	r1, [pc, #296]	; (8000d68 <customLoop+0x278>)
 8000c40:	5ccb      	ldrb	r3, [r1, r3]
 8000c42:	429a      	cmp	r2, r3
 8000c44:	d2f2      	bcs.n	8000c2c <customLoop+0x13c>
 8000c46:	3201      	adds	r2, #1
 8000c48:	4b46      	ldr	r3, [pc, #280]	; (8000d64 <customLoop+0x274>)
 8000c4a:	715a      	strb	r2, [r3, #5]
 8000c4c:	e7ee      	b.n	8000c2c <customLoop+0x13c>
 8000c4e:	4b45      	ldr	r3, [pc, #276]	; (8000d64 <customLoop+0x274>)
 8000c50:	795b      	ldrb	r3, [r3, #5]
 8000c52:	2b00      	cmp	r3, #0
 8000c54:	d0ea      	beq.n	8000c2c <customLoop+0x13c>
 8000c56:	3b01      	subs	r3, #1
 8000c58:	4a42      	ldr	r2, [pc, #264]	; (8000d64 <customLoop+0x274>)
 8000c5a:	7153      	strb	r3, [r2, #5]
 8000c5c:	e7e6      	b.n	8000c2c <customLoop+0x13c>
 8000c5e:	3c01      	subs	r4, #1
 8000c60:	2c03      	cmp	r4, #3
 8000c62:	d806      	bhi.n	8000c72 <customLoop+0x182>
 8000c64:	e8df f004 	tbb	[pc, r4]
 8000c68:	160c0802 	.word	0x160c0802
 8000c6c:	3b01      	subs	r3, #1
 8000c6e:	4a3a      	ldr	r2, [pc, #232]	; (8000d58 <customLoop+0x268>)
 8000c70:	7013      	strb	r3, [r2, #0]
 8000c72:	f7ff fd43 	bl	80006fc <refresh>
 8000c76:	e758      	b.n	8000b2a <customLoop+0x3a>
 8000c78:	3301      	adds	r3, #1
 8000c7a:	4a37      	ldr	r2, [pc, #220]	; (8000d58 <customLoop+0x268>)
 8000c7c:	7013      	strb	r3, [r2, #0]
 8000c7e:	e7f8      	b.n	8000c72 <customLoop+0x182>
 8000c80:	4a38      	ldr	r2, [pc, #224]	; (8000d64 <customLoop+0x274>)
 8000c82:	7992      	ldrb	r2, [r2, #6]
 8000c84:	4938      	ldr	r1, [pc, #224]	; (8000d68 <customLoop+0x278>)
 8000c86:	5ccb      	ldrb	r3, [r1, r3]
 8000c88:	429a      	cmp	r2, r3
 8000c8a:	d2f2      	bcs.n	8000c72 <customLoop+0x182>
 8000c8c:	3201      	adds	r2, #1
 8000c8e:	4b35      	ldr	r3, [pc, #212]	; (8000d64 <customLoop+0x274>)
 8000c90:	719a      	strb	r2, [r3, #6]
 8000c92:	e7ee      	b.n	8000c72 <customLoop+0x182>
 8000c94:	4b33      	ldr	r3, [pc, #204]	; (8000d64 <customLoop+0x274>)
 8000c96:	799b      	ldrb	r3, [r3, #6]
 8000c98:	2b00      	cmp	r3, #0
 8000c9a:	d0ea      	beq.n	8000c72 <customLoop+0x182>
 8000c9c:	3b01      	subs	r3, #1
 8000c9e:	4a31      	ldr	r2, [pc, #196]	; (8000d64 <customLoop+0x274>)
 8000ca0:	7193      	strb	r3, [r2, #6]
 8000ca2:	e7e6      	b.n	8000c72 <customLoop+0x182>
 8000ca4:	2c03      	cmp	r4, #3
 8000ca6:	d00a      	beq.n	8000cbe <customLoop+0x1ce>
 8000ca8:	2c04      	cmp	r4, #4
 8000caa:	d012      	beq.n	8000cd2 <customLoop+0x1e2>
 8000cac:	2c01      	cmp	r4, #1
 8000cae:	d002      	beq.n	8000cb6 <customLoop+0x1c6>
 8000cb0:	f7ff fd24 	bl	80006fc <refresh>
 8000cb4:	e739      	b.n	8000b2a <customLoop+0x3a>
 8000cb6:	3b01      	subs	r3, #1
 8000cb8:	4a27      	ldr	r2, [pc, #156]	; (8000d58 <customLoop+0x268>)
 8000cba:	7013      	strb	r3, [r2, #0]
 8000cbc:	e7f8      	b.n	8000cb0 <customLoop+0x1c0>
 8000cbe:	4a29      	ldr	r2, [pc, #164]	; (8000d64 <customLoop+0x274>)
 8000cc0:	79d2      	ldrb	r2, [r2, #7]
 8000cc2:	4929      	ldr	r1, [pc, #164]	; (8000d68 <customLoop+0x278>)
 8000cc4:	5ccb      	ldrb	r3, [r1, r3]
 8000cc6:	429a      	cmp	r2, r3
 8000cc8:	d2f2      	bcs.n	8000cb0 <customLoop+0x1c0>
 8000cca:	3201      	adds	r2, #1
 8000ccc:	4b25      	ldr	r3, [pc, #148]	; (8000d64 <customLoop+0x274>)
 8000cce:	71da      	strb	r2, [r3, #7]
 8000cd0:	e7ee      	b.n	8000cb0 <customLoop+0x1c0>
 8000cd2:	4b24      	ldr	r3, [pc, #144]	; (8000d64 <customLoop+0x274>)
 8000cd4:	79db      	ldrb	r3, [r3, #7]
 8000cd6:	2b00      	cmp	r3, #0
 8000cd8:	d0ea      	beq.n	8000cb0 <customLoop+0x1c0>
 8000cda:	3b01      	subs	r3, #1
 8000cdc:	4a21      	ldr	r2, [pc, #132]	; (8000d64 <customLoop+0x274>)
 8000cde:	71d3      	strb	r3, [r2, #7]
 8000ce0:	e7e6      	b.n	8000cb0 <customLoop+0x1c0>
 8000ce2:	2200      	movs	r2, #0
 8000ce4:	2102      	movs	r1, #2
 8000ce6:	481e      	ldr	r0, [pc, #120]	; (8000d60 <customLoop+0x270>)
 8000ce8:	f001 fc5d 	bl	80025a6 <HAL_GPIO_WritePin>
 8000cec:	2e0c      	cmp	r6, #12
 8000cee:	d91a      	bls.n	8000d26 <customLoop+0x236>
 8000cf0:	4e1c      	ldr	r6, [pc, #112]	; (8000d64 <customLoop+0x274>)
 8000cf2:	79b3      	ldrb	r3, [r6, #6]
 8000cf4:	3301      	adds	r3, #1
 8000cf6:	b2ad      	uxth	r5, r5
 8000cf8:	3d0c      	subs	r5, #12
 8000cfa:	4c1c      	ldr	r4, [pc, #112]	; (8000d6c <customLoop+0x27c>)
 8000cfc:	eb03 0343 	add.w	r3, r3, r3, lsl #1
 8000d00:	eb05 0383 	add.w	r3, r5, r3, lsl #2
 8000d04:	2101      	movs	r1, #1
 8000d06:	f834 0023 	ldrh.w	r0, [r4, r3, lsl #2]
 8000d0a:	f7ff fb8d 	bl	8000428 <add_voice>
 8000d0e:	79f3      	ldrb	r3, [r6, #7]
 8000d10:	3301      	adds	r3, #1
 8000d12:	eb03 0343 	add.w	r3, r3, r3, lsl #1
 8000d16:	eb05 0383 	add.w	r3, r5, r3, lsl #2
 8000d1a:	2102      	movs	r1, #2
 8000d1c:	f834 0023 	ldrh.w	r0, [r4, r3, lsl #2]
 8000d20:	f7ff fb82 	bl	8000428 <add_voice>
 8000d24:	e718      	b.n	8000b58 <customLoop+0x68>
 8000d26:	4e0f      	ldr	r6, [pc, #60]	; (8000d64 <customLoop+0x274>)
 8000d28:	79b3      	ldrb	r3, [r6, #6]
 8000d2a:	b2ad      	uxth	r5, r5
 8000d2c:	4c0f      	ldr	r4, [pc, #60]	; (8000d6c <customLoop+0x27c>)
 8000d2e:	eb03 0343 	add.w	r3, r3, r3, lsl #1
 8000d32:	eb05 0383 	add.w	r3, r5, r3, lsl #2
 8000d36:	2101      	movs	r1, #1
 8000d38:	f834 0023 	ldrh.w	r0, [r4, r3, lsl #2]
 8000d3c:	f7ff fb74 	bl	8000428 <add_voice>
 8000d40:	79f3      	ldrb	r3, [r6, #7]
 8000d42:	eb03 0343 	add.w	r3, r3, r3, lsl #1
 8000d46:	eb05 0583 	add.w	r5, r5, r3, lsl #2
 8000d4a:	2102      	movs	r1, #2
 8000d4c:	f834 0025 	ldrh.w	r0, [r4, r5, lsl #2]
 8000d50:	f7ff fb6a 	bl	8000428 <add_voice>
 8000d54:	e700      	b.n	8000b58 <customLoop+0x68>
 8000d56:	bf00      	nop
 8000d58:	240041c0 	.word	0x240041c0
 8000d5c:	240040f4 	.word	0x240040f4
 8000d60:	58020000 	.word	0x58020000
 8000d64:	240041c4 	.word	0x240041c4
 8000d68:	080050a4 	.word	0x080050a4
 8000d6c:	24003f24 	.word	0x24003f24

08000d70 <MX_GPIO_Init>:
 8000d70:	e92d 43f0 	stmdb	sp!, {r4, r5, r6, r7, r8, r9, lr}
 8000d74:	b08b      	sub	sp, #44	; 0x2c
 8000d76:	2400      	movs	r4, #0
 8000d78:	9405      	str	r4, [sp, #20]
 8000d7a:	9406      	str	r4, [sp, #24]
 8000d7c:	9407      	str	r4, [sp, #28]
 8000d7e:	9408      	str	r4, [sp, #32]
 8000d80:	9409      	str	r4, [sp, #36]	; 0x24
 8000d82:	4b4d      	ldr	r3, [pc, #308]	; (8000eb8 <MX_GPIO_Init+0x148>)
 8000d84:	f8d3 20e0 	ldr.w	r2, [r3, #224]	; 0xe0
 8000d88:	f042 0210 	orr.w	r2, r2, #16
 8000d8c:	f8c3 20e0 	str.w	r2, [r3, #224]	; 0xe0
 8000d90:	f8d3 20e0 	ldr.w	r2, [r3, #224]	; 0xe0
 8000d94:	f002 0210 	and.w	r2, r2, #16
 8000d98:	9200      	str	r2, [sp, #0]
 8000d9a:	9a00      	ldr	r2, [sp, #0]
 8000d9c:	f8d3 20e0 	ldr.w	r2, [r3, #224]	; 0xe0
 8000da0:	f042 0201 	orr.w	r2, r2, #1
 8000da4:	f8c3 20e0 	str.w	r2, [r3, #224]	; 0xe0
 8000da8:	f8d3 20e0 	ldr.w	r2, [r3, #224]	; 0xe0
 8000dac:	f002 0201 	and.w	r2, r2, #1
 8000db0:	9201      	str	r2, [sp, #4]
 8000db2:	9a01      	ldr	r2, [sp, #4]
 8000db4:	f8d3 20e0 	ldr.w	r2, [r3, #224]	; 0xe0
 8000db8:	f042 0204 	orr.w	r2, r2, #4
 8000dbc:	f8c3 20e0 	str.w	r2, [r3, #224]	; 0xe0
 8000dc0:	f8d3 20e0 	ldr.w	r2, [r3, #224]	; 0xe0
 8000dc4:	f002 0204 	and.w	r2, r2, #4
 8000dc8:	9202      	str	r2, [sp, #8]
 8000dca:	9a02      	ldr	r2, [sp, #8]
 8000dcc:	f8d3 20e0 	ldr.w	r2, [r3, #224]	; 0xe0
 8000dd0:	f042 0208 	orr.w	r2, r2, #8
 8000dd4:	f8c3 20e0 	str.w	r2, [r3, #224]	; 0xe0
 8000dd8:	f8d3 20e0 	ldr.w	r2, [r3, #224]	; 0xe0
 8000ddc:	f002 0208 	and.w	r2, r2, #8
 8000de0:	9203      	str	r2, [sp, #12]
 8000de2:	9a03      	ldr	r2, [sp, #12]
 8000de4:	f8d3 20e0 	ldr.w	r2, [r3, #224]	; 0xe0
 8000de8:	f042 0202 	orr.w	r2, r2, #2
 8000dec:	f8c3 20e0 	str.w	r2, [r3, #224]	; 0xe0
 8000df0:	f8d3 30e0 	ldr.w	r3, [r3, #224]	; 0xe0
 8000df4:	f003 0302 	and.w	r3, r3, #2
 8000df8:	9304      	str	r3, [sp, #16]
 8000dfa:	9b04      	ldr	r3, [sp, #16]
 8000dfc:	f8df 80c8 	ldr.w	r8, [pc, #200]	; 8000ec8 <MX_GPIO_Init+0x158>
 8000e00:	4622      	mov	r2, r4
 8000e02:	2102      	movs	r1, #2
 8000e04:	4640      	mov	r0, r8
 8000e06:	f001 fbce 	bl	80025a6 <HAL_GPIO_WritePin>
 8000e0a:	f8df 90c0 	ldr.w	r9, [pc, #192]	; 8000ecc <MX_GPIO_Init+0x15c>
 8000e0e:	4622      	mov	r2, r4
 8000e10:	21ff      	movs	r1, #255	; 0xff
 8000e12:	4648      	mov	r0, r9
 8000e14:	f001 fbc7 	bl	80025a6 <HAL_GPIO_WritePin>
 8000e18:	4f28      	ldr	r7, [pc, #160]	; (8000ebc <MX_GPIO_Init+0x14c>)
 8000e1a:	4622      	mov	r2, r4
 8000e1c:	2120      	movs	r1, #32
 8000e1e:	4638      	mov	r0, r7
 8000e20:	f001 fbc1 	bl	80025a6 <HAL_GPIO_WritePin>
 8000e24:	4e26      	ldr	r6, [pc, #152]	; (8000ec0 <MX_GPIO_Init+0x150>)
 8000e26:	4622      	mov	r2, r4
 8000e28:	2103      	movs	r1, #3
 8000e2a:	4630      	mov	r0, r6
 8000e2c:	f001 fbbb 	bl	80025a6 <HAL_GPIO_WritePin>
 8000e30:	233c      	movs	r3, #60	; 0x3c
 8000e32:	9305      	str	r3, [sp, #20]
 8000e34:	9406      	str	r4, [sp, #24]
 8000e36:	9407      	str	r4, [sp, #28]
 8000e38:	a905      	add	r1, sp, #20
 8000e3a:	4630      	mov	r0, r6
 8000e3c:	f001 fab6 	bl	80023ac <HAL_GPIO_Init>
 8000e40:	2302      	movs	r3, #2
 8000e42:	9305      	str	r3, [sp, #20]
 8000e44:	2501      	movs	r5, #1
 8000e46:	9506      	str	r5, [sp, #24]
 8000e48:	9407      	str	r4, [sp, #28]
 8000e4a:	9408      	str	r4, [sp, #32]
 8000e4c:	a905      	add	r1, sp, #20
 8000e4e:	4640      	mov	r0, r8
 8000e50:	f001 faac 	bl	80023ac <HAL_GPIO_Init>
 8000e54:	f04f 0820 	mov.w	r8, #32
 8000e58:	f8cd 8014 	str.w	r8, [sp, #20]
 8000e5c:	f44f 1304 	mov.w	r3, #2162688	; 0x210000
 8000e60:	9306      	str	r3, [sp, #24]
 8000e62:	9507      	str	r5, [sp, #28]
 8000e64:	a905      	add	r1, sp, #20
 8000e66:	4817      	ldr	r0, [pc, #92]	; (8000ec4 <MX_GPIO_Init+0x154>)
 8000e68:	f001 faa0 	bl	80023ac <HAL_GPIO_Init>
 8000e6c:	23ff      	movs	r3, #255	; 0xff
 8000e6e:	9305      	str	r3, [sp, #20]
 8000e70:	9506      	str	r5, [sp, #24]
 8000e72:	9407      	str	r4, [sp, #28]
 8000e74:	9408      	str	r4, [sp, #32]
 8000e76:	a905      	add	r1, sp, #20
 8000e78:	4648      	mov	r0, r9
 8000e7a:	f001 fa97 	bl	80023ac <HAL_GPIO_Init>
 8000e7e:	f8cd 8014 	str.w	r8, [sp, #20]
 8000e82:	9506      	str	r5, [sp, #24]
 8000e84:	9407      	str	r4, [sp, #28]
 8000e86:	9408      	str	r4, [sp, #32]
 8000e88:	a905      	add	r1, sp, #20
 8000e8a:	4638      	mov	r0, r7
 8000e8c:	f001 fa8e 	bl	80023ac <HAL_GPIO_Init>
 8000e90:	2303      	movs	r3, #3
 8000e92:	9305      	str	r3, [sp, #20]
 8000e94:	9506      	str	r5, [sp, #24]
 8000e96:	9407      	str	r4, [sp, #28]
 8000e98:	9408      	str	r4, [sp, #32]
 8000e9a:	a905      	add	r1, sp, #20
 8000e9c:	4630      	mov	r0, r6
 8000e9e:	f001 fa85 	bl	80023ac <HAL_GPIO_Init>
 8000ea2:	4622      	mov	r2, r4
 8000ea4:	4621      	mov	r1, r4
 8000ea6:	2017      	movs	r0, #23
 8000ea8:	f001 fa2a 	bl	8002300 <HAL_NVIC_SetPriority>
 8000eac:	2017      	movs	r0, #23
 8000eae:	f001 fa59 	bl	8002364 <HAL_NVIC_EnableIRQ>
 8000eb2:	b00b      	add	sp, #44	; 0x2c
 8000eb4:	e8bd 83f0 	ldmia.w	sp!, {r4, r5, r6, r7, r8, r9, pc}
 8000eb8:	58024400 	.word	0x58024400
 8000ebc:	58020400 	.word	0x58020400
 8000ec0:	58021000 	.word	0x58021000
 8000ec4:	58020800 	.word	0x58020800
 8000ec8:	58020000 	.word	0x58020000
 8000ecc:	58020c00 	.word	0x58020c00

08000ed0 <HAL_GPIO_EXTI_Callback>:
 8000ed0:	2820      	cmp	r0, #32
 8000ed2:	d000      	beq.n	8000ed6 <HAL_GPIO_EXTI_Callback+0x6>
 8000ed4:	4770      	bx	lr
 8000ed6:	b508      	push	{r3, lr}
 8000ed8:	f7ff fce8 	bl	80008ac <customButtonInterrupt>
 8000edc:	bd08      	pop	{r3, pc}
	...

08000ee0 <MX_I2S1_Init>:
 8000ee0:	b508      	push	{r3, lr}
 8000ee2:	480c      	ldr	r0, [pc, #48]	; (8000f14 <MX_I2S1_Init+0x34>)
 8000ee4:	4b0c      	ldr	r3, [pc, #48]	; (8000f18 <MX_I2S1_Init+0x38>)
 8000ee6:	6003      	str	r3, [r0, #0]
 8000ee8:	2304      	movs	r3, #4
 8000eea:	6043      	str	r3, [r0, #4]
 8000eec:	2300      	movs	r3, #0
 8000eee:	6083      	str	r3, [r0, #8]
 8000ef0:	60c3      	str	r3, [r0, #12]
 8000ef2:	6103      	str	r3, [r0, #16]
 8000ef4:	f644 6220 	movw	r2, #20000	; 0x4e20
 8000ef8:	6142      	str	r2, [r0, #20]
 8000efa:	6183      	str	r3, [r0, #24]
 8000efc:	61c3      	str	r3, [r0, #28]
 8000efe:	6203      	str	r3, [r0, #32]
 8000f00:	6243      	str	r3, [r0, #36]	; 0x24
 8000f02:	6283      	str	r3, [r0, #40]	; 0x28
 8000f04:	f001 fb8c 	bl	8002620 <HAL_I2S_Init>
 8000f08:	b900      	cbnz	r0, 8000f0c <MX_I2S1_Init+0x2c>
 8000f0a:	bd08      	pop	{r3, pc}
 8000f0c:	f000 f85c 	bl	8000fc8 <Error_Handler>
 8000f10:	e7fb      	b.n	8000f0a <MX_I2S1_Init+0x2a>
 8000f12:	bf00      	nop
 8000f14:	24004230 	.word	0x24004230
 8000f18:	40013000 	.word	0x40013000

08000f1c <HAL_I2S_MspInit>:
 8000f1c:	b510      	push	{r4, lr}
 8000f1e:	b0b6      	sub	sp, #216	; 0xd8
 8000f20:	4604      	mov	r4, r0
 8000f22:	2100      	movs	r1, #0
 8000f24:	9131      	str	r1, [sp, #196]	; 0xc4
 8000f26:	9132      	str	r1, [sp, #200]	; 0xc8
 8000f28:	9133      	str	r1, [sp, #204]	; 0xcc
 8000f2a:	9134      	str	r1, [sp, #208]	; 0xd0
 8000f2c:	9135      	str	r1, [sp, #212]	; 0xd4
 8000f2e:	22bc      	movs	r2, #188	; 0xbc
 8000f30:	a802      	add	r0, sp, #8
 8000f32:	f004 f899 	bl	8005068 <memset>
 8000f36:	6822      	ldr	r2, [r4, #0]
 8000f38:	4b1b      	ldr	r3, [pc, #108]	; (8000fa8 <HAL_I2S_MspInit+0x8c>)
 8000f3a:	429a      	cmp	r2, r3
 8000f3c:	d001      	beq.n	8000f42 <HAL_I2S_MspInit+0x26>
 8000f3e:	b036      	add	sp, #216	; 0xd8
 8000f40:	bd10      	pop	{r4, pc}
 8000f42:	f44f 5380 	mov.w	r3, #4096	; 0x1000
 8000f46:	9302      	str	r3, [sp, #8]
 8000f48:	2300      	movs	r3, #0
 8000f4a:	9319      	str	r3, [sp, #100]	; 0x64
 8000f4c:	a802      	add	r0, sp, #8
 8000f4e:	f002 fb93 	bl	8003678 <HAL_RCCEx_PeriphCLKConfig>
 8000f52:	bb30      	cbnz	r0, 8000fa2 <HAL_I2S_MspInit+0x86>
 8000f54:	4b15      	ldr	r3, [pc, #84]	; (8000fac <HAL_I2S_MspInit+0x90>)
 8000f56:	f8d3 20f0 	ldr.w	r2, [r3, #240]	; 0xf0
 8000f5a:	f442 5280 	orr.w	r2, r2, #4096	; 0x1000
 8000f5e:	f8c3 20f0 	str.w	r2, [r3, #240]	; 0xf0
 8000f62:	f8d3 20f0 	ldr.w	r2, [r3, #240]	; 0xf0
 8000f66:	f402 5280 	and.w	r2, r2, #4096	; 0x1000
 8000f6a:	9200      	str	r2, [sp, #0]
 8000f6c:	9a00      	ldr	r2, [sp, #0]
 8000f6e:	f8d3 20e0 	ldr.w	r2, [r3, #224]	; 0xe0
 8000f72:	f042 0201 	orr.w	r2, r2, #1
 8000f76:	f8c3 20e0 	str.w	r2, [r3, #224]	; 0xe0
 8000f7a:	f8d3 30e0 	ldr.w	r3, [r3, #224]	; 0xe0
 8000f7e:	f003 0301 	and.w	r3, r3, #1
 8000f82:	9301      	str	r3, [sp, #4]
 8000f84:	9b01      	ldr	r3, [sp, #4]
 8000f86:	23b0      	movs	r3, #176	; 0xb0
 8000f88:	9331      	str	r3, [sp, #196]	; 0xc4
 8000f8a:	2302      	movs	r3, #2
 8000f8c:	9332      	str	r3, [sp, #200]	; 0xc8
 8000f8e:	2300      	movs	r3, #0
 8000f90:	9333      	str	r3, [sp, #204]	; 0xcc
 8000f92:	9334      	str	r3, [sp, #208]	; 0xd0
 8000f94:	2305      	movs	r3, #5
 8000f96:	9335      	str	r3, [sp, #212]	; 0xd4
 8000f98:	a931      	add	r1, sp, #196	; 0xc4
 8000f9a:	4805      	ldr	r0, [pc, #20]	; (8000fb0 <HAL_I2S_MspInit+0x94>)
 8000f9c:	f001 fa06 	bl	80023ac <HAL_GPIO_Init>
 8000fa0:	e7cd      	b.n	8000f3e <HAL_I2S_MspInit+0x22>
 8000fa2:	f000 f811 	bl	8000fc8 <Error_Handler>
 8000fa6:	e7d5      	b.n	8000f54 <HAL_I2S_MspInit+0x38>
 8000fa8:	40013000 	.word	0x40013000
 8000fac:	58024400 	.word	0x58024400
 8000fb0:	58020000 	.word	0x58020000

08000fb4 <HAL_TIM_PeriodElapsedCallback>:
 8000fb4:	b508      	push	{r3, lr}
 8000fb6:	4b03      	ldr	r3, [pc, #12]	; (8000fc4 <HAL_TIM_PeriodElapsedCallback+0x10>)
 8000fb8:	4283      	cmp	r3, r0
 8000fba:	d000      	beq.n	8000fbe <HAL_TIM_PeriodElapsedCallback+0xa>
 8000fbc:	bd08      	pop	{r3, pc}
 8000fbe:	f7ff fc77 	bl	80008b0 <customTimerInterrupt>
 8000fc2:	e7fb      	b.n	8000fbc <HAL_TIM_PeriodElapsedCallback+0x8>
 8000fc4:	24004284 	.word	0x24004284

08000fc8 <Error_Handler>:
 8000fc8:	b672      	cpsid	i
 8000fca:	e7fe      	b.n	8000fca <Error_Handler+0x2>

08000fcc <SystemClock_Config>:
 8000fcc:	b500      	push	{lr}
 8000fce:	b09d      	sub	sp, #116	; 0x74
 8000fd0:	224c      	movs	r2, #76	; 0x4c
 8000fd2:	2100      	movs	r1, #0
 8000fd4:	a809      	add	r0, sp, #36	; 0x24
 8000fd6:	f004 f847 	bl	8005068 <memset>
 8000fda:	2220      	movs	r2, #32
 8000fdc:	2100      	movs	r1, #0
 8000fde:	a801      	add	r0, sp, #4
 8000fe0:	f004 f842 	bl	8005068 <memset>
 8000fe4:	2002      	movs	r0, #2
 8000fe6:	f001 fc71 	bl	80028cc <HAL_PWREx_ConfigSupply>
 8000fea:	2300      	movs	r3, #0
 8000fec:	9300      	str	r3, [sp, #0]
 8000fee:	4b27      	ldr	r3, [pc, #156]	; (800108c <SystemClock_Config+0xc0>)
 8000ff0:	6ada      	ldr	r2, [r3, #44]	; 0x2c
 8000ff2:	f022 0201 	bic.w	r2, r2, #1
 8000ff6:	62da      	str	r2, [r3, #44]	; 0x2c
 8000ff8:	6adb      	ldr	r3, [r3, #44]	; 0x2c
 8000ffa:	f003 0301 	and.w	r3, r3, #1
 8000ffe:	9300      	str	r3, [sp, #0]
 8001000:	4a23      	ldr	r2, [pc, #140]	; (8001090 <SystemClock_Config+0xc4>)
 8001002:	6993      	ldr	r3, [r2, #24]
 8001004:	f423 4340 	bic.w	r3, r3, #49152	; 0xc000
 8001008:	f443 4380 	orr.w	r3, r3, #16384	; 0x4000
 800100c:	6193      	str	r3, [r2, #24]
 800100e:	6993      	ldr	r3, [r2, #24]
 8001010:	f403 4340 	and.w	r3, r3, #49152	; 0xc000
 8001014:	9300      	str	r3, [sp, #0]
 8001016:	9b00      	ldr	r3, [sp, #0]
 8001018:	4b1d      	ldr	r3, [pc, #116]	; (8001090 <SystemClock_Config+0xc4>)
 800101a:	699b      	ldr	r3, [r3, #24]
 800101c:	f413 5f00 	tst.w	r3, #8192	; 0x2000
 8001020:	d0fa      	beq.n	8001018 <SystemClock_Config+0x4c>
 8001022:	4a1c      	ldr	r2, [pc, #112]	; (8001094 <SystemClock_Config+0xc8>)
 8001024:	6a93      	ldr	r3, [r2, #40]	; 0x28
 8001026:	f023 0303 	bic.w	r3, r3, #3
 800102a:	6293      	str	r3, [r2, #40]	; 0x28
 800102c:	2302      	movs	r3, #2
 800102e:	9309      	str	r3, [sp, #36]	; 0x24
 8001030:	2201      	movs	r2, #1
 8001032:	920c      	str	r2, [sp, #48]	; 0x30
 8001034:	2240      	movs	r2, #64	; 0x40
 8001036:	920d      	str	r2, [sp, #52]	; 0x34
 8001038:	9312      	str	r3, [sp, #72]	; 0x48
 800103a:	2200      	movs	r2, #0
 800103c:	9213      	str	r2, [sp, #76]	; 0x4c
 800103e:	2204      	movs	r2, #4
 8001040:	9214      	str	r2, [sp, #80]	; 0x50
 8001042:	220b      	movs	r2, #11
 8001044:	9215      	str	r2, [sp, #84]	; 0x54
 8001046:	9316      	str	r3, [sp, #88]	; 0x58
 8001048:	9317      	str	r3, [sp, #92]	; 0x5c
 800104a:	9318      	str	r3, [sp, #96]	; 0x60
 800104c:	220c      	movs	r2, #12
 800104e:	9219      	str	r2, [sp, #100]	; 0x64
 8001050:	931a      	str	r3, [sp, #104]	; 0x68
 8001052:	f44f 73a4 	mov.w	r3, #328	; 0x148
 8001056:	931b      	str	r3, [sp, #108]	; 0x6c
 8001058:	a809      	add	r0, sp, #36	; 0x24
 800105a:	f001 fc61 	bl	8002920 <HAL_RCC_OscConfig>
 800105e:	b988      	cbnz	r0, 8001084 <SystemClock_Config+0xb8>
 8001060:	233f      	movs	r3, #63	; 0x3f
 8001062:	9301      	str	r3, [sp, #4]
 8001064:	2300      	movs	r3, #0
 8001066:	9302      	str	r3, [sp, #8]
 8001068:	9303      	str	r3, [sp, #12]
 800106a:	9304      	str	r3, [sp, #16]
 800106c:	9305      	str	r3, [sp, #20]
 800106e:	9306      	str	r3, [sp, #24]
 8001070:	9307      	str	r3, [sp, #28]
 8001072:	9308      	str	r3, [sp, #32]
 8001074:	2101      	movs	r1, #1
 8001076:	a801      	add	r0, sp, #4
 8001078:	f002 f886 	bl	8003188 <HAL_RCC_ClockConfig>
 800107c:	b920      	cbnz	r0, 8001088 <SystemClock_Config+0xbc>
 800107e:	b01d      	add	sp, #116	; 0x74
 8001080:	f85d fb04 	ldr.w	pc, [sp], #4
 8001084:	f7ff ffa0 	bl	8000fc8 <Error_Handler>
 8001088:	f7ff ff9e 	bl	8000fc8 <Error_Handler>
 800108c:	58000400 	.word	0x58000400
 8001090:	58024800 	.word	0x58024800
 8001094:	58024400 	.word	0x58024400

08001098 <main>:
 8001098:	b500      	push	{lr}
 800109a:	b0ab      	sub	sp, #172	; 0xac
 800109c:	f000 f948 	bl	8001330 <HAL_Init>
 80010a0:	f7ff ff94 	bl	8000fcc <SystemClock_Config>
 80010a4:	f7ff fe64 	bl	8000d70 <MX_GPIO_Init>
 80010a8:	f7ff ff1a 	bl	8000ee0 <MX_I2S1_Init>
 80010ac:	f7ff f914 	bl	80002d8 <MX_ADC1_Init>
 80010b0:	f000 f8b0 	bl	8001214 <MX_TIM16_Init>
 80010b4:	4c0b      	ldr	r4, [pc, #44]	; (80010e4 <main+0x4c>)
 80010b6:	2554      	movs	r5, #84	; 0x54
 80010b8:	462a      	mov	r2, r5
 80010ba:	490b      	ldr	r1, [pc, #44]	; (80010e8 <main+0x50>)
 80010bc:	eb0d 0005 	add.w	r0, sp, r5
 80010c0:	f003 ffc4 	bl	800504c <memcpy>
 80010c4:	462a      	mov	r2, r5
 80010c6:	f104 0110 	add.w	r1, r4, #16
 80010ca:	4668      	mov	r0, sp
 80010cc:	f003 ffbe 	bl	800504c <memcpy>
 80010d0:	e894 000f 	ldmia.w	r4, {r0, r1, r2, r3}
 80010d4:	f7ff fce2 	bl	8000a9c <customSetup>
 80010d8:	4804      	ldr	r0, [pc, #16]	; (80010ec <main+0x54>)
 80010da:	f003 fdc5 	bl	8004c68 <HAL_TIM_Base_Start_IT>
 80010de:	f7ff fd07 	bl	8000af0 <customLoop>
 80010e2:	e7fc      	b.n	80010de <main+0x46>
 80010e4:	240041cc 	.word	0x240041cc
 80010e8:	24004230 	.word	0x24004230
 80010ec:	24004284 	.word	0x24004284

080010f0 <HAL_MspInit>:
 80010f0:	b082      	sub	sp, #8
 80010f2:	4b07      	ldr	r3, [pc, #28]	; (8001110 <HAL_MspInit+0x20>)
 80010f4:	f8d3 20f4 	ldr.w	r2, [r3, #244]	; 0xf4
 80010f8:	f042 0202 	orr.w	r2, r2, #2
 80010fc:	f8c3 20f4 	str.w	r2, [r3, #244]	; 0xf4
 8001100:	f8d3 30f4 	ldr.w	r3, [r3, #244]	; 0xf4
 8001104:	f003 0302 	and.w	r3, r3, #2
 8001108:	9301      	str	r3, [sp, #4]
 800110a:	9b01      	ldr	r3, [sp, #4]
 800110c:	b002      	add	sp, #8
 800110e:	4770      	bx	lr
 8001110:	58024400 	.word	0x58024400

08001114 <NMI_Handler>:
 8001114:	e7fe      	b.n	8001114 <NMI_Handler>

08001116 <HardFault_Handler>:
 8001116:	e7fe      	b.n	8001116 <HardFault_Handler>

08001118 <MemManage_Handler>:
 8001118:	e7fe      	b.n	8001118 <MemManage_Handler>

0800111a <BusFault_Handler>:
 800111a:	e7fe      	b.n	800111a <BusFault_Handler>

0800111c <UsageFault_Handler>:
 800111c:	e7fe      	b.n	800111c <UsageFault_Handler>

0800111e <SVC_Handler>:
 800111e:	4770      	bx	lr

08001120 <DebugMon_Handler>:
 8001120:	4770      	bx	lr

08001122 <PendSV_Handler>:
 8001122:	4770      	bx	lr

08001124 <SysTick_Handler>:
 8001124:	b508      	push	{r3, lr}
 8001126:	f000 f931 	bl	800138c <HAL_IncTick>
 800112a:	bd08      	pop	{r3, pc}

0800112c <EXTI9_5_IRQHandler>:
 800112c:	b508      	push	{r3, lr}
 800112e:	2020      	movs	r0, #32
 8001130:	f001 fa3f 	bl	80025b2 <HAL_GPIO_EXTI_IRQHandler>
 8001134:	bd08      	pop	{r3, pc}
	...

08001138 <TIM16_IRQHandler>:
 8001138:	b508      	push	{r3, lr}
 800113a:	4802      	ldr	r0, [pc, #8]	; (8001144 <TIM16_IRQHandler+0xc>)
 800113c:	f003 fde0 	bl	8004d00 <HAL_TIM_IRQHandler>
 8001140:	bd08      	pop	{r3, pc}
 8001142:	bf00      	nop
 8001144:	24004284 	.word	0x24004284

08001148 <SystemInit>:
 8001148:	4a27      	ldr	r2, [pc, #156]	; (80011e8 <SystemInit+0xa0>)
 800114a:	f8d2 3088 	ldr.w	r3, [r2, #136]	; 0x88
 800114e:	f443 0370 	orr.w	r3, r3, #15728640	; 0xf00000
 8001152:	f8c2 3088 	str.w	r3, [r2, #136]	; 0x88
 8001156:	4b25      	ldr	r3, [pc, #148]	; (80011ec <SystemInit+0xa4>)
 8001158:	681b      	ldr	r3, [r3, #0]
 800115a:	f003 030f 	and.w	r3, r3, #15
 800115e:	2b06      	cmp	r3, #6
 8001160:	d806      	bhi.n	8001170 <SystemInit+0x28>
 8001162:	4a22      	ldr	r2, [pc, #136]	; (80011ec <SystemInit+0xa4>)
 8001164:	6813      	ldr	r3, [r2, #0]
 8001166:	f023 030f 	bic.w	r3, r3, #15
 800116a:	f043 0307 	orr.w	r3, r3, #7
 800116e:	6013      	str	r3, [r2, #0]
 8001170:	4b1f      	ldr	r3, [pc, #124]	; (80011f0 <SystemInit+0xa8>)
 8001172:	681a      	ldr	r2, [r3, #0]
 8001174:	f042 0201 	orr.w	r2, r2, #1
 8001178:	601a      	str	r2, [r3, #0]
 800117a:	2200      	movs	r2, #0
 800117c:	611a      	str	r2, [r3, #16]
 800117e:	6819      	ldr	r1, [r3, #0]
 8001180:	4a1c      	ldr	r2, [pc, #112]	; (80011f4 <SystemInit+0xac>)
 8001182:	400a      	ands	r2, r1
 8001184:	601a      	str	r2, [r3, #0]
 8001186:	4b19      	ldr	r3, [pc, #100]	; (80011ec <SystemInit+0xa4>)
 8001188:	681b      	ldr	r3, [r3, #0]
 800118a:	f013 0f08 	tst.w	r3, #8
 800118e:	d006      	beq.n	800119e <SystemInit+0x56>
 8001190:	4a16      	ldr	r2, [pc, #88]	; (80011ec <SystemInit+0xa4>)
 8001192:	6813      	ldr	r3, [r2, #0]
 8001194:	f023 030f 	bic.w	r3, r3, #15
 8001198:	f043 0307 	orr.w	r3, r3, #7
 800119c:	6013      	str	r3, [r2, #0]
 800119e:	4b14      	ldr	r3, [pc, #80]	; (80011f0 <SystemInit+0xa8>)
 80011a0:	2200      	movs	r2, #0
 80011a2:	619a      	str	r2, [r3, #24]
 80011a4:	61da      	str	r2, [r3, #28]
 80011a6:	621a      	str	r2, [r3, #32]
 80011a8:	4913      	ldr	r1, [pc, #76]	; (80011f8 <SystemInit+0xb0>)
 80011aa:	6299      	str	r1, [r3, #40]	; 0x28
 80011ac:	4913      	ldr	r1, [pc, #76]	; (80011fc <SystemInit+0xb4>)
 80011ae:	62d9      	str	r1, [r3, #44]	; 0x2c
 80011b0:	4913      	ldr	r1, [pc, #76]	; (8001200 <SystemInit+0xb8>)
 80011b2:	6319      	str	r1, [r3, #48]	; 0x30
 80011b4:	635a      	str	r2, [r3, #52]	; 0x34
 80011b6:	6399      	str	r1, [r3, #56]	; 0x38
 80011b8:	63da      	str	r2, [r3, #60]	; 0x3c
 80011ba:	6419      	str	r1, [r3, #64]	; 0x40
 80011bc:	645a      	str	r2, [r3, #68]	; 0x44
 80011be:	6819      	ldr	r1, [r3, #0]
 80011c0:	f421 2180 	bic.w	r1, r1, #262144	; 0x40000
 80011c4:	6019      	str	r1, [r3, #0]
 80011c6:	661a      	str	r2, [r3, #96]	; 0x60
 80011c8:	4b0e      	ldr	r3, [pc, #56]	; (8001204 <SystemInit+0xbc>)
 80011ca:	681a      	ldr	r2, [r3, #0]
 80011cc:	4b0e      	ldr	r3, [pc, #56]	; (8001208 <SystemInit+0xc0>)
 80011ce:	4013      	ands	r3, r2
 80011d0:	f1b3 5f00 	cmp.w	r3, #536870912	; 0x20000000
 80011d4:	d202      	bcs.n	80011dc <SystemInit+0x94>
 80011d6:	4b0d      	ldr	r3, [pc, #52]	; (800120c <SystemInit+0xc4>)
 80011d8:	2201      	movs	r2, #1
 80011da:	601a      	str	r2, [r3, #0]
 80011dc:	4b0c      	ldr	r3, [pc, #48]	; (8001210 <SystemInit+0xc8>)
 80011de:	f243 02d2 	movw	r2, #12498	; 0x30d2
 80011e2:	601a      	str	r2, [r3, #0]
 80011e4:	4770      	bx	lr
 80011e6:	bf00      	nop
 80011e8:	e000ed00 	.word	0xe000ed00
 80011ec:	52002000 	.word	0x52002000
 80011f0:	58024400 	.word	0x58024400
 80011f4:	eaf6ed7f 	.word	0xeaf6ed7f
 80011f8:	02020200 	.word	0x02020200
 80011fc:	01ff0000 	.word	0x01ff0000
 8001200:	01010280 	.word	0x01010280
 8001204:	5c001000 	.word	0x5c001000
 8001208:	ffff0000 	.word	0xffff0000
 800120c:	51008108 	.word	0x51008108
 8001210:	52004000 	.word	0x52004000

08001214 <MX_TIM16_Init>:
 8001214:	b508      	push	{r3, lr}
 8001216:	4809      	ldr	r0, [pc, #36]	; (800123c <MX_TIM16_Init+0x28>)
 8001218:	4b09      	ldr	r3, [pc, #36]	; (8001240 <MX_TIM16_Init+0x2c>)
 800121a:	6003      	str	r3, [r0, #0]
 800121c:	234f      	movs	r3, #79	; 0x4f
 800121e:	6043      	str	r3, [r0, #4]
 8001220:	2300      	movs	r3, #0
 8001222:	6083      	str	r3, [r0, #8]
 8001224:	2227      	movs	r2, #39	; 0x27
 8001226:	60c2      	str	r2, [r0, #12]
 8001228:	6103      	str	r3, [r0, #16]
 800122a:	6143      	str	r3, [r0, #20]
 800122c:	6183      	str	r3, [r0, #24]
 800122e:	f003 feb5 	bl	8004f9c <HAL_TIM_Base_Init>
 8001232:	b900      	cbnz	r0, 8001236 <MX_TIM16_Init+0x22>
 8001234:	bd08      	pop	{r3, pc}
 8001236:	f7ff fec7 	bl	8000fc8 <Error_Handler>
 800123a:	e7fb      	b.n	8001234 <MX_TIM16_Init+0x20>
 800123c:	24004284 	.word	0x24004284
 8001240:	40014400 	.word	0x40014400

08001244 <HAL_TIM_Base_MspInit>:
 8001244:	6802      	ldr	r2, [r0, #0]
 8001246:	4b0f      	ldr	r3, [pc, #60]	; (8001284 <HAL_TIM_Base_MspInit+0x40>)
 8001248:	429a      	cmp	r2, r3
 800124a:	d000      	beq.n	800124e <HAL_TIM_Base_MspInit+0xa>
 800124c:	4770      	bx	lr
 800124e:	b500      	push	{lr}
 8001250:	b083      	sub	sp, #12
 8001252:	4b0d      	ldr	r3, [pc, #52]	; (8001288 <HAL_TIM_Base_MspInit+0x44>)
 8001254:	f8d3 20f0 	ldr.w	r2, [r3, #240]	; 0xf0
 8001258:	f442 3200 	orr.w	r2, r2, #131072	; 0x20000
 800125c:	f8c3 20f0 	str.w	r2, [r3, #240]	; 0xf0
 8001260:	f8d3 30f0 	ldr.w	r3, [r3, #240]	; 0xf0
 8001264:	f403 3300 	and.w	r3, r3, #131072	; 0x20000
 8001268:	9301      	str	r3, [sp, #4]
 800126a:	9b01      	ldr	r3, [sp, #4]
 800126c:	2200      	movs	r2, #0
 800126e:	4611      	mov	r1, r2
 8001270:	2075      	movs	r0, #117	; 0x75
 8001272:	f001 f845 	bl	8002300 <HAL_NVIC_SetPriority>
 8001276:	2075      	movs	r0, #117	; 0x75
 8001278:	f001 f874 	bl	8002364 <HAL_NVIC_EnableIRQ>
 800127c:	b003      	add	sp, #12
 800127e:	f85d fb04 	ldr.w	pc, [sp], #4
 8001282:	bf00      	nop
 8001284:	40014400 	.word	0x40014400
 8001288:	58024400 	.word	0x58024400

0800128c <Reset_Handler>:
 800128c:	f8df d034 	ldr.w	sp, [pc, #52]	; 80012c4 <LoopFillZerobss+0xe>
 8001290:	f7ff ff5a 	bl	8001148 <SystemInit>
 8001294:	480c      	ldr	r0, [pc, #48]	; (80012c8 <LoopFillZerobss+0x12>)
 8001296:	490d      	ldr	r1, [pc, #52]	; (80012cc <LoopFillZerobss+0x16>)
 8001298:	4a0d      	ldr	r2, [pc, #52]	; (80012d0 <LoopFillZerobss+0x1a>)
 800129a:	2300      	movs	r3, #0
 800129c:	e002      	b.n	80012a4 <LoopCopyDataInit>

0800129e <CopyDataInit>:
 800129e:	58d4      	ldr	r4, [r2, r3]
 80012a0:	50c4      	str	r4, [r0, r3]
 80012a2:	3304      	adds	r3, #4

080012a4 <LoopCopyDataInit>:
 80012a4:	18c4      	adds	r4, r0, r3
 80012a6:	428c      	cmp	r4, r1
 80012a8:	d3f9      	bcc.n	800129e <CopyDataInit>
 80012aa:	4a0a      	ldr	r2, [pc, #40]	; (80012d4 <LoopFillZerobss+0x1e>)
 80012ac:	4c0a      	ldr	r4, [pc, #40]	; (80012d8 <LoopFillZerobss+0x22>)
 80012ae:	2300      	movs	r3, #0
 80012b0:	e001      	b.n	80012b6 <LoopFillZerobss>

080012b2 <FillZerobss>:
 80012b2:	6013      	str	r3, [r2, #0]
 80012b4:	3204      	adds	r2, #4

080012b6 <LoopFillZerobss>:
 80012b6:	42a2      	cmp	r2, r4
 80012b8:	d3fb      	bcc.n	80012b2 <FillZerobss>
 80012ba:	f003 fea3 	bl	8005004 <__libc_init_array>
 80012be:	f7ff feeb 	bl	8001098 <main>
 80012c2:	4770      	bx	lr
 80012c4:	24080000 	.word	0x24080000
 80012c8:	24000000 	.word	0x24000000
 80012cc:	240040d8 	.word	0x240040d8
 80012d0:	080050c4 	.word	0x080050c4
 80012d4:	240040d8 	.word	0x240040d8
 80012d8:	240042d4 	.word	0x240042d4

080012dc <ADC3_IRQHandler>:
 80012dc:	e7fe      	b.n	80012dc <ADC3_IRQHandler>
	...

080012e0 <HAL_InitTick>:
 80012e0:	4b10      	ldr	r3, [pc, #64]	; (8001324 <HAL_InitTick+0x44>)
 80012e2:	781b      	ldrb	r3, [r3, #0]
 80012e4:	b90b      	cbnz	r3, 80012ea <HAL_InitTick+0xa>
 80012e6:	2001      	movs	r0, #1
 80012e8:	4770      	bx	lr
 80012ea:	b510      	push	{r4, lr}
 80012ec:	4604      	mov	r4, r0
 80012ee:	f44f 707a 	mov.w	r0, #1000	; 0x3e8
 80012f2:	fbb0 f3f3 	udiv	r3, r0, r3
 80012f6:	4a0c      	ldr	r2, [pc, #48]	; (8001328 <HAL_InitTick+0x48>)
 80012f8:	6810      	ldr	r0, [r2, #0]
 80012fa:	fbb0 f0f3 	udiv	r0, r0, r3
 80012fe:	f001 f83f 	bl	8002380 <HAL_SYSTICK_Config>
 8001302:	b968      	cbnz	r0, 8001320 <HAL_InitTick+0x40>
 8001304:	2c0f      	cmp	r4, #15
 8001306:	d901      	bls.n	800130c <HAL_InitTick+0x2c>
 8001308:	2001      	movs	r0, #1
 800130a:	e00a      	b.n	8001322 <HAL_InitTick+0x42>
 800130c:	2200      	movs	r2, #0
 800130e:	4621      	mov	r1, r4
 8001310:	f04f 30ff 	mov.w	r0, #4294967295
 8001314:	f000 fff4 	bl	8002300 <HAL_NVIC_SetPriority>
 8001318:	4b04      	ldr	r3, [pc, #16]	; (800132c <HAL_InitTick+0x4c>)
 800131a:	601c      	str	r4, [r3, #0]
 800131c:	2000      	movs	r0, #0
 800131e:	e000      	b.n	8001322 <HAL_InitTick+0x42>
 8001320:	2001      	movs	r0, #1
 8001322:	bd10      	pop	{r4, pc}
 8001324:	240040d0 	.word	0x240040d0
 8001328:	240040c8 	.word	0x240040c8
 800132c:	240040d4 	.word	0x240040d4

08001330 <HAL_Init>:
 8001330:	b510      	push	{r4, lr}
 8001332:	2003      	movs	r0, #3
 8001334:	f000 ffd2 	bl	80022dc <HAL_NVIC_SetPriorityGrouping>
 8001338:	f001 fe2c 	bl	8002f94 <HAL_RCC_GetSysClockFreq>
 800133c:	490f      	ldr	r1, [pc, #60]	; (800137c <HAL_Init+0x4c>)
 800133e:	698b      	ldr	r3, [r1, #24]
 8001340:	f3c3 2303 	ubfx	r3, r3, #8, #4
 8001344:	4a0e      	ldr	r2, [pc, #56]	; (8001380 <HAL_Init+0x50>)
 8001346:	5cd3      	ldrb	r3, [r2, r3]
 8001348:	f003 031f 	and.w	r3, r3, #31
 800134c:	40d8      	lsrs	r0, r3
 800134e:	698b      	ldr	r3, [r1, #24]
 8001350:	f003 030f 	and.w	r3, r3, #15
 8001354:	5cd3      	ldrb	r3, [r2, r3]
 8001356:	f003 031f 	and.w	r3, r3, #31
 800135a:	fa20 f303 	lsr.w	r3, r0, r3
 800135e:	4a09      	ldr	r2, [pc, #36]	; (8001384 <HAL_Init+0x54>)
 8001360:	6013      	str	r3, [r2, #0]
 8001362:	4b09      	ldr	r3, [pc, #36]	; (8001388 <HAL_Init+0x58>)
 8001364:	6018      	str	r0, [r3, #0]
 8001366:	200f      	movs	r0, #15
 8001368:	f7ff ffba 	bl	80012e0 <HAL_InitTick>
 800136c:	b110      	cbz	r0, 8001374 <HAL_Init+0x44>
 800136e:	2401      	movs	r4, #1
 8001370:	4620      	mov	r0, r4
 8001372:	bd10      	pop	{r4, pc}
 8001374:	4604      	mov	r4, r0
 8001376:	f7ff febb 	bl	80010f0 <HAL_MspInit>
 800137a:	e7f9      	b.n	8001370 <HAL_Init+0x40>
 800137c:	58024400 	.word	0x58024400
 8001380:	080050ac 	.word	0x080050ac
 8001384:	240040cc 	.word	0x240040cc
 8001388:	240040c8 	.word	0x240040c8

0800138c <HAL_IncTick>:
 800138c:	4b03      	ldr	r3, [pc, #12]	; (800139c <HAL_IncTick+0x10>)
 800138e:	781b      	ldrb	r3, [r3, #0]
 8001390:	4a03      	ldr	r2, [pc, #12]	; (80013a0 <HAL_IncTick+0x14>)
 8001392:	6811      	ldr	r1, [r2, #0]
 8001394:	440b      	add	r3, r1
 8001396:	6013      	str	r3, [r2, #0]
 8001398:	4770      	bx	lr
 800139a:	bf00      	nop
 800139c:	240040d0 	.word	0x240040d0
 80013a0:	240042d0 	.word	0x240042d0

080013a4 <HAL_GetTick>:
 80013a4:	4b01      	ldr	r3, [pc, #4]	; (80013ac <HAL_GetTick+0x8>)
 80013a6:	6818      	ldr	r0, [r3, #0]
 80013a8:	4770      	bx	lr
 80013aa:	bf00      	nop
 80013ac:	240042d0 	.word	0x240042d0

080013b0 <HAL_Delay>:
 80013b0:	b538      	push	{r3, r4, r5, lr}
 80013b2:	4604      	mov	r4, r0
 80013b4:	f7ff fff6 	bl	80013a4 <HAL_GetTick>
 80013b8:	4605      	mov	r5, r0
 80013ba:	f1b4 3fff 	cmp.w	r4, #4294967295
 80013be:	d002      	beq.n	80013c6 <HAL_Delay+0x16>
 80013c0:	4b04      	ldr	r3, [pc, #16]	; (80013d4 <HAL_Delay+0x24>)
 80013c2:	781b      	ldrb	r3, [r3, #0]
 80013c4:	441c      	add	r4, r3
 80013c6:	f7ff ffed 	bl	80013a4 <HAL_GetTick>
 80013ca:	1b40      	subs	r0, r0, r5
 80013cc:	42a0      	cmp	r0, r4
 80013ce:	d3fa      	bcc.n	80013c6 <HAL_Delay+0x16>
 80013d0:	bd38      	pop	{r3, r4, r5, pc}
 80013d2:	bf00      	nop
 80013d4:	240040d0 	.word	0x240040d0

080013d8 <HAL_GetREVID>:
 80013d8:	4b01      	ldr	r3, [pc, #4]	; (80013e0 <HAL_GetREVID+0x8>)
 80013da:	6818      	ldr	r0, [r3, #0]
 80013dc:	0c00      	lsrs	r0, r0, #16
 80013de:	4770      	bx	lr
 80013e0:	5c001000 	.word	0x5c001000

080013e4 <HAL_ADC_PollForConversion>:
 80013e4:	e92d 41f0 	stmdb	sp!, {r4, r5, r6, r7, r8, lr}
 80013e8:	4604      	mov	r4, r0
 80013ea:	460e      	mov	r6, r1
 80013ec:	6803      	ldr	r3, [r0, #0]
 80013ee:	4947      	ldr	r1, [pc, #284]	; (800150c <HAL_ADC_PollForConversion+0x128>)
 80013f0:	4a47      	ldr	r2, [pc, #284]	; (8001510 <HAL_ADC_PollForConversion+0x12c>)
 80013f2:	4293      	cmp	r3, r2
 80013f4:	bf18      	it	ne
 80013f6:	428b      	cmpne	r3, r1
 80013f8:	d117      	bne.n	800142a <HAL_ADC_PollForConversion+0x46>
 80013fa:	f501 7140 	add.w	r1, r1, #768	; 0x300
 80013fe:	688f      	ldr	r7, [r1, #8]
 8001400:	f007 071f 	and.w	r7, r7, #31
 8001404:	6925      	ldr	r5, [r4, #16]
 8001406:	2d08      	cmp	r5, #8
 8001408:	d016      	beq.n	8001438 <HAL_ADC_PollForConversion+0x54>
 800140a:	2f05      	cmp	r7, #5
 800140c:	bf14      	ite	ne
 800140e:	2200      	movne	r2, #0
 8001410:	2201      	moveq	r2, #1
 8001412:	2f00      	cmp	r7, #0
 8001414:	bf08      	it	eq
 8001416:	2201      	moveq	r2, #1
 8001418:	b94a      	cbnz	r2, 800142e <HAL_ADC_PollForConversion+0x4a>
 800141a:	2f09      	cmp	r7, #9
 800141c:	d007      	beq.n	800142e <HAL_ADC_PollForConversion+0x4a>
 800141e:	688b      	ldr	r3, [r1, #8]
 8001420:	f413 4f40 	tst.w	r3, #49152	; 0xc000
 8001424:	d12d      	bne.n	8001482 <HAL_ADC_PollForConversion+0x9e>
 8001426:	2504      	movs	r5, #4
 8001428:	e006      	b.n	8001438 <HAL_ADC_PollForConversion+0x54>
 800142a:	493a      	ldr	r1, [pc, #232]	; (8001514 <HAL_ADC_PollForConversion+0x130>)
 800142c:	e7e7      	b.n	80013fe <HAL_ADC_PollForConversion+0x1a>
 800142e:	68db      	ldr	r3, [r3, #12]
 8001430:	f013 0f01 	tst.w	r3, #1
 8001434:	d11f      	bne.n	8001476 <HAL_ADC_PollForConversion+0x92>
 8001436:	2504      	movs	r5, #4
 8001438:	f7ff ffb4 	bl	80013a4 <HAL_GetTick>
 800143c:	4680      	mov	r8, r0
 800143e:	6823      	ldr	r3, [r4, #0]
 8001440:	681a      	ldr	r2, [r3, #0]
 8001442:	422a      	tst	r2, r5
 8001444:	d123      	bne.n	800148e <HAL_ADC_PollForConversion+0xaa>
 8001446:	f1b6 3fff 	cmp.w	r6, #4294967295
 800144a:	d0f8      	beq.n	800143e <HAL_ADC_PollForConversion+0x5a>
 800144c:	f7ff ffaa 	bl	80013a4 <HAL_GetTick>
 8001450:	eba0 0008 	sub.w	r0, r0, r8
 8001454:	42b0      	cmp	r0, r6
 8001456:	d801      	bhi.n	800145c <HAL_ADC_PollForConversion+0x78>
 8001458:	2e00      	cmp	r6, #0
 800145a:	d1f0      	bne.n	800143e <HAL_ADC_PollForConversion+0x5a>
 800145c:	6823      	ldr	r3, [r4, #0]
 800145e:	681b      	ldr	r3, [r3, #0]
 8001460:	422b      	tst	r3, r5
 8001462:	d1ec      	bne.n	800143e <HAL_ADC_PollForConversion+0x5a>
 8001464:	6d63      	ldr	r3, [r4, #84]	; 0x54
 8001466:	f043 0304 	orr.w	r3, r3, #4
 800146a:	6563      	str	r3, [r4, #84]	; 0x54
 800146c:	2300      	movs	r3, #0
 800146e:	f884 3050 	strb.w	r3, [r4, #80]	; 0x50
 8001472:	2003      	movs	r0, #3
 8001474:	e045      	b.n	8001502 <HAL_ADC_PollForConversion+0x11e>
 8001476:	6d63      	ldr	r3, [r4, #84]	; 0x54
 8001478:	f043 0320 	orr.w	r3, r3, #32
 800147c:	6563      	str	r3, [r4, #84]	; 0x54
 800147e:	2001      	movs	r0, #1
 8001480:	e03f      	b.n	8001502 <HAL_ADC_PollForConversion+0x11e>
 8001482:	6d63      	ldr	r3, [r4, #84]	; 0x54
 8001484:	f043 0320 	orr.w	r3, r3, #32
 8001488:	6563      	str	r3, [r4, #84]	; 0x54
 800148a:	2001      	movs	r0, #1
 800148c:	e039      	b.n	8001502 <HAL_ADC_PollForConversion+0x11e>
 800148e:	6d62      	ldr	r2, [r4, #84]	; 0x54
 8001490:	f442 7200 	orr.w	r2, r2, #512	; 0x200
 8001494:	6562      	str	r2, [r4, #84]	; 0x54
 8001496:	68da      	ldr	r2, [r3, #12]
 8001498:	f412 6f40 	tst.w	r2, #3072	; 0xc00
 800149c:	d111      	bne.n	80014c2 <HAL_ADC_PollForConversion+0xde>
 800149e:	7d62      	ldrb	r2, [r4, #21]
 80014a0:	b97a      	cbnz	r2, 80014c2 <HAL_ADC_PollForConversion+0xde>
 80014a2:	681a      	ldr	r2, [r3, #0]
 80014a4:	f012 0f08 	tst.w	r2, #8
 80014a8:	d00b      	beq.n	80014c2 <HAL_ADC_PollForConversion+0xde>
 80014aa:	6d62      	ldr	r2, [r4, #84]	; 0x54
 80014ac:	f422 7280 	bic.w	r2, r2, #256	; 0x100
 80014b0:	6562      	str	r2, [r4, #84]	; 0x54
 80014b2:	6d62      	ldr	r2, [r4, #84]	; 0x54
 80014b4:	f412 5f80 	tst.w	r2, #4096	; 0x1000
 80014b8:	d103      	bne.n	80014c2 <HAL_ADC_PollForConversion+0xde>
 80014ba:	6d62      	ldr	r2, [r4, #84]	; 0x54
 80014bc:	f042 0201 	orr.w	r2, r2, #1
 80014c0:	6562      	str	r2, [r4, #84]	; 0x54
 80014c2:	4a13      	ldr	r2, [pc, #76]	; (8001510 <HAL_ADC_PollForConversion+0x12c>)
 80014c4:	4293      	cmp	r3, r2
 80014c6:	d00c      	beq.n	80014e2 <HAL_ADC_PollForConversion+0xfe>
 80014c8:	461a      	mov	r2, r3
 80014ca:	4293      	cmp	r3, r2
 80014cc:	d00c      	beq.n	80014e8 <HAL_ADC_PollForConversion+0x104>
 80014ce:	2f05      	cmp	r7, #5
 80014d0:	bf14      	ite	ne
 80014d2:	2100      	movne	r1, #0
 80014d4:	2101      	moveq	r1, #1
 80014d6:	b13f      	cbz	r7, 80014e8 <HAL_ADC_PollForConversion+0x104>
 80014d8:	b931      	cbnz	r1, 80014e8 <HAL_ADC_PollForConversion+0x104>
 80014da:	2f09      	cmp	r7, #9
 80014dc:	d004      	beq.n	80014e8 <HAL_ADC_PollForConversion+0x104>
 80014de:	68d2      	ldr	r2, [r2, #12]
 80014e0:	e003      	b.n	80014ea <HAL_ADC_PollForConversion+0x106>
 80014e2:	f5a2 7280 	sub.w	r2, r2, #256	; 0x100
 80014e6:	e7f0      	b.n	80014ca <HAL_ADC_PollForConversion+0xe6>
 80014e8:	68da      	ldr	r2, [r3, #12]
 80014ea:	2d08      	cmp	r5, #8
 80014ec:	d006      	beq.n	80014fc <HAL_ADC_PollForConversion+0x118>
 80014ee:	f412 4f80 	tst.w	r2, #16384	; 0x4000
 80014f2:	d108      	bne.n	8001506 <HAL_ADC_PollForConversion+0x122>
 80014f4:	220c      	movs	r2, #12
 80014f6:	601a      	str	r2, [r3, #0]
 80014f8:	2000      	movs	r0, #0
 80014fa:	e002      	b.n	8001502 <HAL_ADC_PollForConversion+0x11e>
 80014fc:	2208      	movs	r2, #8
 80014fe:	601a      	str	r2, [r3, #0]
 8001500:	2000      	movs	r0, #0
 8001502:	e8bd 81f0 	ldmia.w	sp!, {r4, r5, r6, r7, r8, pc}
 8001506:	2000      	movs	r0, #0
 8001508:	e7fb      	b.n	8001502 <HAL_ADC_PollForConversion+0x11e>
 800150a:	bf00      	nop
 800150c:	40022000 	.word	0x40022000
 8001510:	40022100 	.word	0x40022100
 8001514:	58026300 	.word	0x58026300

08001518 <HAL_ADC_GetValue>:
 8001518:	6803      	ldr	r3, [r0, #0]
 800151a:	6c18      	ldr	r0, [r3, #64]	; 0x40
 800151c:	4770      	bx	lr
	...

08001520 <HAL_ADC_ConfigChannel>:
 8001520:	b4f0      	push	{r4, r5, r6, r7}
 8001522:	b082      	sub	sp, #8
 8001524:	2200      	movs	r2, #0
 8001526:	9201      	str	r2, [sp, #4]
 8001528:	f890 2050 	ldrb.w	r2, [r0, #80]	; 0x50
 800152c:	2a01      	cmp	r2, #1
 800152e:	f000 824e 	beq.w	80019ce <HAL_ADC_ConfigChannel+0x4ae>
 8001532:	4603      	mov	r3, r0
 8001534:	2201      	movs	r2, #1
 8001536:	f880 2050 	strb.w	r2, [r0, #80]	; 0x50
 800153a:	6800      	ldr	r0, [r0, #0]
 800153c:	6882      	ldr	r2, [r0, #8]
 800153e:	f012 0f04 	tst.w	r2, #4
 8001542:	d00a      	beq.n	800155a <HAL_ADC_ConfigChannel+0x3a>
 8001544:	6d5a      	ldr	r2, [r3, #84]	; 0x54
 8001546:	f042 0220 	orr.w	r2, r2, #32
 800154a:	655a      	str	r2, [r3, #84]	; 0x54
 800154c:	2001      	movs	r0, #1
 800154e:	2200      	movs	r2, #0
 8001550:	f883 2050 	strb.w	r2, [r3, #80]	; 0x50
 8001554:	b002      	add	sp, #8
 8001556:	bcf0      	pop	{r4, r5, r6, r7}
 8001558:	4770      	bx	lr
 800155a:	680a      	ldr	r2, [r1, #0]
 800155c:	f3c2 0413 	ubfx	r4, r2, #0, #20
 8001560:	2c00      	cmp	r4, #0
 8001562:	d14d      	bne.n	8001600 <HAL_ADC_ConfigChannel+0xe0>
 8001564:	f3c2 6284 	ubfx	r2, r2, #26, #5
 8001568:	2401      	movs	r4, #1
 800156a:	4094      	lsls	r4, r2
 800156c:	69c2      	ldr	r2, [r0, #28]
 800156e:	4322      	orrs	r2, r4
 8001570:	61c2      	str	r2, [r0, #28]
 8001572:	681e      	ldr	r6, [r3, #0]
 8001574:	684d      	ldr	r5, [r1, #4]
 8001576:	680c      	ldr	r4, [r1, #0]
 8001578:	3630      	adds	r6, #48	; 0x30
 800157a:	0a2a      	lsrs	r2, r5, #8
 800157c:	0092      	lsls	r2, r2, #2
 800157e:	f002 020c 	and.w	r2, r2, #12
 8001582:	58b0      	ldr	r0, [r6, r2]
 8001584:	f005 051f 	and.w	r5, r5, #31
 8001588:	271f      	movs	r7, #31
 800158a:	40af      	lsls	r7, r5
 800158c:	ea20 0007 	bic.w	r0, r0, r7
 8001590:	f3c4 6484 	ubfx	r4, r4, #26, #5
 8001594:	40ac      	lsls	r4, r5
 8001596:	4320      	orrs	r0, r4
 8001598:	50b0      	str	r0, [r6, r2]
 800159a:	681c      	ldr	r4, [r3, #0]
 800159c:	68a2      	ldr	r2, [r4, #8]
 800159e:	f012 0204 	ands.w	r2, r2, #4
 80015a2:	d000      	beq.n	80015a6 <HAL_ADC_ConfigChannel+0x86>
 80015a4:	2201      	movs	r2, #1
 80015a6:	68a0      	ldr	r0, [r4, #8]
 80015a8:	f010 0008 	ands.w	r0, r0, #8
 80015ac:	d000      	beq.n	80015b0 <HAL_ADC_ConfigChannel+0x90>
 80015ae:	2001      	movs	r0, #1
 80015b0:	4302      	orrs	r2, r0
 80015b2:	d163      	bne.n	800167c <HAL_ADC_ConfigChannel+0x15c>
 80015b4:	680f      	ldr	r7, [r1, #0]
 80015b6:	688d      	ldr	r5, [r1, #8]
 80015b8:	3414      	adds	r4, #20
 80015ba:	0e78      	lsrs	r0, r7, #25
 80015bc:	0080      	lsls	r0, r0, #2
 80015be:	f000 0004 	and.w	r0, r0, #4
 80015c2:	5826      	ldr	r6, [r4, r0]
 80015c4:	f3c7 5704 	ubfx	r7, r7, #20, #5
 80015c8:	f04f 0c07 	mov.w	ip, #7
 80015cc:	fa0c fc07 	lsl.w	ip, ip, r7
 80015d0:	ea26 060c 	bic.w	r6, r6, ip
 80015d4:	40bd      	lsls	r5, r7
 80015d6:	4335      	orrs	r5, r6
 80015d8:	5025      	str	r5, [r4, r0]
 80015da:	48b7      	ldr	r0, [pc, #732]	; (80018b8 <HAL_ADC_ConfigChannel+0x398>)
 80015dc:	6800      	ldr	r0, [r0, #0]
 80015de:	f000 4070 	and.w	r0, r0, #4026531840	; 0xf0000000
 80015e2:	f1b0 5f80 	cmp.w	r0, #268435456	; 0x10000000
 80015e6:	d017      	beq.n	8001618 <HAL_ADC_ConfigChannel+0xf8>
 80015e8:	681c      	ldr	r4, [r3, #0]
 80015ea:	68e0      	ldr	r0, [r4, #12]
 80015ec:	f010 0f10 	tst.w	r0, #16
 80015f0:	d166      	bne.n	80016c0 <HAL_ADC_ConfigChannel+0x1a0>
 80015f2:	6948      	ldr	r0, [r1, #20]
 80015f4:	68e4      	ldr	r4, [r4, #12]
 80015f6:	f3c4 0482 	ubfx	r4, r4, #2, #3
 80015fa:	0064      	lsls	r4, r4, #1
 80015fc:	40a0      	lsls	r0, r4
 80015fe:	e012      	b.n	8001626 <HAL_ADC_ConfigChannel+0x106>
 8001600:	fa92 f2a2 	rbit	r2, r2
 8001604:	b132      	cbz	r2, 8001614 <HAL_ADC_ConfigChannel+0xf4>
 8001606:	fab2 f282 	clz	r2, r2
 800160a:	f002 021f 	and.w	r2, r2, #31
 800160e:	2401      	movs	r4, #1
 8001610:	4094      	lsls	r4, r2
 8001612:	e7ab      	b.n	800156c <HAL_ADC_ConfigChannel+0x4c>
 8001614:	2220      	movs	r2, #32
 8001616:	e7f8      	b.n	800160a <HAL_ADC_ConfigChannel+0xea>
 8001618:	6948      	ldr	r0, [r1, #20]
 800161a:	681c      	ldr	r4, [r3, #0]
 800161c:	68e4      	ldr	r4, [r4, #12]
 800161e:	f3c4 0482 	ubfx	r4, r4, #2, #3
 8001622:	0064      	lsls	r4, r4, #1
 8001624:	40a0      	lsls	r0, r4
 8001626:	690d      	ldr	r5, [r1, #16]
 8001628:	2d04      	cmp	r5, #4
 800162a:	d057      	beq.n	80016dc <HAL_ADC_ConfigChannel+0x1bc>
 800162c:	681f      	ldr	r7, [r3, #0]
 800162e:	680e      	ldr	r6, [r1, #0]
 8001630:	3760      	adds	r7, #96	; 0x60
 8001632:	f857 4025 	ldr.w	r4, [r7, r5, lsl #2]
 8001636:	f004 4400 	and.w	r4, r4, #2147483648	; 0x80000000
 800163a:	f006 46f8 	and.w	r6, r6, #2080374784	; 0x7c000000
 800163e:	4330      	orrs	r0, r6
 8001640:	4320      	orrs	r0, r4
 8001642:	f847 0025 	str.w	r0, [r7, r5, lsl #2]
 8001646:	6818      	ldr	r0, [r3, #0]
 8001648:	690e      	ldr	r6, [r1, #16]
 800164a:	7e4c      	ldrb	r4, [r1, #25]
 800164c:	2c01      	cmp	r4, #1
 800164e:	d03f      	beq.n	80016d0 <HAL_ADC_ConfigChannel+0x1b0>
 8001650:	4614      	mov	r4, r2
 8001652:	3060      	adds	r0, #96	; 0x60
 8001654:	f850 5026 	ldr.w	r5, [r0, r6, lsl #2]
 8001658:	f025 4500 	bic.w	r5, r5, #2147483648	; 0x80000000
 800165c:	432c      	orrs	r4, r5
 800165e:	f840 4026 	str.w	r4, [r0, r6, lsl #2]
 8001662:	681d      	ldr	r5, [r3, #0]
 8001664:	6908      	ldr	r0, [r1, #16]
 8001666:	7e0c      	ldrb	r4, [r1, #24]
 8001668:	2c01      	cmp	r4, #1
 800166a:	d034      	beq.n	80016d6 <HAL_ADC_ConfigChannel+0x1b6>
 800166c:	692c      	ldr	r4, [r5, #16]
 800166e:	f424 44f0 	bic.w	r4, r4, #30720	; 0x7800
 8001672:	f000 001f 	and.w	r0, r0, #31
 8001676:	4082      	lsls	r2, r0
 8001678:	4322      	orrs	r2, r4
 800167a:	612a      	str	r2, [r5, #16]
 800167c:	6818      	ldr	r0, [r3, #0]
 800167e:	6882      	ldr	r2, [r0, #8]
 8001680:	f012 0f01 	tst.w	r2, #1
 8001684:	f040 819f 	bne.w	80019c6 <HAL_ADC_ConfigChannel+0x4a6>
 8001688:	680a      	ldr	r2, [r1, #0]
 800168a:	68cd      	ldr	r5, [r1, #12]
 800168c:	f8d0 40c0 	ldr.w	r4, [r0, #192]	; 0xc0
 8001690:	f3c2 0613 	ubfx	r6, r2, #0, #20
 8001694:	ea24 0406 	bic.w	r4, r4, r6
 8001698:	f005 0618 	and.w	r6, r5, #24
 800169c:	4d87      	ldr	r5, [pc, #540]	; (80018bc <HAL_ADC_ConfigChannel+0x39c>)
 800169e:	40f5      	lsrs	r5, r6
 80016a0:	402a      	ands	r2, r5
 80016a2:	f3c2 0213 	ubfx	r2, r2, #0, #20
 80016a6:	4322      	orrs	r2, r4
 80016a8:	f8c0 20c0 	str.w	r2, [r0, #192]	; 0xc0
 80016ac:	68c8      	ldr	r0, [r1, #12]
 80016ae:	4a84      	ldr	r2, [pc, #528]	; (80018c0 <HAL_ADC_ConfigChannel+0x3a0>)
 80016b0:	4290      	cmp	r0, r2
 80016b2:	d047      	beq.n	8001744 <HAL_ADC_ConfigChannel+0x224>
 80016b4:	680a      	ldr	r2, [r1, #0]
 80016b6:	2a00      	cmp	r2, #0
 80016b8:	f2c0 8104 	blt.w	80018c4 <HAL_ADC_ConfigChannel+0x3a4>
 80016bc:	2000      	movs	r0, #0
 80016be:	e746      	b.n	800154e <HAL_ADC_ConfigChannel+0x2e>
 80016c0:	6948      	ldr	r0, [r1, #20]
 80016c2:	68e4      	ldr	r4, [r4, #12]
 80016c4:	08a4      	lsrs	r4, r4, #2
 80016c6:	f004 0404 	and.w	r4, r4, #4
 80016ca:	0064      	lsls	r4, r4, #1
 80016cc:	40a0      	lsls	r0, r4
 80016ce:	e7aa      	b.n	8001626 <HAL_ADC_ConfigChannel+0x106>
 80016d0:	f04f 4400 	mov.w	r4, #2147483648	; 0x80000000
 80016d4:	e7bd      	b.n	8001652 <HAL_ADC_ConfigChannel+0x132>
 80016d6:	f44f 6200 	mov.w	r2, #2048	; 0x800
 80016da:	e7c7      	b.n	800166c <HAL_ADC_ConfigChannel+0x14c>
 80016dc:	6818      	ldr	r0, [r3, #0]
 80016de:	6e02      	ldr	r2, [r0, #96]	; 0x60
 80016e0:	f002 42f8 	and.w	r2, r2, #2080374784	; 0x7c000000
 80016e4:	680c      	ldr	r4, [r1, #0]
 80016e6:	ebb2 6f84 	cmp.w	r2, r4, lsl #26
 80016ea:	d01c      	beq.n	8001726 <HAL_ADC_ConfigChannel+0x206>
 80016ec:	6818      	ldr	r0, [r3, #0]
 80016ee:	6e42      	ldr	r2, [r0, #100]	; 0x64
 80016f0:	f002 42f8 	and.w	r2, r2, #2080374784	; 0x7c000000
 80016f4:	680c      	ldr	r4, [r1, #0]
 80016f6:	ebb2 6f84 	cmp.w	r2, r4, lsl #26
 80016fa:	d019      	beq.n	8001730 <HAL_ADC_ConfigChannel+0x210>
 80016fc:	6818      	ldr	r0, [r3, #0]
 80016fe:	6e82      	ldr	r2, [r0, #104]	; 0x68
 8001700:	f002 42f8 	and.w	r2, r2, #2080374784	; 0x7c000000
 8001704:	680c      	ldr	r4, [r1, #0]
 8001706:	ebb2 6f84 	cmp.w	r2, r4, lsl #26
 800170a:	d016      	beq.n	800173a <HAL_ADC_ConfigChannel+0x21a>
 800170c:	6818      	ldr	r0, [r3, #0]
 800170e:	6ec2      	ldr	r2, [r0, #108]	; 0x6c
 8001710:	f002 42f8 	and.w	r2, r2, #2080374784	; 0x7c000000
 8001714:	680c      	ldr	r4, [r1, #0]
 8001716:	ebb2 6f84 	cmp.w	r2, r4, lsl #26
 800171a:	d1af      	bne.n	800167c <HAL_ADC_ConfigChannel+0x15c>
 800171c:	6ec2      	ldr	r2, [r0, #108]	; 0x6c
 800171e:	f022 4200 	bic.w	r2, r2, #2147483648	; 0x80000000
 8001722:	66c2      	str	r2, [r0, #108]	; 0x6c
 8001724:	e7aa      	b.n	800167c <HAL_ADC_ConfigChannel+0x15c>
 8001726:	6e02      	ldr	r2, [r0, #96]	; 0x60
 8001728:	f022 4200 	bic.w	r2, r2, #2147483648	; 0x80000000
 800172c:	6602      	str	r2, [r0, #96]	; 0x60
 800172e:	e7dd      	b.n	80016ec <HAL_ADC_ConfigChannel+0x1cc>
 8001730:	6e42      	ldr	r2, [r0, #100]	; 0x64
 8001732:	f022 4200 	bic.w	r2, r2, #2147483648	; 0x80000000
 8001736:	6642      	str	r2, [r0, #100]	; 0x64
 8001738:	e7e0      	b.n	80016fc <HAL_ADC_ConfigChannel+0x1dc>
 800173a:	6e82      	ldr	r2, [r0, #104]	; 0x68
 800173c:	f022 4200 	bic.w	r2, r2, #2147483648	; 0x80000000
 8001740:	6682      	str	r2, [r0, #104]	; 0x68
 8001742:	e7e3      	b.n	800170c <HAL_ADC_ConfigChannel+0x1ec>
 8001744:	681d      	ldr	r5, [r3, #0]
 8001746:	680a      	ldr	r2, [r1, #0]
 8001748:	f3c2 0613 	ubfx	r6, r2, #0, #20
 800174c:	2e00      	cmp	r6, #0
 800174e:	d135      	bne.n	80017bc <HAL_ADC_ConfigChannel+0x29c>
 8001750:	0e90      	lsrs	r0, r2, #26
 8001752:	3001      	adds	r0, #1
 8001754:	f000 001f 	and.w	r0, r0, #31
 8001758:	2809      	cmp	r0, #9
 800175a:	bf8c      	ite	hi
 800175c:	2000      	movhi	r0, #0
 800175e:	2001      	movls	r0, #1
 8001760:	2800      	cmp	r0, #0
 8001762:	d062      	beq.n	800182a <HAL_ADC_ConfigChannel+0x30a>
 8001764:	2e00      	cmp	r6, #0
 8001766:	d138      	bne.n	80017da <HAL_ADC_ConfigChannel+0x2ba>
 8001768:	0e94      	lsrs	r4, r2, #26
 800176a:	3401      	adds	r4, #1
 800176c:	06a4      	lsls	r4, r4, #26
 800176e:	f004 44f8 	and.w	r4, r4, #2080374784	; 0x7c000000
 8001772:	2e00      	cmp	r6, #0
 8001774:	d13d      	bne.n	80017f2 <HAL_ADC_ConfigChannel+0x2d2>
 8001776:	0e90      	lsrs	r0, r2, #26
 8001778:	3001      	adds	r0, #1
 800177a:	f000 071f 	and.w	r7, r0, #31
 800177e:	2001      	movs	r0, #1
 8001780:	40b8      	lsls	r0, r7
 8001782:	4304      	orrs	r4, r0
 8001784:	2e00      	cmp	r6, #0
 8001786:	d142      	bne.n	800180e <HAL_ADC_ConfigChannel+0x2ee>
 8001788:	0e92      	lsrs	r2, r2, #26
 800178a:	3201      	adds	r2, #1
 800178c:	f002 021f 	and.w	r2, r2, #31
 8001790:	eb02 0242 	add.w	r2, r2, r2, lsl #1
 8001794:	0512      	lsls	r2, r2, #20
 8001796:	4322      	orrs	r2, r4
 8001798:	688c      	ldr	r4, [r1, #8]
 800179a:	3514      	adds	r5, #20
 800179c:	0e50      	lsrs	r0, r2, #25
 800179e:	0080      	lsls	r0, r0, #2
 80017a0:	f000 0004 	and.w	r0, r0, #4
 80017a4:	582e      	ldr	r6, [r5, r0]
 80017a6:	f3c2 5204 	ubfx	r2, r2, #20, #5
 80017aa:	2707      	movs	r7, #7
 80017ac:	4097      	lsls	r7, r2
 80017ae:	ea26 0607 	bic.w	r6, r6, r7
 80017b2:	fa04 f202 	lsl.w	r2, r4, r2
 80017b6:	4332      	orrs	r2, r6
 80017b8:	502a      	str	r2, [r5, r0]
 80017ba:	e77b      	b.n	80016b4 <HAL_ADC_ConfigChannel+0x194>
 80017bc:	fa92 f0a2 	rbit	r0, r2
 80017c0:	b148      	cbz	r0, 80017d6 <HAL_ADC_ConfigChannel+0x2b6>
 80017c2:	fab0 f080 	clz	r0, r0
 80017c6:	3001      	adds	r0, #1
 80017c8:	f000 001f 	and.w	r0, r0, #31
 80017cc:	2809      	cmp	r0, #9
 80017ce:	bf8c      	ite	hi
 80017d0:	2000      	movhi	r0, #0
 80017d2:	2001      	movls	r0, #1
 80017d4:	e7c4      	b.n	8001760 <HAL_ADC_ConfigChannel+0x240>
 80017d6:	2020      	movs	r0, #32
 80017d8:	e7f5      	b.n	80017c6 <HAL_ADC_ConfigChannel+0x2a6>
 80017da:	fa92 f4a2 	rbit	r4, r2
 80017de:	b134      	cbz	r4, 80017ee <HAL_ADC_ConfigChannel+0x2ce>
 80017e0:	fab4 f484 	clz	r4, r4
 80017e4:	3401      	adds	r4, #1
 80017e6:	06a4      	lsls	r4, r4, #26
 80017e8:	f004 44f8 	and.w	r4, r4, #2080374784	; 0x7c000000
 80017ec:	e7c1      	b.n	8001772 <HAL_ADC_ConfigChannel+0x252>
 80017ee:	2420      	movs	r4, #32
 80017f0:	e7f8      	b.n	80017e4 <HAL_ADC_ConfigChannel+0x2c4>
 80017f2:	fa92 f0a2 	rbit	r0, r2
 80017f6:	b140      	cbz	r0, 800180a <HAL_ADC_ConfigChannel+0x2ea>
 80017f8:	fab0 f080 	clz	r0, r0
 80017fc:	3001      	adds	r0, #1
 80017fe:	f000 001f 	and.w	r0, r0, #31
 8001802:	2701      	movs	r7, #1
 8001804:	fa07 f000 	lsl.w	r0, r7, r0
 8001808:	e7bb      	b.n	8001782 <HAL_ADC_ConfigChannel+0x262>
 800180a:	2020      	movs	r0, #32
 800180c:	e7f6      	b.n	80017fc <HAL_ADC_ConfigChannel+0x2dc>
 800180e:	fa92 f2a2 	rbit	r2, r2
 8001812:	b142      	cbz	r2, 8001826 <HAL_ADC_ConfigChannel+0x306>
 8001814:	fab2 f282 	clz	r2, r2
 8001818:	3201      	adds	r2, #1
 800181a:	f002 021f 	and.w	r2, r2, #31
 800181e:	eb02 0242 	add.w	r2, r2, r2, lsl #1
 8001822:	0512      	lsls	r2, r2, #20
 8001824:	e7b7      	b.n	8001796 <HAL_ADC_ConfigChannel+0x276>
 8001826:	2220      	movs	r2, #32
 8001828:	e7f6      	b.n	8001818 <HAL_ADC_ConfigChannel+0x2f8>
 800182a:	b9ce      	cbnz	r6, 8001860 <HAL_ADC_ConfigChannel+0x340>
 800182c:	0e94      	lsrs	r4, r2, #26
 800182e:	3401      	adds	r4, #1
 8001830:	06a4      	lsls	r4, r4, #26
 8001832:	f004 44f8 	and.w	r4, r4, #2080374784	; 0x7c000000
 8001836:	b9fe      	cbnz	r6, 8001878 <HAL_ADC_ConfigChannel+0x358>
 8001838:	0e90      	lsrs	r0, r2, #26
 800183a:	3001      	adds	r0, #1
 800183c:	f000 071f 	and.w	r7, r0, #31
 8001840:	2001      	movs	r0, #1
 8001842:	40b8      	lsls	r0, r7
 8001844:	4304      	orrs	r4, r0
 8001846:	bb2e      	cbnz	r6, 8001894 <HAL_ADC_ConfigChannel+0x374>
 8001848:	0e90      	lsrs	r0, r2, #26
 800184a:	3001      	adds	r0, #1
 800184c:	f000 001f 	and.w	r0, r0, #31
 8001850:	eb00 0240 	add.w	r2, r0, r0, lsl #1
 8001854:	3a1e      	subs	r2, #30
 8001856:	0512      	lsls	r2, r2, #20
 8001858:	f042 7200 	orr.w	r2, r2, #33554432	; 0x2000000
 800185c:	4322      	orrs	r2, r4
 800185e:	e79b      	b.n	8001798 <HAL_ADC_ConfigChannel+0x278>
 8001860:	fa92 f4a2 	rbit	r4, r2
 8001864:	b134      	cbz	r4, 8001874 <HAL_ADC_ConfigChannel+0x354>
 8001866:	fab4 f484 	clz	r4, r4
 800186a:	3401      	adds	r4, #1
 800186c:	06a4      	lsls	r4, r4, #26
 800186e:	f004 44f8 	and.w	r4, r4, #2080374784	; 0x7c000000
 8001872:	e7e0      	b.n	8001836 <HAL_ADC_ConfigChannel+0x316>
 8001874:	2420      	movs	r4, #32
 8001876:	e7f8      	b.n	800186a <HAL_ADC_ConfigChannel+0x34a>
 8001878:	fa92 f0a2 	rbit	r0, r2
 800187c:	b140      	cbz	r0, 8001890 <HAL_ADC_ConfigChannel+0x370>
 800187e:	fab0 f080 	clz	r0, r0
 8001882:	3001      	adds	r0, #1
 8001884:	f000 001f 	and.w	r0, r0, #31
 8001888:	2701      	movs	r7, #1
 800188a:	fa07 f000 	lsl.w	r0, r7, r0
 800188e:	e7d9      	b.n	8001844 <HAL_ADC_ConfigChannel+0x324>
 8001890:	2020      	movs	r0, #32
 8001892:	e7f6      	b.n	8001882 <HAL_ADC_ConfigChannel+0x362>
 8001894:	fa92 f2a2 	rbit	r2, r2
 8001898:	b15a      	cbz	r2, 80018b2 <HAL_ADC_ConfigChannel+0x392>
 800189a:	fab2 f082 	clz	r0, r2
 800189e:	3001      	adds	r0, #1
 80018a0:	f000 001f 	and.w	r0, r0, #31
 80018a4:	eb00 0240 	add.w	r2, r0, r0, lsl #1
 80018a8:	3a1e      	subs	r2, #30
 80018aa:	0512      	lsls	r2, r2, #20
 80018ac:	f042 7200 	orr.w	r2, r2, #33554432	; 0x2000000
 80018b0:	e7d4      	b.n	800185c <HAL_ADC_ConfigChannel+0x33c>
 80018b2:	2020      	movs	r0, #32
 80018b4:	e7f3      	b.n	800189e <HAL_ADC_ConfigChannel+0x37e>
 80018b6:	bf00      	nop
 80018b8:	5c001000 	.word	0x5c001000
 80018bc:	000fffff 	.word	0x000fffff
 80018c0:	47ff0000 	.word	0x47ff0000
 80018c4:	6819      	ldr	r1, [r3, #0]
 80018c6:	4843      	ldr	r0, [pc, #268]	; (80019d4 <HAL_ADC_ConfigChannel+0x4b4>)
 80018c8:	4c43      	ldr	r4, [pc, #268]	; (80019d8 <HAL_ADC_ConfigChannel+0x4b8>)
 80018ca:	42a1      	cmp	r1, r4
 80018cc:	bf18      	it	ne
 80018ce:	4281      	cmpne	r1, r0
 80018d0:	bf0c      	ite	eq
 80018d2:	2001      	moveq	r0, #1
 80018d4:	2000      	movne	r0, #0
 80018d6:	d121      	bne.n	800191c <HAL_ADC_ConfigChannel+0x3fc>
 80018d8:	4e40      	ldr	r6, [pc, #256]	; (80019dc <HAL_ADC_ConfigChannel+0x4bc>)
 80018da:	68b5      	ldr	r5, [r6, #8]
 80018dc:	f005 77e0 	and.w	r7, r5, #29360128	; 0x1c00000
 80018e0:	b1f0      	cbz	r0, 8001920 <HAL_ADC_ConfigChannel+0x400>
 80018e2:	483c      	ldr	r0, [pc, #240]	; (80019d4 <HAL_ADC_ConfigChannel+0x4b4>)
 80018e4:	6880      	ldr	r0, [r0, #8]
 80018e6:	f010 0001 	ands.w	r0, r0, #1
 80018ea:	d000      	beq.n	80018ee <HAL_ADC_ConfigChannel+0x3ce>
 80018ec:	2001      	movs	r0, #1
 80018ee:	4c3a      	ldr	r4, [pc, #232]	; (80019d8 <HAL_ADC_ConfigChannel+0x4b8>)
 80018f0:	68a4      	ldr	r4, [r4, #8]
 80018f2:	f014 0401 	ands.w	r4, r4, #1
 80018f6:	d000      	beq.n	80018fa <HAL_ADC_ConfigChannel+0x3da>
 80018f8:	2401      	movs	r4, #1
 80018fa:	4320      	orrs	r0, r4
 80018fc:	bf0c      	ite	eq
 80018fe:	2001      	moveq	r0, #1
 8001900:	2000      	movne	r0, #0
 8001902:	2800      	cmp	r0, #0
 8001904:	d059      	beq.n	80019ba <HAL_ADC_ConfigChannel+0x49a>
 8001906:	4836      	ldr	r0, [pc, #216]	; (80019e0 <HAL_ADC_ConfigChannel+0x4c0>)
 8001908:	4282      	cmp	r2, r0
 800190a:	d012      	beq.n	8001932 <HAL_ADC_ConfigChannel+0x412>
 800190c:	4835      	ldr	r0, [pc, #212]	; (80019e4 <HAL_ADC_ConfigChannel+0x4c4>)
 800190e:	4282      	cmp	r2, r0
 8001910:	d031      	beq.n	8001976 <HAL_ADC_ConfigChannel+0x456>
 8001912:	4835      	ldr	r0, [pc, #212]	; (80019e8 <HAL_ADC_ConfigChannel+0x4c8>)
 8001914:	4282      	cmp	r2, r0
 8001916:	d03f      	beq.n	8001998 <HAL_ADC_ConfigChannel+0x478>
 8001918:	2000      	movs	r0, #0
 800191a:	e618      	b.n	800154e <HAL_ADC_ConfigChannel+0x2e>
 800191c:	4e33      	ldr	r6, [pc, #204]	; (80019ec <HAL_ADC_ConfigChannel+0x4cc>)
 800191e:	e7dc      	b.n	80018da <HAL_ADC_ConfigChannel+0x3ba>
 8001920:	4833      	ldr	r0, [pc, #204]	; (80019f0 <HAL_ADC_ConfigChannel+0x4d0>)
 8001922:	6880      	ldr	r0, [r0, #8]
 8001924:	f010 0001 	ands.w	r0, r0, #1
 8001928:	d000      	beq.n	800192c <HAL_ADC_ConfigChannel+0x40c>
 800192a:	2001      	movs	r0, #1
 800192c:	f080 0001 	eor.w	r0, r0, #1
 8001930:	e7e7      	b.n	8001902 <HAL_ADC_ConfigChannel+0x3e2>
 8001932:	f415 0f00 	tst.w	r5, #8388608	; 0x800000
 8001936:	d1e9      	bne.n	800190c <HAL_ADC_ConfigChannel+0x3ec>
 8001938:	4a2d      	ldr	r2, [pc, #180]	; (80019f0 <HAL_ADC_ConfigChannel+0x4d0>)
 800193a:	4291      	cmp	r1, r2
 800193c:	d001      	beq.n	8001942 <HAL_ADC_ConfigChannel+0x422>
 800193e:	2000      	movs	r0, #0
 8001940:	e605      	b.n	800154e <HAL_ADC_ConfigChannel+0x2e>
 8001942:	f447 0200 	orr.w	r2, r7, #8388608	; 0x800000
 8001946:	68b1      	ldr	r1, [r6, #8]
 8001948:	f021 71e0 	bic.w	r1, r1, #29360128	; 0x1c00000
 800194c:	430a      	orrs	r2, r1
 800194e:	60b2      	str	r2, [r6, #8]
 8001950:	4a28      	ldr	r2, [pc, #160]	; (80019f4 <HAL_ADC_ConfigChannel+0x4d4>)
 8001952:	6812      	ldr	r2, [r2, #0]
 8001954:	0992      	lsrs	r2, r2, #6
 8001956:	4928      	ldr	r1, [pc, #160]	; (80019f8 <HAL_ADC_ConfigChannel+0x4d8>)
 8001958:	fba1 1202 	umull	r1, r2, r1, r2
 800195c:	0992      	lsrs	r2, r2, #6
 800195e:	3201      	adds	r2, #1
 8001960:	0052      	lsls	r2, r2, #1
 8001962:	9201      	str	r2, [sp, #4]
 8001964:	e002      	b.n	800196c <HAL_ADC_ConfigChannel+0x44c>
 8001966:	9a01      	ldr	r2, [sp, #4]
 8001968:	3a01      	subs	r2, #1
 800196a:	9201      	str	r2, [sp, #4]
 800196c:	9a01      	ldr	r2, [sp, #4]
 800196e:	2a00      	cmp	r2, #0
 8001970:	d1f9      	bne.n	8001966 <HAL_ADC_ConfigChannel+0x446>
 8001972:	2000      	movs	r0, #0
 8001974:	e5eb      	b.n	800154e <HAL_ADC_ConfigChannel+0x2e>
 8001976:	f015 7f80 	tst.w	r5, #16777216	; 0x1000000
 800197a:	d1ca      	bne.n	8001912 <HAL_ADC_ConfigChannel+0x3f2>
 800197c:	4a1c      	ldr	r2, [pc, #112]	; (80019f0 <HAL_ADC_ConfigChannel+0x4d0>)
 800197e:	4291      	cmp	r1, r2
 8001980:	d001      	beq.n	8001986 <HAL_ADC_ConfigChannel+0x466>
 8001982:	2000      	movs	r0, #0
 8001984:	e5e3      	b.n	800154e <HAL_ADC_ConfigChannel+0x2e>
 8001986:	f047 7280 	orr.w	r2, r7, #16777216	; 0x1000000
 800198a:	68b1      	ldr	r1, [r6, #8]
 800198c:	f021 71e0 	bic.w	r1, r1, #29360128	; 0x1c00000
 8001990:	430a      	orrs	r2, r1
 8001992:	60b2      	str	r2, [r6, #8]
 8001994:	2000      	movs	r0, #0
 8001996:	e5da      	b.n	800154e <HAL_ADC_ConfigChannel+0x2e>
 8001998:	f415 0f80 	tst.w	r5, #4194304	; 0x400000
 800199c:	d115      	bne.n	80019ca <HAL_ADC_ConfigChannel+0x4aa>
 800199e:	4a14      	ldr	r2, [pc, #80]	; (80019f0 <HAL_ADC_ConfigChannel+0x4d0>)
 80019a0:	4291      	cmp	r1, r2
 80019a2:	d001      	beq.n	80019a8 <HAL_ADC_ConfigChannel+0x488>
 80019a4:	2000      	movs	r0, #0
 80019a6:	e5d2      	b.n	800154e <HAL_ADC_ConfigChannel+0x2e>
 80019a8:	f447 0280 	orr.w	r2, r7, #4194304	; 0x400000
 80019ac:	68b1      	ldr	r1, [r6, #8]
 80019ae:	f021 71e0 	bic.w	r1, r1, #29360128	; 0x1c00000
 80019b2:	430a      	orrs	r2, r1
 80019b4:	60b2      	str	r2, [r6, #8]
 80019b6:	2000      	movs	r0, #0
 80019b8:	e5c9      	b.n	800154e <HAL_ADC_ConfigChannel+0x2e>
 80019ba:	6d5a      	ldr	r2, [r3, #84]	; 0x54
 80019bc:	f042 0220 	orr.w	r2, r2, #32
 80019c0:	655a      	str	r2, [r3, #84]	; 0x54
 80019c2:	2001      	movs	r0, #1
 80019c4:	e5c3      	b.n	800154e <HAL_ADC_ConfigChannel+0x2e>
 80019c6:	2000      	movs	r0, #0
 80019c8:	e5c1      	b.n	800154e <HAL_ADC_ConfigChannel+0x2e>
 80019ca:	2000      	movs	r0, #0
 80019cc:	e5bf      	b.n	800154e <HAL_ADC_ConfigChannel+0x2e>
 80019ce:	2002      	movs	r0, #2
 80019d0:	e5c0      	b.n	8001554 <HAL_ADC_ConfigChannel+0x34>
 80019d2:	bf00      	nop
 80019d4:	40022000 	.word	0x40022000
 80019d8:	40022100 	.word	0x40022100
 80019dc:	40022300 	.word	0x40022300
 80019e0:	cb840000 	.word	0xcb840000
 80019e4:	c7520000 	.word	0xc7520000
 80019e8:	cfb80000 	.word	0xcfb80000
 80019ec:	58026300 	.word	0x58026300
 80019f0:	58026000 	.word	0x58026000
 80019f4:	240040c8 	.word	0x240040c8
 80019f8:	053e2d63 	.word	0x053e2d63

080019fc <ADC_ConversionStop>:
 80019fc:	b570      	push	{r4, r5, r6, lr}
 80019fe:	4604      	mov	r4, r0
 8001a00:	6800      	ldr	r0, [r0, #0]
 8001a02:	6883      	ldr	r3, [r0, #8]
 8001a04:	f013 0304 	ands.w	r3, r3, #4
 8001a08:	d000      	beq.n	8001a0c <ADC_ConversionStop+0x10>
 8001a0a:	2301      	movs	r3, #1
 8001a0c:	6882      	ldr	r2, [r0, #8]
 8001a0e:	f012 0208 	ands.w	r2, r2, #8
 8001a12:	d000      	beq.n	8001a16 <ADC_ConversionStop+0x1a>
 8001a14:	2201      	movs	r2, #1
 8001a16:	4313      	orrs	r3, r2
 8001a18:	d067      	beq.n	8001aea <ADC_ConversionStop+0xee>
 8001a1a:	68c3      	ldr	r3, [r0, #12]
 8001a1c:	f013 7f00 	tst.w	r3, #33554432	; 0x2000000
 8001a20:	d004      	beq.n	8001a2c <ADC_ConversionStop+0x30>
 8001a22:	8aa2      	ldrh	r2, [r4, #20]
 8001a24:	f240 1301 	movw	r3, #257	; 0x101
 8001a28:	429a      	cmp	r2, r3
 8001a2a:	d04a      	beq.n	8001ac2 <ADC_ConversionStop+0xc6>
 8001a2c:	2902      	cmp	r1, #2
 8001a2e:	d00e      	beq.n	8001a4e <ADC_ConversionStop+0x52>
 8001a30:	6823      	ldr	r3, [r4, #0]
 8001a32:	689a      	ldr	r2, [r3, #8]
 8001a34:	f012 0f04 	tst.w	r2, #4
 8001a38:	d009      	beq.n	8001a4e <ADC_ConversionStop+0x52>
 8001a3a:	689a      	ldr	r2, [r3, #8]
 8001a3c:	f012 0f02 	tst.w	r2, #2
 8001a40:	d105      	bne.n	8001a4e <ADC_ConversionStop+0x52>
 8001a42:	6898      	ldr	r0, [r3, #8]
 8001a44:	4a2a      	ldr	r2, [pc, #168]	; (8001af0 <ADC_ConversionStop+0xf4>)
 8001a46:	4002      	ands	r2, r0
 8001a48:	f042 0210 	orr.w	r2, r2, #16
 8001a4c:	609a      	str	r2, [r3, #8]
 8001a4e:	2901      	cmp	r1, #1
 8001a50:	d00e      	beq.n	8001a70 <ADC_ConversionStop+0x74>
 8001a52:	6823      	ldr	r3, [r4, #0]
 8001a54:	689a      	ldr	r2, [r3, #8]
 8001a56:	f012 0f08 	tst.w	r2, #8
 8001a5a:	d009      	beq.n	8001a70 <ADC_ConversionStop+0x74>
 8001a5c:	689a      	ldr	r2, [r3, #8]
 8001a5e:	f012 0f02 	tst.w	r2, #2
 8001a62:	d105      	bne.n	8001a70 <ADC_ConversionStop+0x74>
 8001a64:	6898      	ldr	r0, [r3, #8]
 8001a66:	4a22      	ldr	r2, [pc, #136]	; (8001af0 <ADC_ConversionStop+0xf4>)
 8001a68:	4002      	ands	r2, r0
 8001a6a:	f042 0220 	orr.w	r2, r2, #32
 8001a6e:	609a      	str	r2, [r3, #8]
 8001a70:	2902      	cmp	r1, #2
 8001a72:	d034      	beq.n	8001ade <ADC_ConversionStop+0xe2>
 8001a74:	2903      	cmp	r1, #3
 8001a76:	d134      	bne.n	8001ae2 <ADC_ConversionStop+0xe6>
 8001a78:	250c      	movs	r5, #12
 8001a7a:	f7ff fc93 	bl	80013a4 <HAL_GetTick>
 8001a7e:	4606      	mov	r6, r0
 8001a80:	6823      	ldr	r3, [r4, #0]
 8001a82:	689b      	ldr	r3, [r3, #8]
 8001a84:	422b      	tst	r3, r5
 8001a86:	d02e      	beq.n	8001ae6 <ADC_ConversionStop+0xea>
 8001a88:	f7ff fc8c 	bl	80013a4 <HAL_GetTick>
 8001a8c:	1b83      	subs	r3, r0, r6
 8001a8e:	2b05      	cmp	r3, #5
 8001a90:	d9f6      	bls.n	8001a80 <ADC_ConversionStop+0x84>
 8001a92:	6823      	ldr	r3, [r4, #0]
 8001a94:	689b      	ldr	r3, [r3, #8]
 8001a96:	422b      	tst	r3, r5
 8001a98:	d0f2      	beq.n	8001a80 <ADC_ConversionStop+0x84>
 8001a9a:	6d63      	ldr	r3, [r4, #84]	; 0x54
 8001a9c:	f043 0310 	orr.w	r3, r3, #16
 8001aa0:	6563      	str	r3, [r4, #84]	; 0x54
 8001aa2:	6da3      	ldr	r3, [r4, #88]	; 0x58
 8001aa4:	f043 0301 	orr.w	r3, r3, #1
 8001aa8:	65a3      	str	r3, [r4, #88]	; 0x58
 8001aaa:	2001      	movs	r0, #1
 8001aac:	e01e      	b.n	8001aec <ADC_ConversionStop+0xf0>
 8001aae:	6d63      	ldr	r3, [r4, #84]	; 0x54
 8001ab0:	f043 0310 	orr.w	r3, r3, #16
 8001ab4:	6563      	str	r3, [r4, #84]	; 0x54
 8001ab6:	6da3      	ldr	r3, [r4, #88]	; 0x58
 8001ab8:	f043 0301 	orr.w	r3, r3, #1
 8001abc:	65a3      	str	r3, [r4, #88]	; 0x58
 8001abe:	2001      	movs	r0, #1
 8001ac0:	e014      	b.n	8001aec <ADC_ConversionStop+0xf0>
 8001ac2:	2300      	movs	r3, #0
 8001ac4:	6802      	ldr	r2, [r0, #0]
 8001ac6:	f012 0f40 	tst.w	r2, #64	; 0x40
 8001aca:	d104      	bne.n	8001ad6 <ADC_ConversionStop+0xda>
 8001acc:	4a09      	ldr	r2, [pc, #36]	; (8001af4 <ADC_ConversionStop+0xf8>)
 8001ace:	4293      	cmp	r3, r2
 8001ad0:	d8ed      	bhi.n	8001aae <ADC_ConversionStop+0xb2>
 8001ad2:	3301      	adds	r3, #1
 8001ad4:	e7f6      	b.n	8001ac4 <ADC_ConversionStop+0xc8>
 8001ad6:	2340      	movs	r3, #64	; 0x40
 8001ad8:	6003      	str	r3, [r0, #0]
 8001ada:	2101      	movs	r1, #1
 8001adc:	e7a8      	b.n	8001a30 <ADC_ConversionStop+0x34>
 8001ade:	2508      	movs	r5, #8
 8001ae0:	e7cb      	b.n	8001a7a <ADC_ConversionStop+0x7e>
 8001ae2:	2504      	movs	r5, #4
 8001ae4:	e7c9      	b.n	8001a7a <ADC_ConversionStop+0x7e>
 8001ae6:	2000      	movs	r0, #0
 8001ae8:	e000      	b.n	8001aec <ADC_ConversionStop+0xf0>
 8001aea:	2000      	movs	r0, #0
 8001aec:	bd70      	pop	{r4, r5, r6, pc}
 8001aee:	bf00      	nop
 8001af0:	7fffffc0 	.word	0x7fffffc0
 8001af4:	000cdbff 	.word	0x000cdbff

08001af8 <ADC_Enable>:
 8001af8:	b538      	push	{r3, r4, r5, lr}
 8001afa:	6803      	ldr	r3, [r0, #0]
 8001afc:	689a      	ldr	r2, [r3, #8]
 8001afe:	f012 0f01 	tst.w	r2, #1
 8001b02:	d156      	bne.n	8001bb2 <ADC_Enable+0xba>
 8001b04:	4604      	mov	r4, r0
 8001b06:	6899      	ldr	r1, [r3, #8]
 8001b08:	4a2b      	ldr	r2, [pc, #172]	; (8001bb8 <ADC_Enable+0xc0>)
 8001b0a:	4211      	tst	r1, r2
 8001b0c:	d009      	beq.n	8001b22 <ADC_Enable+0x2a>
 8001b0e:	6d43      	ldr	r3, [r0, #84]	; 0x54
 8001b10:	f043 0310 	orr.w	r3, r3, #16
 8001b14:	6543      	str	r3, [r0, #84]	; 0x54
 8001b16:	6d83      	ldr	r3, [r0, #88]	; 0x58
 8001b18:	f043 0301 	orr.w	r3, r3, #1
 8001b1c:	6583      	str	r3, [r0, #88]	; 0x58
 8001b1e:	2001      	movs	r0, #1
 8001b20:	e048      	b.n	8001bb4 <ADC_Enable+0xbc>
 8001b22:	6899      	ldr	r1, [r3, #8]
 8001b24:	4a25      	ldr	r2, [pc, #148]	; (8001bbc <ADC_Enable+0xc4>)
 8001b26:	400a      	ands	r2, r1
 8001b28:	f042 0201 	orr.w	r2, r2, #1
 8001b2c:	609a      	str	r2, [r3, #8]
 8001b2e:	f7ff fc39 	bl	80013a4 <HAL_GetTick>
 8001b32:	4605      	mov	r5, r0
 8001b34:	6823      	ldr	r3, [r4, #0]
 8001b36:	4922      	ldr	r1, [pc, #136]	; (8001bc0 <ADC_Enable+0xc8>)
 8001b38:	4a22      	ldr	r2, [pc, #136]	; (8001bc4 <ADC_Enable+0xcc>)
 8001b3a:	4293      	cmp	r3, r2
 8001b3c:	bf18      	it	ne
 8001b3e:	428b      	cmpne	r3, r1
 8001b40:	d10d      	bne.n	8001b5e <ADC_Enable+0x66>
 8001b42:	f502 7200 	add.w	r2, r2, #512	; 0x200
 8001b46:	6892      	ldr	r2, [r2, #8]
 8001b48:	f002 021f 	and.w	r2, r2, #31
 8001b4c:	491d      	ldr	r1, [pc, #116]	; (8001bc4 <ADC_Enable+0xcc>)
 8001b4e:	428b      	cmp	r3, r1
 8001b50:	d007      	beq.n	8001b62 <ADC_Enable+0x6a>
 8001b52:	4619      	mov	r1, r3
 8001b54:	4299      	cmp	r1, r3
 8001b56:	d007      	beq.n	8001b68 <ADC_Enable+0x70>
 8001b58:	b132      	cbz	r2, 8001b68 <ADC_Enable+0x70>
 8001b5a:	2000      	movs	r0, #0
 8001b5c:	e02a      	b.n	8001bb4 <ADC_Enable+0xbc>
 8001b5e:	4a1a      	ldr	r2, [pc, #104]	; (8001bc8 <ADC_Enable+0xd0>)
 8001b60:	e7f1      	b.n	8001b46 <ADC_Enable+0x4e>
 8001b62:	f5a1 7180 	sub.w	r1, r1, #256	; 0x100
 8001b66:	e7f5      	b.n	8001b54 <ADC_Enable+0x5c>
 8001b68:	6823      	ldr	r3, [r4, #0]
 8001b6a:	681a      	ldr	r2, [r3, #0]
 8001b6c:	f012 0f01 	tst.w	r2, #1
 8001b70:	d11d      	bne.n	8001bae <ADC_Enable+0xb6>
 8001b72:	689a      	ldr	r2, [r3, #8]
 8001b74:	f012 0f01 	tst.w	r2, #1
 8001b78:	d105      	bne.n	8001b86 <ADC_Enable+0x8e>
 8001b7a:	6899      	ldr	r1, [r3, #8]
 8001b7c:	4a0f      	ldr	r2, [pc, #60]	; (8001bbc <ADC_Enable+0xc4>)
 8001b7e:	400a      	ands	r2, r1
 8001b80:	f042 0201 	orr.w	r2, r2, #1
 8001b84:	609a      	str	r2, [r3, #8]
 8001b86:	f7ff fc0d 	bl	80013a4 <HAL_GetTick>
 8001b8a:	1b40      	subs	r0, r0, r5
 8001b8c:	2802      	cmp	r0, #2
 8001b8e:	d9eb      	bls.n	8001b68 <ADC_Enable+0x70>
 8001b90:	6823      	ldr	r3, [r4, #0]
 8001b92:	681b      	ldr	r3, [r3, #0]
 8001b94:	f013 0f01 	tst.w	r3, #1
 8001b98:	d1e6      	bne.n	8001b68 <ADC_Enable+0x70>
 8001b9a:	6d63      	ldr	r3, [r4, #84]	; 0x54
 8001b9c:	f043 0310 	orr.w	r3, r3, #16
 8001ba0:	6563      	str	r3, [r4, #84]	; 0x54
 8001ba2:	6da3      	ldr	r3, [r4, #88]	; 0x58
 8001ba4:	f043 0301 	orr.w	r3, r3, #1
 8001ba8:	65a3      	str	r3, [r4, #88]	; 0x58
 8001baa:	2001      	movs	r0, #1
 8001bac:	e002      	b.n	8001bb4 <ADC_Enable+0xbc>
 8001bae:	2000      	movs	r0, #0
 8001bb0:	e000      	b.n	8001bb4 <ADC_Enable+0xbc>
 8001bb2:	2000      	movs	r0, #0
 8001bb4:	bd38      	pop	{r3, r4, r5, pc}
 8001bb6:	bf00      	nop
 8001bb8:	8000003f 	.word	0x8000003f
 8001bbc:	7fffffc0 	.word	0x7fffffc0
 8001bc0:	40022000 	.word	0x40022000
 8001bc4:	40022100 	.word	0x40022100
 8001bc8:	58026300 	.word	0x58026300

08001bcc <HAL_ADC_Start>:
 8001bcc:	b538      	push	{r3, r4, r5, lr}
 8001bce:	4604      	mov	r4, r0
 8001bd0:	6803      	ldr	r3, [r0, #0]
 8001bd2:	493e      	ldr	r1, [pc, #248]	; (8001ccc <HAL_ADC_Start+0x100>)
 8001bd4:	4a3e      	ldr	r2, [pc, #248]	; (8001cd0 <HAL_ADC_Start+0x104>)
 8001bd6:	4293      	cmp	r3, r2
 8001bd8:	bf18      	it	ne
 8001bda:	428b      	cmpne	r3, r1
 8001bdc:	d152      	bne.n	8001c84 <HAL_ADC_Start+0xb8>
 8001bde:	f502 7200 	add.w	r2, r2, #512	; 0x200
 8001be2:	6895      	ldr	r5, [r2, #8]
 8001be4:	f005 051f 	and.w	r5, r5, #31
 8001be8:	689b      	ldr	r3, [r3, #8]
 8001bea:	f013 0f04 	tst.w	r3, #4
 8001bee:	d169      	bne.n	8001cc4 <HAL_ADC_Start+0xf8>
 8001bf0:	f894 3050 	ldrb.w	r3, [r4, #80]	; 0x50
 8001bf4:	2b01      	cmp	r3, #1
 8001bf6:	d067      	beq.n	8001cc8 <HAL_ADC_Start+0xfc>
 8001bf8:	2301      	movs	r3, #1
 8001bfa:	f884 3050 	strb.w	r3, [r4, #80]	; 0x50
 8001bfe:	4620      	mov	r0, r4
 8001c00:	f7ff ff7a 	bl	8001af8 <ADC_Enable>
 8001c04:	2800      	cmp	r0, #0
 8001c06:	d159      	bne.n	8001cbc <HAL_ADC_Start+0xf0>
 8001c08:	6d62      	ldr	r2, [r4, #84]	; 0x54
 8001c0a:	f6a0 7302 	subw	r3, r0, #3842	; 0xf02
 8001c0e:	4013      	ands	r3, r2
 8001c10:	f443 7380 	orr.w	r3, r3, #256	; 0x100
 8001c14:	6563      	str	r3, [r4, #84]	; 0x54
 8001c16:	6823      	ldr	r3, [r4, #0]
 8001c18:	4a2d      	ldr	r2, [pc, #180]	; (8001cd0 <HAL_ADC_Start+0x104>)
 8001c1a:	4293      	cmp	r3, r2
 8001c1c:	d034      	beq.n	8001c88 <HAL_ADC_Start+0xbc>
 8001c1e:	461a      	mov	r2, r3
 8001c20:	4293      	cmp	r3, r2
 8001c22:	d000      	beq.n	8001c26 <HAL_ADC_Start+0x5a>
 8001c24:	b91d      	cbnz	r5, 8001c2e <HAL_ADC_Start+0x62>
 8001c26:	6d62      	ldr	r2, [r4, #84]	; 0x54
 8001c28:	f422 1280 	bic.w	r2, r2, #1048576	; 0x100000
 8001c2c:	6562      	str	r2, [r4, #84]	; 0x54
 8001c2e:	6d62      	ldr	r2, [r4, #84]	; 0x54
 8001c30:	f412 5f80 	tst.w	r2, #4096	; 0x1000
 8001c34:	d02b      	beq.n	8001c8e <HAL_ADC_Start+0xc2>
 8001c36:	6da2      	ldr	r2, [r4, #88]	; 0x58
 8001c38:	f022 0206 	bic.w	r2, r2, #6
 8001c3c:	65a2      	str	r2, [r4, #88]	; 0x58
 8001c3e:	221c      	movs	r2, #28
 8001c40:	601a      	str	r2, [r3, #0]
 8001c42:	2300      	movs	r3, #0
 8001c44:	f884 3050 	strb.w	r3, [r4, #80]	; 0x50
 8001c48:	6823      	ldr	r3, [r4, #0]
 8001c4a:	4a21      	ldr	r2, [pc, #132]	; (8001cd0 <HAL_ADC_Start+0x104>)
 8001c4c:	4293      	cmp	r3, r2
 8001c4e:	d021      	beq.n	8001c94 <HAL_ADC_Start+0xc8>
 8001c50:	461a      	mov	r2, r3
 8001c52:	4293      	cmp	r3, r2
 8001c54:	d021      	beq.n	8001c9a <HAL_ADC_Start+0xce>
 8001c56:	2d05      	cmp	r5, #5
 8001c58:	bf14      	ite	ne
 8001c5a:	2100      	movne	r1, #0
 8001c5c:	2101      	moveq	r1, #1
 8001c5e:	b1e5      	cbz	r5, 8001c9a <HAL_ADC_Start+0xce>
 8001c60:	b9d9      	cbnz	r1, 8001c9a <HAL_ADC_Start+0xce>
 8001c62:	2d09      	cmp	r5, #9
 8001c64:	d019      	beq.n	8001c9a <HAL_ADC_Start+0xce>
 8001c66:	6d63      	ldr	r3, [r4, #84]	; 0x54
 8001c68:	f443 1380 	orr.w	r3, r3, #1048576	; 0x100000
 8001c6c:	6563      	str	r3, [r4, #84]	; 0x54
 8001c6e:	68d3      	ldr	r3, [r2, #12]
 8001c70:	f013 7f00 	tst.w	r3, #33554432	; 0x2000000
 8001c74:	d027      	beq.n	8001cc6 <HAL_ADC_Start+0xfa>
 8001c76:	6d63      	ldr	r3, [r4, #84]	; 0x54
 8001c78:	f423 5340 	bic.w	r3, r3, #12288	; 0x3000
 8001c7c:	f443 5380 	orr.w	r3, r3, #4096	; 0x1000
 8001c80:	6563      	str	r3, [r4, #84]	; 0x54
 8001c82:	e020      	b.n	8001cc6 <HAL_ADC_Start+0xfa>
 8001c84:	4a13      	ldr	r2, [pc, #76]	; (8001cd4 <HAL_ADC_Start+0x108>)
 8001c86:	e7ac      	b.n	8001be2 <HAL_ADC_Start+0x16>
 8001c88:	f5a2 7280 	sub.w	r2, r2, #256	; 0x100
 8001c8c:	e7c8      	b.n	8001c20 <HAL_ADC_Start+0x54>
 8001c8e:	2200      	movs	r2, #0
 8001c90:	65a2      	str	r2, [r4, #88]	; 0x58
 8001c92:	e7d4      	b.n	8001c3e <HAL_ADC_Start+0x72>
 8001c94:	f5a2 7280 	sub.w	r2, r2, #256	; 0x100
 8001c98:	e7db      	b.n	8001c52 <HAL_ADC_Start+0x86>
 8001c9a:	68da      	ldr	r2, [r3, #12]
 8001c9c:	f012 7f00 	tst.w	r2, #33554432	; 0x2000000
 8001ca0:	d005      	beq.n	8001cae <HAL_ADC_Start+0xe2>
 8001ca2:	6d62      	ldr	r2, [r4, #84]	; 0x54
 8001ca4:	f422 5240 	bic.w	r2, r2, #12288	; 0x3000
 8001ca8:	f442 5280 	orr.w	r2, r2, #4096	; 0x1000
 8001cac:	6562      	str	r2, [r4, #84]	; 0x54
 8001cae:	6899      	ldr	r1, [r3, #8]
 8001cb0:	4a09      	ldr	r2, [pc, #36]	; (8001cd8 <HAL_ADC_Start+0x10c>)
 8001cb2:	400a      	ands	r2, r1
 8001cb4:	f042 0204 	orr.w	r2, r2, #4
 8001cb8:	609a      	str	r2, [r3, #8]
 8001cba:	e004      	b.n	8001cc6 <HAL_ADC_Start+0xfa>
 8001cbc:	2300      	movs	r3, #0
 8001cbe:	f884 3050 	strb.w	r3, [r4, #80]	; 0x50
 8001cc2:	e000      	b.n	8001cc6 <HAL_ADC_Start+0xfa>
 8001cc4:	2002      	movs	r0, #2
 8001cc6:	bd38      	pop	{r3, r4, r5, pc}
 8001cc8:	2002      	movs	r0, #2
 8001cca:	e7fc      	b.n	8001cc6 <HAL_ADC_Start+0xfa>
 8001ccc:	40022000 	.word	0x40022000
 8001cd0:	40022100 	.word	0x40022100
 8001cd4:	58026300 	.word	0x58026300
 8001cd8:	7fffffc0 	.word	0x7fffffc0

08001cdc <ADC_Disable>:
 8001cdc:	b538      	push	{r3, r4, r5, lr}
 8001cde:	4604      	mov	r4, r0
 8001ce0:	6802      	ldr	r2, [r0, #0]
 8001ce2:	6893      	ldr	r3, [r2, #8]
 8001ce4:	f013 0302 	ands.w	r3, r3, #2
 8001ce8:	d000      	beq.n	8001cec <ADC_Disable+0x10>
 8001cea:	2301      	movs	r3, #1
 8001cec:	6891      	ldr	r1, [r2, #8]
 8001cee:	f011 0f01 	tst.w	r1, #1
 8001cf2:	d037      	beq.n	8001d64 <ADC_Disable+0x88>
 8001cf4:	2b00      	cmp	r3, #0
 8001cf6:	d137      	bne.n	8001d68 <ADC_Disable+0x8c>
 8001cf8:	6893      	ldr	r3, [r2, #8]
 8001cfa:	f003 030d 	and.w	r3, r3, #13
 8001cfe:	2b01      	cmp	r3, #1
 8001d00:	d009      	beq.n	8001d16 <ADC_Disable+0x3a>
 8001d02:	6d63      	ldr	r3, [r4, #84]	; 0x54
 8001d04:	f043 0310 	orr.w	r3, r3, #16
 8001d08:	6563      	str	r3, [r4, #84]	; 0x54
 8001d0a:	6da3      	ldr	r3, [r4, #88]	; 0x58
 8001d0c:	f043 0301 	orr.w	r3, r3, #1
 8001d10:	65a3      	str	r3, [r4, #88]	; 0x58
 8001d12:	2001      	movs	r0, #1
 8001d14:	e027      	b.n	8001d66 <ADC_Disable+0x8a>
 8001d16:	6891      	ldr	r1, [r2, #8]
 8001d18:	4b14      	ldr	r3, [pc, #80]	; (8001d6c <ADC_Disable+0x90>)
 8001d1a:	400b      	ands	r3, r1
 8001d1c:	f043 0302 	orr.w	r3, r3, #2
 8001d20:	6093      	str	r3, [r2, #8]
 8001d22:	6823      	ldr	r3, [r4, #0]
 8001d24:	2203      	movs	r2, #3
 8001d26:	601a      	str	r2, [r3, #0]
 8001d28:	f7ff fb3c 	bl	80013a4 <HAL_GetTick>
 8001d2c:	4605      	mov	r5, r0
 8001d2e:	6823      	ldr	r3, [r4, #0]
 8001d30:	689b      	ldr	r3, [r3, #8]
 8001d32:	f013 0f01 	tst.w	r3, #1
 8001d36:	d013      	beq.n	8001d60 <ADC_Disable+0x84>
 8001d38:	f7ff fb34 	bl	80013a4 <HAL_GetTick>
 8001d3c:	1b40      	subs	r0, r0, r5
 8001d3e:	2802      	cmp	r0, #2
 8001d40:	d9f5      	bls.n	8001d2e <ADC_Disable+0x52>
 8001d42:	6823      	ldr	r3, [r4, #0]
 8001d44:	689b      	ldr	r3, [r3, #8]
 8001d46:	f013 0f01 	tst.w	r3, #1
 8001d4a:	d0f0      	beq.n	8001d2e <ADC_Disable+0x52>
 8001d4c:	6d63      	ldr	r3, [r4, #84]	; 0x54
 8001d4e:	f043 0310 	orr.w	r3, r3, #16
 8001d52:	6563      	str	r3, [r4, #84]	; 0x54
 8001d54:	6da3      	ldr	r3, [r4, #88]	; 0x58
 8001d56:	f043 0301 	orr.w	r3, r3, #1
 8001d5a:	65a3      	str	r3, [r4, #88]	; 0x58
 8001d5c:	2001      	movs	r0, #1
 8001d5e:	e002      	b.n	8001d66 <ADC_Disable+0x8a>
 8001d60:	2000      	movs	r0, #0
 8001d62:	e000      	b.n	8001d66 <ADC_Disable+0x8a>
 8001d64:	2000      	movs	r0, #0
 8001d66:	bd38      	pop	{r3, r4, r5, pc}
 8001d68:	2000      	movs	r0, #0
 8001d6a:	e7fc      	b.n	8001d66 <ADC_Disable+0x8a>
 8001d6c:	7fffffc0 	.word	0x7fffffc0

08001d70 <HAL_ADC_Stop>:
 8001d70:	f890 3050 	ldrb.w	r3, [r0, #80]	; 0x50
 8001d74:	2b01      	cmp	r3, #1
 8001d76:	d018      	beq.n	8001daa <HAL_ADC_Stop+0x3a>
 8001d78:	b510      	push	{r4, lr}
 8001d7a:	4604      	mov	r4, r0
 8001d7c:	2301      	movs	r3, #1
 8001d7e:	f880 3050 	strb.w	r3, [r0, #80]	; 0x50
 8001d82:	2103      	movs	r1, #3
 8001d84:	f7ff fe3a 	bl	80019fc <ADC_ConversionStop>
 8001d88:	b118      	cbz	r0, 8001d92 <HAL_ADC_Stop+0x22>
 8001d8a:	2300      	movs	r3, #0
 8001d8c:	f884 3050 	strb.w	r3, [r4, #80]	; 0x50
 8001d90:	bd10      	pop	{r4, pc}
 8001d92:	4620      	mov	r0, r4
 8001d94:	f7ff ffa2 	bl	8001cdc <ADC_Disable>
 8001d98:	2800      	cmp	r0, #0
 8001d9a:	d1f6      	bne.n	8001d8a <HAL_ADC_Stop+0x1a>
 8001d9c:	6d62      	ldr	r2, [r4, #84]	; 0x54
 8001d9e:	4b04      	ldr	r3, [pc, #16]	; (8001db0 <HAL_ADC_Stop+0x40>)
 8001da0:	4013      	ands	r3, r2
 8001da2:	f043 0301 	orr.w	r3, r3, #1
 8001da6:	6563      	str	r3, [r4, #84]	; 0x54
 8001da8:	e7ef      	b.n	8001d8a <HAL_ADC_Stop+0x1a>
 8001daa:	2002      	movs	r0, #2
 8001dac:	4770      	bx	lr
 8001dae:	bf00      	nop
 8001db0:	ffffeefe 	.word	0xffffeefe

08001db4 <ADC_ConfigureBoostMode>:
 8001db4:	b538      	push	{r3, r4, r5, lr}
 8001db6:	4604      	mov	r4, r0
 8001db8:	6803      	ldr	r3, [r0, #0]
 8001dba:	494f      	ldr	r1, [pc, #316]	; (8001ef8 <ADC_ConfigureBoostMode+0x144>)
 8001dbc:	4a4f      	ldr	r2, [pc, #316]	; (8001efc <ADC_ConfigureBoostMode+0x148>)
 8001dbe:	4293      	cmp	r3, r2
 8001dc0:	bf18      	it	ne
 8001dc2:	428b      	cmpne	r3, r1
 8001dc4:	d123      	bne.n	8001e0e <ADC_ConfigureBoostMode+0x5a>
 8001dc6:	4b4e      	ldr	r3, [pc, #312]	; (8001f00 <ADC_ConfigureBoostMode+0x14c>)
 8001dc8:	689b      	ldr	r3, [r3, #8]
 8001dca:	f413 3f40 	tst.w	r3, #196608	; 0x30000
 8001dce:	bf14      	ite	ne
 8001dd0:	2301      	movne	r3, #1
 8001dd2:	2300      	moveq	r3, #0
 8001dd4:	b34b      	cbz	r3, 8001e2a <ADC_ConfigureBoostMode+0x76>
 8001dd6:	f001 fb21 	bl	800341c <HAL_RCC_GetHCLKFreq>
 8001dda:	4605      	mov	r5, r0
 8001ddc:	6863      	ldr	r3, [r4, #4]
 8001dde:	f5b3 3f00 	cmp.w	r3, #131072	; 0x20000
 8001de2:	d01c      	beq.n	8001e1e <ADC_ConfigureBoostMode+0x6a>
 8001de4:	f5b3 3f40 	cmp.w	r3, #196608	; 0x30000
 8001de8:	d01d      	beq.n	8001e26 <ADC_ConfigureBoostMode+0x72>
 8001dea:	f5b3 3f80 	cmp.w	r3, #65536	; 0x10000
 8001dee:	d016      	beq.n	8001e1e <ADC_ConfigureBoostMode+0x6a>
 8001df0:	f7ff faf2 	bl	80013d8 <HAL_GetREVID>
 8001df4:	f241 0303 	movw	r3, #4099	; 0x1003
 8001df8:	4298      	cmp	r0, r3
 8001dfa:	d857      	bhi.n	8001eac <ADC_ConfigureBoostMode+0xf8>
 8001dfc:	4b41      	ldr	r3, [pc, #260]	; (8001f04 <ADC_ConfigureBoostMode+0x150>)
 8001dfe:	429d      	cmp	r5, r3
 8001e00:	d94e      	bls.n	8001ea0 <ADC_ConfigureBoostMode+0xec>
 8001e02:	6822      	ldr	r2, [r4, #0]
 8001e04:	6893      	ldr	r3, [r2, #8]
 8001e06:	f443 7380 	orr.w	r3, r3, #256	; 0x100
 8001e0a:	6093      	str	r3, [r2, #8]
 8001e0c:	bd38      	pop	{r3, r4, r5, pc}
 8001e0e:	4b3e      	ldr	r3, [pc, #248]	; (8001f08 <ADC_ConfigureBoostMode+0x154>)
 8001e10:	689b      	ldr	r3, [r3, #8]
 8001e12:	f413 3f40 	tst.w	r3, #196608	; 0x30000
 8001e16:	bf14      	ite	ne
 8001e18:	2301      	movne	r3, #1
 8001e1a:	2300      	moveq	r3, #0
 8001e1c:	e7da      	b.n	8001dd4 <ADC_ConfigureBoostMode+0x20>
 8001e1e:	0c1b      	lsrs	r3, r3, #16
 8001e20:	fbb5 f5f3 	udiv	r5, r5, r3
 8001e24:	e7e4      	b.n	8001df0 <ADC_ConfigureBoostMode+0x3c>
 8001e26:	0885      	lsrs	r5, r0, #2
 8001e28:	e7e2      	b.n	8001df0 <ADC_ConfigureBoostMode+0x3c>
 8001e2a:	f44f 2000 	mov.w	r0, #524288	; 0x80000
 8001e2e:	f002 fc11 	bl	8004654 <HAL_RCCEx_GetPeriphCLKFreq>
 8001e32:	4605      	mov	r5, r0
 8001e34:	6863      	ldr	r3, [r4, #4]
 8001e36:	f5b3 1f10 	cmp.w	r3, #2359296	; 0x240000
 8001e3a:	d02d      	beq.n	8001e98 <ADC_ConfigureBoostMode+0xe4>
 8001e3c:	d822      	bhi.n	8001e84 <ADC_ConfigureBoostMode+0xd0>
 8001e3e:	f5b3 1fe0 	cmp.w	r3, #1835008	; 0x1c0000
 8001e42:	d027      	beq.n	8001e94 <ADC_ConfigureBoostMode+0xe0>
 8001e44:	d904      	bls.n	8001e50 <ADC_ConfigureBoostMode+0x9c>
 8001e46:	f5b3 1f00 	cmp.w	r3, #2097152	; 0x200000
 8001e4a:	d1d1      	bne.n	8001df0 <ADC_ConfigureBoostMode+0x3c>
 8001e4c:	0945      	lsrs	r5, r0, #5
 8001e4e:	e7cf      	b.n	8001df0 <ADC_ConfigureBoostMode+0x3c>
 8001e50:	f5b3 1f80 	cmp.w	r3, #1048576	; 0x100000
 8001e54:	d00d      	beq.n	8001e72 <ADC_ConfigureBoostMode+0xbe>
 8001e56:	d906      	bls.n	8001e66 <ADC_ConfigureBoostMode+0xb2>
 8001e58:	f5b3 1fa0 	cmp.w	r3, #1310720	; 0x140000
 8001e5c:	d009      	beq.n	8001e72 <ADC_ConfigureBoostMode+0xbe>
 8001e5e:	f5b3 1fc0 	cmp.w	r3, #1572864	; 0x180000
 8001e62:	d006      	beq.n	8001e72 <ADC_ConfigureBoostMode+0xbe>
 8001e64:	e7c4      	b.n	8001df0 <ADC_ConfigureBoostMode+0x3c>
 8001e66:	f5b3 2f00 	cmp.w	r3, #524288	; 0x80000
 8001e6a:	d002      	beq.n	8001e72 <ADC_ConfigureBoostMode+0xbe>
 8001e6c:	f5b3 2f40 	cmp.w	r3, #786432	; 0xc0000
 8001e70:	d104      	bne.n	8001e7c <ADC_ConfigureBoostMode+0xc8>
 8001e72:	0c9b      	lsrs	r3, r3, #18
 8001e74:	005b      	lsls	r3, r3, #1
 8001e76:	fbb5 f5f3 	udiv	r5, r5, r3
 8001e7a:	e7b9      	b.n	8001df0 <ADC_ConfigureBoostMode+0x3c>
 8001e7c:	f5b3 2f80 	cmp.w	r3, #262144	; 0x40000
 8001e80:	d0f7      	beq.n	8001e72 <ADC_ConfigureBoostMode+0xbe>
 8001e82:	e7b5      	b.n	8001df0 <ADC_ConfigureBoostMode+0x3c>
 8001e84:	f5b3 1f20 	cmp.w	r3, #2621440	; 0x280000
 8001e88:	d008      	beq.n	8001e9c <ADC_ConfigureBoostMode+0xe8>
 8001e8a:	f5b3 1f30 	cmp.w	r3, #2883584	; 0x2c0000
 8001e8e:	d1af      	bne.n	8001df0 <ADC_ConfigureBoostMode+0x3c>
 8001e90:	0a05      	lsrs	r5, r0, #8
 8001e92:	e7ad      	b.n	8001df0 <ADC_ConfigureBoostMode+0x3c>
 8001e94:	0905      	lsrs	r5, r0, #4
 8001e96:	e7ab      	b.n	8001df0 <ADC_ConfigureBoostMode+0x3c>
 8001e98:	0985      	lsrs	r5, r0, #6
 8001e9a:	e7a9      	b.n	8001df0 <ADC_ConfigureBoostMode+0x3c>
 8001e9c:	09c5      	lsrs	r5, r0, #7
 8001e9e:	e7a7      	b.n	8001df0 <ADC_ConfigureBoostMode+0x3c>
 8001ea0:	6822      	ldr	r2, [r4, #0]
 8001ea2:	6893      	ldr	r3, [r2, #8]
 8001ea4:	f423 7380 	bic.w	r3, r3, #256	; 0x100
 8001ea8:	6093      	str	r3, [r2, #8]
 8001eaa:	e7af      	b.n	8001e0c <ADC_ConfigureBoostMode+0x58>
 8001eac:	4b17      	ldr	r3, [pc, #92]	; (8001f0c <ADC_ConfigureBoostMode+0x158>)
 8001eae:	429d      	cmp	r5, r3
 8001eb0:	d805      	bhi.n	8001ebe <ADC_ConfigureBoostMode+0x10a>
 8001eb2:	6822      	ldr	r2, [r4, #0]
 8001eb4:	6893      	ldr	r3, [r2, #8]
 8001eb6:	f423 7340 	bic.w	r3, r3, #768	; 0x300
 8001eba:	6093      	str	r3, [r2, #8]
 8001ebc:	e7a6      	b.n	8001e0c <ADC_ConfigureBoostMode+0x58>
 8001ebe:	4b14      	ldr	r3, [pc, #80]	; (8001f10 <ADC_ConfigureBoostMode+0x15c>)
 8001ec0:	429d      	cmp	r5, r3
 8001ec2:	d807      	bhi.n	8001ed4 <ADC_ConfigureBoostMode+0x120>
 8001ec4:	6822      	ldr	r2, [r4, #0]
 8001ec6:	6893      	ldr	r3, [r2, #8]
 8001ec8:	f423 7340 	bic.w	r3, r3, #768	; 0x300
 8001ecc:	f443 7380 	orr.w	r3, r3, #256	; 0x100
 8001ed0:	6093      	str	r3, [r2, #8]
 8001ed2:	e79b      	b.n	8001e0c <ADC_ConfigureBoostMode+0x58>
 8001ed4:	4b0f      	ldr	r3, [pc, #60]	; (8001f14 <ADC_ConfigureBoostMode+0x160>)
 8001ed6:	429d      	cmp	r5, r3
 8001ed8:	d807      	bhi.n	8001eea <ADC_ConfigureBoostMode+0x136>
 8001eda:	6822      	ldr	r2, [r4, #0]
 8001edc:	6893      	ldr	r3, [r2, #8]
 8001ede:	f423 7340 	bic.w	r3, r3, #768	; 0x300
 8001ee2:	f443 7300 	orr.w	r3, r3, #512	; 0x200
 8001ee6:	6093      	str	r3, [r2, #8]
 8001ee8:	e790      	b.n	8001e0c <ADC_ConfigureBoostMode+0x58>
 8001eea:	6822      	ldr	r2, [r4, #0]
 8001eec:	6893      	ldr	r3, [r2, #8]
 8001eee:	f443 7340 	orr.w	r3, r3, #768	; 0x300
 8001ef2:	6093      	str	r3, [r2, #8]
 8001ef4:	e78a      	b.n	8001e0c <ADC_ConfigureBoostMode+0x58>
 8001ef6:	bf00      	nop
 8001ef8:	40022000 	.word	0x40022000
 8001efc:	40022100 	.word	0x40022100
 8001f00:	40022300 	.word	0x40022300
 8001f04:	01312d00 	.word	0x01312d00
 8001f08:	58026300 	.word	0x58026300
 8001f0c:	00bebc21 	.word	0x00bebc21
 8001f10:	017d7841 	.word	0x017d7841
 8001f14:	02faf081 	.word	0x02faf081

08001f18 <HAL_ADC_Init>:
 8001f18:	b530      	push	{r4, r5, lr}
 8001f1a:	b083      	sub	sp, #12
 8001f1c:	2300      	movs	r3, #0
 8001f1e:	9301      	str	r3, [sp, #4]
 8001f20:	2800      	cmp	r0, #0
 8001f22:	f000 810f 	beq.w	8002144 <HAL_ADC_Init+0x22c>
 8001f26:	4604      	mov	r4, r0
 8001f28:	6d43      	ldr	r3, [r0, #84]	; 0x54
 8001f2a:	b1eb      	cbz	r3, 8001f68 <HAL_ADC_Init+0x50>
 8001f2c:	6823      	ldr	r3, [r4, #0]
 8001f2e:	689a      	ldr	r2, [r3, #8]
 8001f30:	f012 5f00 	tst.w	r2, #536870912	; 0x20000000
 8001f34:	d003      	beq.n	8001f3e <HAL_ADC_Init+0x26>
 8001f36:	6899      	ldr	r1, [r3, #8]
 8001f38:	4a83      	ldr	r2, [pc, #524]	; (8002148 <HAL_ADC_Init+0x230>)
 8001f3a:	400a      	ands	r2, r1
 8001f3c:	609a      	str	r2, [r3, #8]
 8001f3e:	6823      	ldr	r3, [r4, #0]
 8001f40:	689a      	ldr	r2, [r3, #8]
 8001f42:	f012 5f80 	tst.w	r2, #268435456	; 0x10000000
 8001f46:	d11c      	bne.n	8001f82 <HAL_ADC_Init+0x6a>
 8001f48:	6899      	ldr	r1, [r3, #8]
 8001f4a:	4a80      	ldr	r2, [pc, #512]	; (800214c <HAL_ADC_Init+0x234>)
 8001f4c:	400a      	ands	r2, r1
 8001f4e:	f042 5280 	orr.w	r2, r2, #268435456	; 0x10000000
 8001f52:	609a      	str	r2, [r3, #8]
 8001f54:	4b7e      	ldr	r3, [pc, #504]	; (8002150 <HAL_ADC_Init+0x238>)
 8001f56:	681b      	ldr	r3, [r3, #0]
 8001f58:	099b      	lsrs	r3, r3, #6
 8001f5a:	4a7e      	ldr	r2, [pc, #504]	; (8002154 <HAL_ADC_Init+0x23c>)
 8001f5c:	fba2 2303 	umull	r2, r3, r2, r3
 8001f60:	099b      	lsrs	r3, r3, #6
 8001f62:	3301      	adds	r3, #1
 8001f64:	9301      	str	r3, [sp, #4]
 8001f66:	e009      	b.n	8001f7c <HAL_ADC_Init+0x64>
 8001f68:	f7fe fa06 	bl	8000378 <HAL_ADC_MspInit>
 8001f6c:	2300      	movs	r3, #0
 8001f6e:	65a3      	str	r3, [r4, #88]	; 0x58
 8001f70:	f884 3050 	strb.w	r3, [r4, #80]	; 0x50
 8001f74:	e7da      	b.n	8001f2c <HAL_ADC_Init+0x14>
 8001f76:	9b01      	ldr	r3, [sp, #4]
 8001f78:	3b01      	subs	r3, #1
 8001f7a:	9301      	str	r3, [sp, #4]
 8001f7c:	9b01      	ldr	r3, [sp, #4]
 8001f7e:	2b00      	cmp	r3, #0
 8001f80:	d1f9      	bne.n	8001f76 <HAL_ADC_Init+0x5e>
 8001f82:	6822      	ldr	r2, [r4, #0]
 8001f84:	6893      	ldr	r3, [r2, #8]
 8001f86:	f013 5f80 	tst.w	r3, #268435456	; 0x10000000
 8001f8a:	d109      	bne.n	8001fa0 <HAL_ADC_Init+0x88>
 8001f8c:	6d63      	ldr	r3, [r4, #84]	; 0x54
 8001f8e:	f043 0310 	orr.w	r3, r3, #16
 8001f92:	6563      	str	r3, [r4, #84]	; 0x54
 8001f94:	6da3      	ldr	r3, [r4, #88]	; 0x58
 8001f96:	f043 0301 	orr.w	r3, r3, #1
 8001f9a:	65a3      	str	r3, [r4, #88]	; 0x58
 8001f9c:	2501      	movs	r5, #1
 8001f9e:	e000      	b.n	8001fa2 <HAL_ADC_Init+0x8a>
 8001fa0:	2500      	movs	r5, #0
 8001fa2:	6893      	ldr	r3, [r2, #8]
 8001fa4:	f013 0304 	ands.w	r3, r3, #4
 8001fa8:	d000      	beq.n	8001fac <HAL_ADC_Init+0x94>
 8001faa:	2301      	movs	r3, #1
 8001fac:	6d61      	ldr	r1, [r4, #84]	; 0x54
 8001fae:	f011 0f10 	tst.w	r1, #16
 8001fb2:	f040 80bf 	bne.w	8002134 <HAL_ADC_Init+0x21c>
 8001fb6:	2b00      	cmp	r3, #0
 8001fb8:	f040 80bc 	bne.w	8002134 <HAL_ADC_Init+0x21c>
 8001fbc:	6d63      	ldr	r3, [r4, #84]	; 0x54
 8001fbe:	f423 7381 	bic.w	r3, r3, #258	; 0x102
 8001fc2:	f043 0302 	orr.w	r3, r3, #2
 8001fc6:	6563      	str	r3, [r4, #84]	; 0x54
 8001fc8:	6893      	ldr	r3, [r2, #8]
 8001fca:	f013 0f01 	tst.w	r3, #1
 8001fce:	d121      	bne.n	8002014 <HAL_ADC_Init+0xfc>
 8001fd0:	4961      	ldr	r1, [pc, #388]	; (8002158 <HAL_ADC_Init+0x240>)
 8001fd2:	4b62      	ldr	r3, [pc, #392]	; (800215c <HAL_ADC_Init+0x244>)
 8001fd4:	429a      	cmp	r2, r3
 8001fd6:	bf18      	it	ne
 8001fd8:	428a      	cmpne	r2, r1
 8001fda:	bf0c      	ite	eq
 8001fdc:	2201      	moveq	r2, #1
 8001fde:	2200      	movne	r2, #0
 8001fe0:	d172      	bne.n	80020c8 <HAL_ADC_Init+0x1b0>
 8001fe2:	688b      	ldr	r3, [r1, #8]
 8001fe4:	f013 0301 	ands.w	r3, r3, #1
 8001fe8:	d000      	beq.n	8001fec <HAL_ADC_Init+0xd4>
 8001fea:	2301      	movs	r3, #1
 8001fec:	495b      	ldr	r1, [pc, #364]	; (800215c <HAL_ADC_Init+0x244>)
 8001fee:	6889      	ldr	r1, [r1, #8]
 8001ff0:	f011 0101 	ands.w	r1, r1, #1
 8001ff4:	d000      	beq.n	8001ff8 <HAL_ADC_Init+0xe0>
 8001ff6:	2101      	movs	r1, #1
 8001ff8:	430b      	orrs	r3, r1
 8001ffa:	bf0c      	ite	eq
 8001ffc:	2301      	moveq	r3, #1
 8001ffe:	2300      	movne	r3, #0
 8002000:	b143      	cbz	r3, 8002014 <HAL_ADC_Init+0xfc>
 8002002:	2a00      	cmp	r2, #0
 8002004:	d069      	beq.n	80020da <HAL_ADC_Init+0x1c2>
 8002006:	4956      	ldr	r1, [pc, #344]	; (8002160 <HAL_ADC_Init+0x248>)
 8002008:	6863      	ldr	r3, [r4, #4]
 800200a:	688a      	ldr	r2, [r1, #8]
 800200c:	f422 127c 	bic.w	r2, r2, #4128768	; 0x3f0000
 8002010:	4313      	orrs	r3, r2
 8002012:	608b      	str	r3, [r1, #8]
 8002014:	f7ff f9e0 	bl	80013d8 <HAL_GetREVID>
 8002018:	f241 0303 	movw	r3, #4099	; 0x1003
 800201c:	4298      	cmp	r0, r3
 800201e:	d902      	bls.n	8002026 <HAL_ADC_Init+0x10e>
 8002020:	68a3      	ldr	r3, [r4, #8]
 8002022:	2b10      	cmp	r3, #16
 8002024:	d05b      	beq.n	80020de <HAL_ADC_Init+0x1c6>
 8002026:	7d62      	ldrb	r2, [r4, #21]
 8002028:	6b23      	ldr	r3, [r4, #48]	; 0x30
 800202a:	ea43 3342 	orr.w	r3, r3, r2, lsl #13
 800202e:	68a2      	ldr	r2, [r4, #8]
 8002030:	4313      	orrs	r3, r2
 8002032:	7f22      	ldrb	r2, [r4, #28]
 8002034:	ea43 4302 	orr.w	r3, r3, r2, lsl #16
 8002038:	7f22      	ldrb	r2, [r4, #28]
 800203a:	2a01      	cmp	r2, #1
 800203c:	d05a      	beq.n	80020f4 <HAL_ADC_Init+0x1dc>
 800203e:	6a62      	ldr	r2, [r4, #36]	; 0x24
 8002040:	b122      	cbz	r2, 800204c <HAL_ADC_Init+0x134>
 8002042:	f402 7278 	and.w	r2, r2, #992	; 0x3e0
 8002046:	6aa1      	ldr	r1, [r4, #40]	; 0x28
 8002048:	430a      	orrs	r2, r1
 800204a:	4313      	orrs	r3, r2
 800204c:	6821      	ldr	r1, [r4, #0]
 800204e:	68c8      	ldr	r0, [r1, #12]
 8002050:	4a44      	ldr	r2, [pc, #272]	; (8002164 <HAL_ADC_Init+0x24c>)
 8002052:	4002      	ands	r2, r0
 8002054:	4313      	orrs	r3, r2
 8002056:	60cb      	str	r3, [r1, #12]
 8002058:	6821      	ldr	r1, [r4, #0]
 800205a:	688b      	ldr	r3, [r1, #8]
 800205c:	f013 0304 	ands.w	r3, r3, #4
 8002060:	d000      	beq.n	8002064 <HAL_ADC_Init+0x14c>
 8002062:	2301      	movs	r3, #1
 8002064:	688a      	ldr	r2, [r1, #8]
 8002066:	f012 0208 	ands.w	r2, r2, #8
 800206a:	d000      	beq.n	800206e <HAL_ADC_Init+0x156>
 800206c:	2201      	movs	r2, #1
 800206e:	4313      	orrs	r3, r2
 8002070:	d11b      	bne.n	80020aa <HAL_ADC_Init+0x192>
 8002072:	7d22      	ldrb	r2, [r4, #20]
 8002074:	6ae3      	ldr	r3, [r4, #44]	; 0x2c
 8002076:	ea43 3282 	orr.w	r2, r3, r2, lsl #14
 800207a:	68c8      	ldr	r0, [r1, #12]
 800207c:	4b3a      	ldr	r3, [pc, #232]	; (8002168 <HAL_ADC_Init+0x250>)
 800207e:	4003      	ands	r3, r0
 8002080:	4313      	orrs	r3, r2
 8002082:	60cb      	str	r3, [r1, #12]
 8002084:	f894 3038 	ldrb.w	r3, [r4, #56]	; 0x38
 8002088:	2b01      	cmp	r3, #1
 800208a:	d038      	beq.n	80020fe <HAL_ADC_Init+0x1e6>
 800208c:	6822      	ldr	r2, [r4, #0]
 800208e:	6913      	ldr	r3, [r2, #16]
 8002090:	f023 0301 	bic.w	r3, r3, #1
 8002094:	6113      	str	r3, [r2, #16]
 8002096:	6822      	ldr	r2, [r4, #0]
 8002098:	6913      	ldr	r3, [r2, #16]
 800209a:	f023 4370 	bic.w	r3, r3, #4026531840	; 0xf0000000
 800209e:	6b61      	ldr	r1, [r4, #52]	; 0x34
 80020a0:	430b      	orrs	r3, r1
 80020a2:	6113      	str	r3, [r2, #16]
 80020a4:	4620      	mov	r0, r4
 80020a6:	f7ff fe85 	bl	8001db4 <ADC_ConfigureBoostMode>
 80020aa:	68e3      	ldr	r3, [r4, #12]
 80020ac:	2b01      	cmp	r3, #1
 80020ae:	d038      	beq.n	8002122 <HAL_ADC_Init+0x20a>
 80020b0:	6822      	ldr	r2, [r4, #0]
 80020b2:	6b13      	ldr	r3, [r2, #48]	; 0x30
 80020b4:	f023 030f 	bic.w	r3, r3, #15
 80020b8:	6313      	str	r3, [r2, #48]	; 0x30
 80020ba:	6d63      	ldr	r3, [r4, #84]	; 0x54
 80020bc:	f023 0303 	bic.w	r3, r3, #3
 80020c0:	f043 0301 	orr.w	r3, r3, #1
 80020c4:	6563      	str	r3, [r4, #84]	; 0x54
 80020c6:	e03a      	b.n	800213e <HAL_ADC_Init+0x226>
 80020c8:	4b28      	ldr	r3, [pc, #160]	; (800216c <HAL_ADC_Init+0x254>)
 80020ca:	689b      	ldr	r3, [r3, #8]
 80020cc:	f013 0301 	ands.w	r3, r3, #1
 80020d0:	d000      	beq.n	80020d4 <HAL_ADC_Init+0x1bc>
 80020d2:	2301      	movs	r3, #1
 80020d4:	f083 0301 	eor.w	r3, r3, #1
 80020d8:	e792      	b.n	8002000 <HAL_ADC_Init+0xe8>
 80020da:	4925      	ldr	r1, [pc, #148]	; (8002170 <HAL_ADC_Init+0x258>)
 80020dc:	e794      	b.n	8002008 <HAL_ADC_Init+0xf0>
 80020de:	7d61      	ldrb	r1, [r4, #21]
 80020e0:	6b22      	ldr	r2, [r4, #48]	; 0x30
 80020e2:	ea42 3241 	orr.w	r2, r2, r1, lsl #13
 80020e6:	4313      	orrs	r3, r2
 80020e8:	7f22      	ldrb	r2, [r4, #28]
 80020ea:	ea43 4302 	orr.w	r3, r3, r2, lsl #16
 80020ee:	f043 030c 	orr.w	r3, r3, #12
 80020f2:	e7a1      	b.n	8002038 <HAL_ADC_Init+0x120>
 80020f4:	6a22      	ldr	r2, [r4, #32]
 80020f6:	3a01      	subs	r2, #1
 80020f8:	ea43 4342 	orr.w	r3, r3, r2, lsl #17
 80020fc:	e79f      	b.n	800203e <HAL_ADC_Init+0x126>
 80020fe:	6820      	ldr	r0, [r4, #0]
 8002100:	6902      	ldr	r2, [r0, #16]
 8002102:	4b1c      	ldr	r3, [pc, #112]	; (8002174 <HAL_ADC_Init+0x25c>)
 8002104:	4013      	ands	r3, r2
 8002106:	6be2      	ldr	r2, [r4, #60]	; 0x3c
 8002108:	1e51      	subs	r1, r2, #1
 800210a:	6c22      	ldr	r2, [r4, #64]	; 0x40
 800210c:	ea42 4201 	orr.w	r2, r2, r1, lsl #16
 8002110:	6c61      	ldr	r1, [r4, #68]	; 0x44
 8002112:	430a      	orrs	r2, r1
 8002114:	6ca1      	ldr	r1, [r4, #72]	; 0x48
 8002116:	430a      	orrs	r2, r1
 8002118:	4313      	orrs	r3, r2
 800211a:	f043 0301 	orr.w	r3, r3, #1
 800211e:	6103      	str	r3, [r0, #16]
 8002120:	e7b9      	b.n	8002096 <HAL_ADC_Init+0x17e>
 8002122:	6821      	ldr	r1, [r4, #0]
 8002124:	6b0b      	ldr	r3, [r1, #48]	; 0x30
 8002126:	f023 030f 	bic.w	r3, r3, #15
 800212a:	69a2      	ldr	r2, [r4, #24]
 800212c:	3a01      	subs	r2, #1
 800212e:	4313      	orrs	r3, r2
 8002130:	630b      	str	r3, [r1, #48]	; 0x30
 8002132:	e7c2      	b.n	80020ba <HAL_ADC_Init+0x1a2>
 8002134:	6d63      	ldr	r3, [r4, #84]	; 0x54
 8002136:	f043 0310 	orr.w	r3, r3, #16
 800213a:	6563      	str	r3, [r4, #84]	; 0x54
 800213c:	2501      	movs	r5, #1
 800213e:	4628      	mov	r0, r5
 8002140:	b003      	add	sp, #12
 8002142:	bd30      	pop	{r4, r5, pc}
 8002144:	2501      	movs	r5, #1
 8002146:	e7fa      	b.n	800213e <HAL_ADC_Init+0x226>
 8002148:	5fffffc0 	.word	0x5fffffc0
 800214c:	6fffffc0 	.word	0x6fffffc0
 8002150:	240040c8 	.word	0x240040c8
 8002154:	053e2d63 	.word	0x053e2d63
 8002158:	40022000 	.word	0x40022000
 800215c:	40022100 	.word	0x40022100
 8002160:	40022300 	.word	0x40022300
 8002164:	fff0c003 	.word	0xfff0c003
 8002168:	ffffbffc 	.word	0xffffbffc
 800216c:	58026000 	.word	0x58026000
 8002170:	58026300 	.word	0x58026300
 8002174:	fc00f81e 	.word	0xfc00f81e

08002178 <HAL_ADCEx_MultiModeConfigChannel>:
 8002178:	f890 2050 	ldrb.w	r2, [r0, #80]	; 0x50
 800217c:	2a01      	cmp	r2, #1
 800217e:	f000 80a1 	beq.w	80022c4 <HAL_ADCEx_MultiModeConfigChannel+0x14c>
 8002182:	b430      	push	{r4, r5}
 8002184:	b09a      	sub	sp, #104	; 0x68
 8002186:	4603      	mov	r3, r0
 8002188:	2201      	movs	r2, #1
 800218a:	f880 2050 	strb.w	r2, [r0, #80]	; 0x50
 800218e:	2200      	movs	r2, #0
 8002190:	9216      	str	r2, [sp, #88]	; 0x58
 8002192:	9217      	str	r2, [sp, #92]	; 0x5c
 8002194:	6800      	ldr	r0, [r0, #0]
 8002196:	4a4c      	ldr	r2, [pc, #304]	; (80022c8 <HAL_ADCEx_MultiModeConfigChannel+0x150>)
 8002198:	4290      	cmp	r0, r2
 800219a:	d042      	beq.n	8002222 <HAL_ADCEx_MultiModeConfigChannel+0xaa>
 800219c:	2200      	movs	r2, #0
 800219e:	9201      	str	r2, [sp, #4]
 80021a0:	9a01      	ldr	r2, [sp, #4]
 80021a2:	2a00      	cmp	r2, #0
 80021a4:	d041      	beq.n	800222a <HAL_ADCEx_MultiModeConfigChannel+0xb2>
 80021a6:	6892      	ldr	r2, [r2, #8]
 80021a8:	f012 0204 	ands.w	r2, r2, #4
 80021ac:	d000      	beq.n	80021b0 <HAL_ADCEx_MultiModeConfigChannel+0x38>
 80021ae:	2201      	movs	r2, #1
 80021b0:	6884      	ldr	r4, [r0, #8]
 80021b2:	f014 0f04 	tst.w	r4, #4
 80021b6:	d176      	bne.n	80022a6 <HAL_ADCEx_MultiModeConfigChannel+0x12e>
 80021b8:	2a00      	cmp	r2, #0
 80021ba:	d174      	bne.n	80022a6 <HAL_ADCEx_MultiModeConfigChannel+0x12e>
 80021bc:	4c42      	ldr	r4, [pc, #264]	; (80022c8 <HAL_ADCEx_MultiModeConfigChannel+0x150>)
 80021be:	4a43      	ldr	r2, [pc, #268]	; (80022cc <HAL_ADCEx_MultiModeConfigChannel+0x154>)
 80021c0:	4290      	cmp	r0, r2
 80021c2:	bf18      	it	ne
 80021c4:	42a0      	cmpne	r0, r4
 80021c6:	d139      	bne.n	800223c <HAL_ADCEx_MultiModeConfigChannel+0xc4>
 80021c8:	f502 7200 	add.w	r2, r2, #512	; 0x200
 80021cc:	6808      	ldr	r0, [r1, #0]
 80021ce:	2800      	cmp	r0, #0
 80021d0:	d03f      	beq.n	8002252 <HAL_ADCEx_MultiModeConfigChannel+0xda>
 80021d2:	6890      	ldr	r0, [r2, #8]
 80021d4:	f420 4040 	bic.w	r0, r0, #49152	; 0xc000
 80021d8:	684c      	ldr	r4, [r1, #4]
 80021da:	4320      	orrs	r0, r4
 80021dc:	6090      	str	r0, [r2, #8]
 80021de:	6818      	ldr	r0, [r3, #0]
 80021e0:	4d39      	ldr	r5, [pc, #228]	; (80022c8 <HAL_ADCEx_MultiModeConfigChannel+0x150>)
 80021e2:	4c3a      	ldr	r4, [pc, #232]	; (80022cc <HAL_ADCEx_MultiModeConfigChannel+0x154>)
 80021e4:	42a0      	cmp	r0, r4
 80021e6:	bf18      	it	ne
 80021e8:	42a8      	cmpne	r0, r5
 80021ea:	d129      	bne.n	8002240 <HAL_ADCEx_MultiModeConfigChannel+0xc8>
 80021ec:	68a8      	ldr	r0, [r5, #8]
 80021ee:	f010 0001 	ands.w	r0, r0, #1
 80021f2:	d000      	beq.n	80021f6 <HAL_ADCEx_MultiModeConfigChannel+0x7e>
 80021f4:	2001      	movs	r0, #1
 80021f6:	4c35      	ldr	r4, [pc, #212]	; (80022cc <HAL_ADCEx_MultiModeConfigChannel+0x154>)
 80021f8:	68a4      	ldr	r4, [r4, #8]
 80021fa:	f014 0401 	ands.w	r4, r4, #1
 80021fe:	d000      	beq.n	8002202 <HAL_ADCEx_MultiModeConfigChannel+0x8a>
 8002200:	2401      	movs	r4, #1
 8002202:	4320      	orrs	r0, r4
 8002204:	bf0c      	ite	eq
 8002206:	2001      	moveq	r0, #1
 8002208:	2000      	movne	r0, #0
 800220a:	2800      	cmp	r0, #0
 800220c:	d056      	beq.n	80022bc <HAL_ADCEx_MultiModeConfigChannel+0x144>
 800220e:	6894      	ldr	r4, [r2, #8]
 8002210:	482f      	ldr	r0, [pc, #188]	; (80022d0 <HAL_ADCEx_MultiModeConfigChannel+0x158>)
 8002212:	4020      	ands	r0, r4
 8002214:	680c      	ldr	r4, [r1, #0]
 8002216:	6889      	ldr	r1, [r1, #8]
 8002218:	4321      	orrs	r1, r4
 800221a:	4308      	orrs	r0, r1
 800221c:	6090      	str	r0, [r2, #8]
 800221e:	2000      	movs	r0, #0
 8002220:	e046      	b.n	80022b0 <HAL_ADCEx_MultiModeConfigChannel+0x138>
 8002222:	f502 7280 	add.w	r2, r2, #256	; 0x100
 8002226:	9201      	str	r2, [sp, #4]
 8002228:	e7ba      	b.n	80021a0 <HAL_ADCEx_MultiModeConfigChannel+0x28>
 800222a:	6d5a      	ldr	r2, [r3, #84]	; 0x54
 800222c:	f042 0220 	orr.w	r2, r2, #32
 8002230:	655a      	str	r2, [r3, #84]	; 0x54
 8002232:	2200      	movs	r2, #0
 8002234:	f883 2050 	strb.w	r2, [r3, #80]	; 0x50
 8002238:	2001      	movs	r0, #1
 800223a:	e03c      	b.n	80022b6 <HAL_ADCEx_MultiModeConfigChannel+0x13e>
 800223c:	4a25      	ldr	r2, [pc, #148]	; (80022d4 <HAL_ADCEx_MultiModeConfigChannel+0x15c>)
 800223e:	e7c5      	b.n	80021cc <HAL_ADCEx_MultiModeConfigChannel+0x54>
 8002240:	4825      	ldr	r0, [pc, #148]	; (80022d8 <HAL_ADCEx_MultiModeConfigChannel+0x160>)
 8002242:	6880      	ldr	r0, [r0, #8]
 8002244:	f010 0001 	ands.w	r0, r0, #1
 8002248:	d000      	beq.n	800224c <HAL_ADCEx_MultiModeConfigChannel+0xd4>
 800224a:	2001      	movs	r0, #1
 800224c:	f080 0001 	eor.w	r0, r0, #1
 8002250:	e7db      	b.n	800220a <HAL_ADCEx_MultiModeConfigChannel+0x92>
 8002252:	6891      	ldr	r1, [r2, #8]
 8002254:	f421 4140 	bic.w	r1, r1, #49152	; 0xc000
 8002258:	6091      	str	r1, [r2, #8]
 800225a:	6819      	ldr	r1, [r3, #0]
 800225c:	4c1a      	ldr	r4, [pc, #104]	; (80022c8 <HAL_ADCEx_MultiModeConfigChannel+0x150>)
 800225e:	481b      	ldr	r0, [pc, #108]	; (80022cc <HAL_ADCEx_MultiModeConfigChannel+0x154>)
 8002260:	4281      	cmp	r1, r0
 8002262:	bf18      	it	ne
 8002264:	42a1      	cmpne	r1, r4
 8002266:	d115      	bne.n	8002294 <HAL_ADCEx_MultiModeConfigChannel+0x11c>
 8002268:	68a1      	ldr	r1, [r4, #8]
 800226a:	f011 0101 	ands.w	r1, r1, #1
 800226e:	d000      	beq.n	8002272 <HAL_ADCEx_MultiModeConfigChannel+0xfa>
 8002270:	2101      	movs	r1, #1
 8002272:	4816      	ldr	r0, [pc, #88]	; (80022cc <HAL_ADCEx_MultiModeConfigChannel+0x154>)
 8002274:	6880      	ldr	r0, [r0, #8]
 8002276:	f010 0001 	ands.w	r0, r0, #1
 800227a:	d000      	beq.n	800227e <HAL_ADCEx_MultiModeConfigChannel+0x106>
 800227c:	2001      	movs	r0, #1
 800227e:	4301      	orrs	r1, r0
 8002280:	bf0c      	ite	eq
 8002282:	2101      	moveq	r1, #1
 8002284:	2100      	movne	r1, #0
 8002286:	b1d9      	cbz	r1, 80022c0 <HAL_ADCEx_MultiModeConfigChannel+0x148>
 8002288:	6890      	ldr	r0, [r2, #8]
 800228a:	4911      	ldr	r1, [pc, #68]	; (80022d0 <HAL_ADCEx_MultiModeConfigChannel+0x158>)
 800228c:	4001      	ands	r1, r0
 800228e:	6091      	str	r1, [r2, #8]
 8002290:	2000      	movs	r0, #0
 8002292:	e00d      	b.n	80022b0 <HAL_ADCEx_MultiModeConfigChannel+0x138>
 8002294:	4910      	ldr	r1, [pc, #64]	; (80022d8 <HAL_ADCEx_MultiModeConfigChannel+0x160>)
 8002296:	6889      	ldr	r1, [r1, #8]
 8002298:	f011 0101 	ands.w	r1, r1, #1
 800229c:	d000      	beq.n	80022a0 <HAL_ADCEx_MultiModeConfigChannel+0x128>
 800229e:	2101      	movs	r1, #1
 80022a0:	f081 0101 	eor.w	r1, r1, #1
 80022a4:	e7ef      	b.n	8002286 <HAL_ADCEx_MultiModeConfigChannel+0x10e>
 80022a6:	6d5a      	ldr	r2, [r3, #84]	; 0x54
 80022a8:	f042 0220 	orr.w	r2, r2, #32
 80022ac:	655a      	str	r2, [r3, #84]	; 0x54
 80022ae:	2001      	movs	r0, #1
 80022b0:	2200      	movs	r2, #0
 80022b2:	f883 2050 	strb.w	r2, [r3, #80]	; 0x50
 80022b6:	b01a      	add	sp, #104	; 0x68
 80022b8:	bc30      	pop	{r4, r5}
 80022ba:	4770      	bx	lr
 80022bc:	2000      	movs	r0, #0
 80022be:	e7f7      	b.n	80022b0 <HAL_ADCEx_MultiModeConfigChannel+0x138>
 80022c0:	2000      	movs	r0, #0
 80022c2:	e7f5      	b.n	80022b0 <HAL_ADCEx_MultiModeConfigChannel+0x138>
 80022c4:	2002      	movs	r0, #2
 80022c6:	4770      	bx	lr
 80022c8:	40022000 	.word	0x40022000
 80022cc:	40022100 	.word	0x40022100
 80022d0:	fffff0e0 	.word	0xfffff0e0
 80022d4:	58026300 	.word	0x58026300
 80022d8:	58026000 	.word	0x58026000

080022dc <HAL_NVIC_SetPriorityGrouping>:
 80022dc:	4906      	ldr	r1, [pc, #24]	; (80022f8 <HAL_NVIC_SetPriorityGrouping+0x1c>)
 80022de:	68cb      	ldr	r3, [r1, #12]
 80022e0:	f423 63e0 	bic.w	r3, r3, #1792	; 0x700
 80022e4:	041b      	lsls	r3, r3, #16
 80022e6:	0c1b      	lsrs	r3, r3, #16
 80022e8:	0200      	lsls	r0, r0, #8
 80022ea:	f400 60e0 	and.w	r0, r0, #1792	; 0x700
 80022ee:	4303      	orrs	r3, r0
 80022f0:	4a02      	ldr	r2, [pc, #8]	; (80022fc <HAL_NVIC_SetPriorityGrouping+0x20>)
 80022f2:	431a      	orrs	r2, r3
 80022f4:	60ca      	str	r2, [r1, #12]
 80022f6:	4770      	bx	lr
 80022f8:	e000ed00 	.word	0xe000ed00
 80022fc:	05fa0000 	.word	0x05fa0000

08002300 <HAL_NVIC_SetPriority>:
 8002300:	b430      	push	{r4, r5}
 8002302:	4b15      	ldr	r3, [pc, #84]	; (8002358 <HAL_NVIC_SetPriority+0x58>)
 8002304:	68db      	ldr	r3, [r3, #12]
 8002306:	f3c3 2302 	ubfx	r3, r3, #8, #3
 800230a:	f1c3 0407 	rsb	r4, r3, #7
 800230e:	2c04      	cmp	r4, #4
 8002310:	bf28      	it	cs
 8002312:	2404      	movcs	r4, #4
 8002314:	1d1d      	adds	r5, r3, #4
 8002316:	2d06      	cmp	r5, #6
 8002318:	d914      	bls.n	8002344 <HAL_NVIC_SetPriority+0x44>
 800231a:	3b03      	subs	r3, #3
 800231c:	f04f 35ff 	mov.w	r5, #4294967295
 8002320:	fa05 f404 	lsl.w	r4, r5, r4
 8002324:	ea21 0104 	bic.w	r1, r1, r4
 8002328:	4099      	lsls	r1, r3
 800232a:	fa05 f303 	lsl.w	r3, r5, r3
 800232e:	ea22 0303 	bic.w	r3, r2, r3
 8002332:	4319      	orrs	r1, r3
 8002334:	2800      	cmp	r0, #0
 8002336:	db07      	blt.n	8002348 <HAL_NVIC_SetPriority+0x48>
 8002338:	0109      	lsls	r1, r1, #4
 800233a:	b2c9      	uxtb	r1, r1
 800233c:	4b07      	ldr	r3, [pc, #28]	; (800235c <HAL_NVIC_SetPriority+0x5c>)
 800233e:	5419      	strb	r1, [r3, r0]
 8002340:	bc30      	pop	{r4, r5}
 8002342:	4770      	bx	lr
 8002344:	2300      	movs	r3, #0
 8002346:	e7e9      	b.n	800231c <HAL_NVIC_SetPriority+0x1c>
 8002348:	f000 000f 	and.w	r0, r0, #15
 800234c:	0109      	lsls	r1, r1, #4
 800234e:	b2c9      	uxtb	r1, r1
 8002350:	4b03      	ldr	r3, [pc, #12]	; (8002360 <HAL_NVIC_SetPriority+0x60>)
 8002352:	5419      	strb	r1, [r3, r0]
 8002354:	e7f4      	b.n	8002340 <HAL_NVIC_SetPriority+0x40>
 8002356:	bf00      	nop
 8002358:	e000ed00 	.word	0xe000ed00
 800235c:	e000e400 	.word	0xe000e400
 8002360:	e000ed14 	.word	0xe000ed14

08002364 <HAL_NVIC_EnableIRQ>:
 8002364:	2800      	cmp	r0, #0
 8002366:	db07      	blt.n	8002378 <HAL_NVIC_EnableIRQ+0x14>
 8002368:	f000 021f 	and.w	r2, r0, #31
 800236c:	0940      	lsrs	r0, r0, #5
 800236e:	2301      	movs	r3, #1
 8002370:	4093      	lsls	r3, r2
 8002372:	4a02      	ldr	r2, [pc, #8]	; (800237c <HAL_NVIC_EnableIRQ+0x18>)
 8002374:	f842 3020 	str.w	r3, [r2, r0, lsl #2]
 8002378:	4770      	bx	lr
 800237a:	bf00      	nop
 800237c:	e000e100 	.word	0xe000e100

08002380 <HAL_SYSTICK_Config>:
 8002380:	3801      	subs	r0, #1
 8002382:	f1b0 7f80 	cmp.w	r0, #16777216	; 0x1000000
 8002386:	d20a      	bcs.n	800239e <HAL_SYSTICK_Config+0x1e>
 8002388:	4b06      	ldr	r3, [pc, #24]	; (80023a4 <HAL_SYSTICK_Config+0x24>)
 800238a:	6058      	str	r0, [r3, #4]
 800238c:	4a06      	ldr	r2, [pc, #24]	; (80023a8 <HAL_SYSTICK_Config+0x28>)
 800238e:	21f0      	movs	r1, #240	; 0xf0
 8002390:	f882 1023 	strb.w	r1, [r2, #35]	; 0x23
 8002394:	2000      	movs	r0, #0
 8002396:	6098      	str	r0, [r3, #8]
 8002398:	2207      	movs	r2, #7
 800239a:	601a      	str	r2, [r3, #0]
 800239c:	4770      	bx	lr
 800239e:	2001      	movs	r0, #1
 80023a0:	4770      	bx	lr
 80023a2:	bf00      	nop
 80023a4:	e000e010 	.word	0xe000e010
 80023a8:	e000ed00 	.word	0xe000ed00

080023ac <HAL_GPIO_Init>:
 80023ac:	b4f0      	push	{r4, r5, r6, r7}
 80023ae:	b082      	sub	sp, #8
 80023b0:	2300      	movs	r3, #0
 80023b2:	e05f      	b.n	8002474 <HAL_GPIO_Init+0xc8>
 80023b4:	6886      	ldr	r6, [r0, #8]
 80023b6:	005f      	lsls	r7, r3, #1
 80023b8:	2503      	movs	r5, #3
 80023ba:	40bd      	lsls	r5, r7
 80023bc:	ea26 0605 	bic.w	r6, r6, r5
 80023c0:	68cd      	ldr	r5, [r1, #12]
 80023c2:	40bd      	lsls	r5, r7
 80023c4:	4335      	orrs	r5, r6
 80023c6:	6085      	str	r5, [r0, #8]
 80023c8:	6846      	ldr	r6, [r0, #4]
 80023ca:	ea26 0604 	bic.w	r6, r6, r4
 80023ce:	684d      	ldr	r5, [r1, #4]
 80023d0:	f3c5 1400 	ubfx	r4, r5, #4, #1
 80023d4:	409c      	lsls	r4, r3
 80023d6:	4334      	orrs	r4, r6
 80023d8:	6044      	str	r4, [r0, #4]
 80023da:	e05a      	b.n	8002492 <HAL_GPIO_Init+0xe6>
 80023dc:	08dd      	lsrs	r5, r3, #3
 80023de:	3508      	adds	r5, #8
 80023e0:	f850 7025 	ldr.w	r7, [r0, r5, lsl #2]
 80023e4:	f003 0407 	and.w	r4, r3, #7
 80023e8:	00a6      	lsls	r6, r4, #2
 80023ea:	240f      	movs	r4, #15
 80023ec:	40b4      	lsls	r4, r6
 80023ee:	ea27 0704 	bic.w	r7, r7, r4
 80023f2:	690c      	ldr	r4, [r1, #16]
 80023f4:	40b4      	lsls	r4, r6
 80023f6:	433c      	orrs	r4, r7
 80023f8:	f840 4025 	str.w	r4, [r0, r5, lsl #2]
 80023fc:	e05d      	b.n	80024ba <HAL_GPIO_Init+0x10e>
 80023fe:	2409      	movs	r4, #9
 8002400:	e000      	b.n	8002404 <HAL_GPIO_Init+0x58>
 8002402:	2400      	movs	r4, #0
 8002404:	40b4      	lsls	r4, r6
 8002406:	433c      	orrs	r4, r7
 8002408:	3502      	adds	r5, #2
 800240a:	4e5f      	ldr	r6, [pc, #380]	; (8002588 <HAL_GPIO_Init+0x1dc>)
 800240c:	f846 4025 	str.w	r4, [r6, r5, lsl #2]
 8002410:	f04f 44b0 	mov.w	r4, #1476395008	; 0x58000000
 8002414:	6825      	ldr	r5, [r4, #0]
 8002416:	43d4      	mvns	r4, r2
 8002418:	ea25 0602 	bic.w	r6, r5, r2
 800241c:	684f      	ldr	r7, [r1, #4]
 800241e:	f417 1f80 	tst.w	r7, #1048576	; 0x100000
 8002422:	d001      	beq.n	8002428 <HAL_GPIO_Init+0x7c>
 8002424:	ea42 0605 	orr.w	r6, r2, r5
 8002428:	f04f 45b0 	mov.w	r5, #1476395008	; 0x58000000
 800242c:	602e      	str	r6, [r5, #0]
 800242e:	686e      	ldr	r6, [r5, #4]
 8002430:	ea04 0506 	and.w	r5, r4, r6
 8002434:	684f      	ldr	r7, [r1, #4]
 8002436:	f417 1f00 	tst.w	r7, #2097152	; 0x200000
 800243a:	d001      	beq.n	8002440 <HAL_GPIO_Init+0x94>
 800243c:	ea42 0506 	orr.w	r5, r2, r6
 8002440:	f04f 46b0 	mov.w	r6, #1476395008	; 0x58000000
 8002444:	6075      	str	r5, [r6, #4]
 8002446:	4d51      	ldr	r5, [pc, #324]	; (800258c <HAL_GPIO_Init+0x1e0>)
 8002448:	686d      	ldr	r5, [r5, #4]
 800244a:	ea04 0605 	and.w	r6, r4, r5
 800244e:	684f      	ldr	r7, [r1, #4]
 8002450:	f417 3f00 	tst.w	r7, #131072	; 0x20000
 8002454:	d001      	beq.n	800245a <HAL_GPIO_Init+0xae>
 8002456:	ea42 0605 	orr.w	r6, r2, r5
 800245a:	4d4c      	ldr	r5, [pc, #304]	; (800258c <HAL_GPIO_Init+0x1e0>)
 800245c:	606e      	str	r6, [r5, #4]
 800245e:	682d      	ldr	r5, [r5, #0]
 8002460:	402c      	ands	r4, r5
 8002462:	684e      	ldr	r6, [r1, #4]
 8002464:	f416 3f80 	tst.w	r6, #65536	; 0x10000
 8002468:	d001      	beq.n	800246e <HAL_GPIO_Init+0xc2>
 800246a:	ea42 0405 	orr.w	r4, r2, r5
 800246e:	4a47      	ldr	r2, [pc, #284]	; (800258c <HAL_GPIO_Init+0x1e0>)
 8002470:	6014      	str	r4, [r2, #0]
 8002472:	3301      	adds	r3, #1
 8002474:	680a      	ldr	r2, [r1, #0]
 8002476:	fa32 f403 	lsrs.w	r4, r2, r3
 800247a:	f000 8082 	beq.w	8002582 <HAL_GPIO_Init+0x1d6>
 800247e:	2401      	movs	r4, #1
 8002480:	409c      	lsls	r4, r3
 8002482:	4022      	ands	r2, r4
 8002484:	d0f5      	beq.n	8002472 <HAL_GPIO_Init+0xc6>
 8002486:	684d      	ldr	r5, [r1, #4]
 8002488:	f005 0503 	and.w	r5, r5, #3
 800248c:	3d01      	subs	r5, #1
 800248e:	2d01      	cmp	r5, #1
 8002490:	d990      	bls.n	80023b4 <HAL_GPIO_Init+0x8>
 8002492:	684c      	ldr	r4, [r1, #4]
 8002494:	f004 0403 	and.w	r4, r4, #3
 8002498:	2c03      	cmp	r4, #3
 800249a:	d009      	beq.n	80024b0 <HAL_GPIO_Init+0x104>
 800249c:	68c5      	ldr	r5, [r0, #12]
 800249e:	005e      	lsls	r6, r3, #1
 80024a0:	2403      	movs	r4, #3
 80024a2:	40b4      	lsls	r4, r6
 80024a4:	ea25 0504 	bic.w	r5, r5, r4
 80024a8:	688c      	ldr	r4, [r1, #8]
 80024aa:	40b4      	lsls	r4, r6
 80024ac:	432c      	orrs	r4, r5
 80024ae:	60c4      	str	r4, [r0, #12]
 80024b0:	684c      	ldr	r4, [r1, #4]
 80024b2:	f004 0403 	and.w	r4, r4, #3
 80024b6:	2c02      	cmp	r4, #2
 80024b8:	d090      	beq.n	80023dc <HAL_GPIO_Init+0x30>
 80024ba:	6805      	ldr	r5, [r0, #0]
 80024bc:	005e      	lsls	r6, r3, #1
 80024be:	2403      	movs	r4, #3
 80024c0:	40b4      	lsls	r4, r6
 80024c2:	ea25 0504 	bic.w	r5, r5, r4
 80024c6:	684c      	ldr	r4, [r1, #4]
 80024c8:	f004 0403 	and.w	r4, r4, #3
 80024cc:	40b4      	lsls	r4, r6
 80024ce:	432c      	orrs	r4, r5
 80024d0:	6004      	str	r4, [r0, #0]
 80024d2:	684c      	ldr	r4, [r1, #4]
 80024d4:	f414 3f40 	tst.w	r4, #196608	; 0x30000
 80024d8:	d0cb      	beq.n	8002472 <HAL_GPIO_Init+0xc6>
 80024da:	4c2d      	ldr	r4, [pc, #180]	; (8002590 <HAL_GPIO_Init+0x1e4>)
 80024dc:	f8d4 50f4 	ldr.w	r5, [r4, #244]	; 0xf4
 80024e0:	f045 0502 	orr.w	r5, r5, #2
 80024e4:	f8c4 50f4 	str.w	r5, [r4, #244]	; 0xf4
 80024e8:	f8d4 40f4 	ldr.w	r4, [r4, #244]	; 0xf4
 80024ec:	f004 0402 	and.w	r4, r4, #2
 80024f0:	9401      	str	r4, [sp, #4]
 80024f2:	9c01      	ldr	r4, [sp, #4]
 80024f4:	089d      	lsrs	r5, r3, #2
 80024f6:	1cae      	adds	r6, r5, #2
 80024f8:	4c23      	ldr	r4, [pc, #140]	; (8002588 <HAL_GPIO_Init+0x1dc>)
 80024fa:	f854 7026 	ldr.w	r7, [r4, r6, lsl #2]
 80024fe:	f003 0403 	and.w	r4, r3, #3
 8002502:	00a6      	lsls	r6, r4, #2
 8002504:	240f      	movs	r4, #15
 8002506:	40b4      	lsls	r4, r6
 8002508:	ea27 0704 	bic.w	r7, r7, r4
 800250c:	4c21      	ldr	r4, [pc, #132]	; (8002594 <HAL_GPIO_Init+0x1e8>)
 800250e:	42a0      	cmp	r0, r4
 8002510:	f43f af77 	beq.w	8002402 <HAL_GPIO_Init+0x56>
 8002514:	f504 6480 	add.w	r4, r4, #1024	; 0x400
 8002518:	42a0      	cmp	r0, r4
 800251a:	d022      	beq.n	8002562 <HAL_GPIO_Init+0x1b6>
 800251c:	f504 6480 	add.w	r4, r4, #1024	; 0x400
 8002520:	42a0      	cmp	r0, r4
 8002522:	d020      	beq.n	8002566 <HAL_GPIO_Init+0x1ba>
 8002524:	f504 6480 	add.w	r4, r4, #1024	; 0x400
 8002528:	42a0      	cmp	r0, r4
 800252a:	d01e      	beq.n	800256a <HAL_GPIO_Init+0x1be>
 800252c:	f504 6480 	add.w	r4, r4, #1024	; 0x400
 8002530:	42a0      	cmp	r0, r4
 8002532:	d01c      	beq.n	800256e <HAL_GPIO_Init+0x1c2>
 8002534:	f504 6480 	add.w	r4, r4, #1024	; 0x400
 8002538:	42a0      	cmp	r0, r4
 800253a:	d01a      	beq.n	8002572 <HAL_GPIO_Init+0x1c6>
 800253c:	f504 6480 	add.w	r4, r4, #1024	; 0x400
 8002540:	42a0      	cmp	r0, r4
 8002542:	d018      	beq.n	8002576 <HAL_GPIO_Init+0x1ca>
 8002544:	f504 6480 	add.w	r4, r4, #1024	; 0x400
 8002548:	42a0      	cmp	r0, r4
 800254a:	d016      	beq.n	800257a <HAL_GPIO_Init+0x1ce>
 800254c:	f504 6480 	add.w	r4, r4, #1024	; 0x400
 8002550:	42a0      	cmp	r0, r4
 8002552:	d014      	beq.n	800257e <HAL_GPIO_Init+0x1d2>
 8002554:	f504 6480 	add.w	r4, r4, #1024	; 0x400
 8002558:	42a0      	cmp	r0, r4
 800255a:	f43f af50 	beq.w	80023fe <HAL_GPIO_Init+0x52>
 800255e:	240a      	movs	r4, #10
 8002560:	e750      	b.n	8002404 <HAL_GPIO_Init+0x58>
 8002562:	2401      	movs	r4, #1
 8002564:	e74e      	b.n	8002404 <HAL_GPIO_Init+0x58>
 8002566:	2402      	movs	r4, #2
 8002568:	e74c      	b.n	8002404 <HAL_GPIO_Init+0x58>
 800256a:	2403      	movs	r4, #3
 800256c:	e74a      	b.n	8002404 <HAL_GPIO_Init+0x58>
 800256e:	2404      	movs	r4, #4
 8002570:	e748      	b.n	8002404 <HAL_GPIO_Init+0x58>
 8002572:	2405      	movs	r4, #5
 8002574:	e746      	b.n	8002404 <HAL_GPIO_Init+0x58>
 8002576:	2406      	movs	r4, #6
 8002578:	e744      	b.n	8002404 <HAL_GPIO_Init+0x58>
 800257a:	2407      	movs	r4, #7
 800257c:	e742      	b.n	8002404 <HAL_GPIO_Init+0x58>
 800257e:	2408      	movs	r4, #8
 8002580:	e740      	b.n	8002404 <HAL_GPIO_Init+0x58>
 8002582:	b002      	add	sp, #8
 8002584:	bcf0      	pop	{r4, r5, r6, r7}
 8002586:	4770      	bx	lr
 8002588:	58000400 	.word	0x58000400
 800258c:	58000080 	.word	0x58000080
 8002590:	58024400 	.word	0x58024400
 8002594:	58020000 	.word	0x58020000

08002598 <HAL_GPIO_ReadPin>:
 8002598:	6903      	ldr	r3, [r0, #16]
 800259a:	4219      	tst	r1, r3
 800259c:	d001      	beq.n	80025a2 <HAL_GPIO_ReadPin+0xa>
 800259e:	2001      	movs	r0, #1
 80025a0:	4770      	bx	lr
 80025a2:	2000      	movs	r0, #0
 80025a4:	4770      	bx	lr

080025a6 <HAL_GPIO_WritePin>:
 80025a6:	b10a      	cbz	r2, 80025ac <HAL_GPIO_WritePin+0x6>
 80025a8:	6181      	str	r1, [r0, #24]
 80025aa:	4770      	bx	lr
 80025ac:	0409      	lsls	r1, r1, #16
 80025ae:	6181      	str	r1, [r0, #24]
 80025b0:	4770      	bx	lr

080025b2 <HAL_GPIO_EXTI_IRQHandler>:
 80025b2:	b508      	push	{r3, lr}
 80025b4:	f04f 43b0 	mov.w	r3, #1476395008	; 0x58000000
 80025b8:	f8d3 3088 	ldr.w	r3, [r3, #136]	; 0x88
 80025bc:	4203      	tst	r3, r0
 80025be:	d100      	bne.n	80025c2 <HAL_GPIO_EXTI_IRQHandler+0x10>
 80025c0:	bd08      	pop	{r3, pc}
 80025c2:	f04f 43b0 	mov.w	r3, #1476395008	; 0x58000000
 80025c6:	f8c3 0088 	str.w	r0, [r3, #136]	; 0x88
 80025ca:	f7fe fc81 	bl	8000ed0 <HAL_GPIO_EXTI_Callback>
 80025ce:	e7f7      	b.n	80025c0 <HAL_GPIO_EXTI_IRQHandler+0xe>

080025d0 <I2S_WaitFlagStateUntilTimeout>:
 80025d0:	e92d 43f8 	stmdb	sp!, {r3, r4, r5, r6, r7, r8, r9, lr}
 80025d4:	4606      	mov	r6, r0
 80025d6:	4688      	mov	r8, r1
 80025d8:	4617      	mov	r7, r2
 80025da:	461d      	mov	r5, r3
 80025dc:	f7fe fee2 	bl	80013a4 <HAL_GetTick>
 80025e0:	4681      	mov	r9, r0
 80025e2:	6834      	ldr	r4, [r6, #0]
 80025e4:	6964      	ldr	r4, [r4, #20]
 80025e6:	ea38 0304 	bics.w	r3, r8, r4
 80025ea:	bf0c      	ite	eq
 80025ec:	2401      	moveq	r4, #1
 80025ee:	2400      	movne	r4, #0
 80025f0:	42bc      	cmp	r4, r7
 80025f2:	d012      	beq.n	800261a <I2S_WaitFlagStateUntilTimeout+0x4a>
 80025f4:	f1b5 3fff 	cmp.w	r5, #4294967295
 80025f8:	d0f3      	beq.n	80025e2 <I2S_WaitFlagStateUntilTimeout+0x12>
 80025fa:	f7fe fed3 	bl	80013a4 <HAL_GetTick>
 80025fe:	eba0 0009 	sub.w	r0, r0, r9
 8002602:	42a8      	cmp	r0, r5
 8002604:	d201      	bcs.n	800260a <I2S_WaitFlagStateUntilTimeout+0x3a>
 8002606:	2d00      	cmp	r5, #0
 8002608:	d1eb      	bne.n	80025e2 <I2S_WaitFlagStateUntilTimeout+0x12>
 800260a:	2301      	movs	r3, #1
 800260c:	f886 304d 	strb.w	r3, [r6, #77]	; 0x4d
 8002610:	2300      	movs	r3, #0
 8002612:	f886 304c 	strb.w	r3, [r6, #76]	; 0x4c
 8002616:	2003      	movs	r0, #3
 8002618:	e000      	b.n	800261c <I2S_WaitFlagStateUntilTimeout+0x4c>
 800261a:	2000      	movs	r0, #0
 800261c:	e8bd 83f8 	ldmia.w	sp!, {r3, r4, r5, r6, r7, r8, r9, pc}

08002620 <HAL_I2S_Init>:
 8002620:	2800      	cmp	r0, #0
 8002622:	f000 80b1 	beq.w	8002788 <HAL_I2S_Init+0x168>
 8002626:	b570      	push	{r4, r5, r6, lr}
 8002628:	4604      	mov	r4, r0
 800262a:	f890 304d 	ldrb.w	r3, [r0, #77]	; 0x4d
 800262e:	2b00      	cmp	r3, #0
 8002630:	d04e      	beq.n	80026d0 <HAL_I2S_Init+0xb0>
 8002632:	2302      	movs	r3, #2
 8002634:	f884 304d 	strb.w	r3, [r4, #77]	; 0x4d
 8002638:	6823      	ldr	r3, [r4, #0]
 800263a:	681a      	ldr	r2, [r3, #0]
 800263c:	f012 0f01 	tst.w	r2, #1
 8002640:	d003      	beq.n	800264a <HAL_I2S_Init+0x2a>
 8002642:	681a      	ldr	r2, [r3, #0]
 8002644:	f022 0201 	bic.w	r2, r2, #1
 8002648:	601a      	str	r2, [r3, #0]
 800264a:	6823      	ldr	r3, [r4, #0]
 800264c:	2200      	movs	r2, #0
 800264e:	651a      	str	r2, [r3, #80]	; 0x50
 8002650:	6863      	ldr	r3, [r4, #4]
 8002652:	2b06      	cmp	r3, #6
 8002654:	bf18      	it	ne
 8002656:	2b04      	cmpne	r3, #4
 8002658:	d03f      	beq.n	80026da <HAL_I2S_Init+0xba>
 800265a:	2b0a      	cmp	r3, #10
 800265c:	d03d      	beq.n	80026da <HAL_I2S_Init+0xba>
 800265e:	6821      	ldr	r1, [r4, #0]
 8002660:	6d0b      	ldr	r3, [r1, #80]	; 0x50
 8002662:	4a4a      	ldr	r2, [pc, #296]	; (800278c <HAL_I2S_Init+0x16c>)
 8002664:	401a      	ands	r2, r3
 8002666:	6863      	ldr	r3, [r4, #4]
 8002668:	68a0      	ldr	r0, [r4, #8]
 800266a:	4303      	orrs	r3, r0
 800266c:	68e0      	ldr	r0, [r4, #12]
 800266e:	4303      	orrs	r3, r0
 8002670:	69a0      	ldr	r0, [r4, #24]
 8002672:	4303      	orrs	r3, r0
 8002674:	6a20      	ldr	r0, [r4, #32]
 8002676:	4303      	orrs	r3, r0
 8002678:	6a60      	ldr	r0, [r4, #36]	; 0x24
 800267a:	4303      	orrs	r3, r0
 800267c:	6920      	ldr	r0, [r4, #16]
 800267e:	4303      	orrs	r3, r0
 8002680:	4313      	orrs	r3, r2
 8002682:	f043 0301 	orr.w	r3, r3, #1
 8002686:	650b      	str	r3, [r1, #80]	; 0x50
 8002688:	6823      	ldr	r3, [r4, #0]
 800268a:	f640 72f8 	movw	r2, #4088	; 0xff8
 800268e:	619a      	str	r2, [r3, #24]
 8002690:	6822      	ldr	r2, [r4, #0]
 8002692:	6813      	ldr	r3, [r2, #0]
 8002694:	f423 3380 	bic.w	r3, r3, #65536	; 0x10000
 8002698:	6013      	str	r3, [r2, #0]
 800269a:	6822      	ldr	r2, [r4, #0]
 800269c:	68d3      	ldr	r3, [r2, #12]
 800269e:	f423 0300 	bic.w	r3, r3, #8388608	; 0x800000
 80026a2:	69e1      	ldr	r1, [r4, #28]
 80026a4:	430b      	orrs	r3, r1
 80026a6:	60d3      	str	r3, [r2, #12]
 80026a8:	6863      	ldr	r3, [r4, #4]
 80026aa:	2b06      	cmp	r3, #6
 80026ac:	bf18      	it	ne
 80026ae:	2b04      	cmpne	r3, #4
 80026b0:	d001      	beq.n	80026b6 <HAL_I2S_Init+0x96>
 80026b2:	2b0a      	cmp	r3, #10
 80026b4:	d106      	bne.n	80026c4 <HAL_I2S_Init+0xa4>
 80026b6:	6822      	ldr	r2, [r4, #0]
 80026b8:	68d3      	ldr	r3, [r2, #12]
 80026ba:	f023 4300 	bic.w	r3, r3, #2147483648	; 0x80000000
 80026be:	6aa1      	ldr	r1, [r4, #40]	; 0x28
 80026c0:	430b      	orrs	r3, r1
 80026c2:	60d3      	str	r3, [r2, #12]
 80026c4:	2000      	movs	r0, #0
 80026c6:	6520      	str	r0, [r4, #80]	; 0x50
 80026c8:	2301      	movs	r3, #1
 80026ca:	f884 304d 	strb.w	r3, [r4, #77]	; 0x4d
 80026ce:	bd70      	pop	{r4, r5, r6, pc}
 80026d0:	f880 304c 	strb.w	r3, [r0, #76]	; 0x4c
 80026d4:	f7fe fc22 	bl	8000f1c <HAL_I2S_MspInit>
 80026d8:	e7ab      	b.n	8002632 <HAL_I2S_Init+0x12>
 80026da:	6963      	ldr	r3, [r4, #20]
 80026dc:	2b02      	cmp	r3, #2
 80026de:	d04b      	beq.n	8002778 <HAL_I2S_Init+0x158>
 80026e0:	68e3      	ldr	r3, [r4, #12]
 80026e2:	2b00      	cmp	r3, #0
 80026e4:	d037      	beq.n	8002756 <HAL_I2S_Init+0x136>
 80026e6:	2502      	movs	r5, #2
 80026e8:	68a3      	ldr	r3, [r4, #8]
 80026ea:	2bb0      	cmp	r3, #176	; 0xb0
 80026ec:	bf18      	it	ne
 80026ee:	2b30      	cmpne	r3, #48	; 0x30
 80026f0:	d133      	bne.n	800275a <HAL_I2S_Init+0x13a>
 80026f2:	2601      	movs	r6, #1
 80026f4:	f44f 5080 	mov.w	r0, #4096	; 0x1000
 80026f8:	f001 ffac 	bl	8004654 <HAL_RCCEx_GetPeriphCLKFreq>
 80026fc:	6923      	ldr	r3, [r4, #16]
 80026fe:	f1b3 7f00 	cmp.w	r3, #33554432	; 0x2000000
 8002702:	d02c      	beq.n	800275e <HAL_I2S_Init+0x13e>
 8002704:	2320      	movs	r3, #32
 8002706:	40f3      	lsrs	r3, r6
 8002708:	fb05 f503 	mul.w	r5, r5, r3
 800270c:	fbb0 f0f5 	udiv	r0, r0, r5
 8002710:	eb00 0080 	add.w	r0, r0, r0, lsl #2
 8002714:	0043      	lsls	r3, r0, #1
 8002716:	6960      	ldr	r0, [r4, #20]
 8002718:	fbb3 f3f0 	udiv	r3, r3, r0
 800271c:	3305      	adds	r3, #5
 800271e:	4a1c      	ldr	r2, [pc, #112]	; (8002790 <HAL_I2S_Init+0x170>)
 8002720:	fba2 2303 	umull	r2, r3, r2, r3
 8002724:	f3c3 02c0 	ubfx	r2, r3, #3, #1
 8002728:	ebc2 03d3 	rsb	r3, r2, r3, lsr #3
 800272c:	085b      	lsrs	r3, r3, #1
 800272e:	2b01      	cmp	r3, #1
 8002730:	bf14      	ite	ne
 8002732:	2100      	movne	r1, #0
 8002734:	f002 0101 	andeq.w	r1, r2, #1
 8002738:	bb01      	cbnz	r1, 800277c <HAL_I2S_Init+0x15c>
 800273a:	2bff      	cmp	r3, #255	; 0xff
 800273c:	d81e      	bhi.n	800277c <HAL_I2S_Init+0x15c>
 800273e:	b903      	cbnz	r3, 8002742 <HAL_I2S_Init+0x122>
 8002740:	2201      	movs	r2, #1
 8002742:	6820      	ldr	r0, [r4, #0]
 8002744:	6d05      	ldr	r5, [r0, #80]	; 0x50
 8002746:	4913      	ldr	r1, [pc, #76]	; (8002794 <HAL_I2S_Init+0x174>)
 8002748:	4029      	ands	r1, r5
 800274a:	0612      	lsls	r2, r2, #24
 800274c:	ea42 4303 	orr.w	r3, r2, r3, lsl #16
 8002750:	430b      	orrs	r3, r1
 8002752:	6503      	str	r3, [r0, #80]	; 0x50
 8002754:	e783      	b.n	800265e <HAL_I2S_Init+0x3e>
 8002756:	2501      	movs	r5, #1
 8002758:	e7c6      	b.n	80026e8 <HAL_I2S_Init+0xc8>
 800275a:	2600      	movs	r6, #0
 800275c:	e7ca      	b.n	80026f4 <HAL_I2S_Init+0xd4>
 800275e:	f44f 7380 	mov.w	r3, #256	; 0x100
 8002762:	40f3      	lsrs	r3, r6
 8002764:	fbb0 f0f3 	udiv	r0, r0, r3
 8002768:	eb00 0080 	add.w	r0, r0, r0, lsl #2
 800276c:	0043      	lsls	r3, r0, #1
 800276e:	6960      	ldr	r0, [r4, #20]
 8002770:	fbb3 f3f0 	udiv	r3, r3, r0
 8002774:	3305      	adds	r3, #5
 8002776:	e7d2      	b.n	800271e <HAL_I2S_Init+0xfe>
 8002778:	2200      	movs	r2, #0
 800277a:	e7d8      	b.n	800272e <HAL_I2S_Init+0x10e>
 800277c:	6d23      	ldr	r3, [r4, #80]	; 0x50
 800277e:	f043 0310 	orr.w	r3, r3, #16
 8002782:	6523      	str	r3, [r4, #80]	; 0x50
 8002784:	2001      	movs	r0, #1
 8002786:	e7a2      	b.n	80026ce <HAL_I2S_Init+0xae>
 8002788:	2001      	movs	r0, #1
 800278a:	4770      	bx	lr
 800278c:	fdff9040 	.word	0xfdff9040
 8002790:	cccccccd 	.word	0xcccccccd
 8002794:	fe00ffff 	.word	0xfe00ffff

08002798 <HAL_I2S_Transmit>:
 8002798:	b5f8      	push	{r3, r4, r5, r6, r7, lr}
 800279a:	4604      	mov	r4, r0
 800279c:	6806      	ldr	r6, [r0, #0]
 800279e:	4610      	mov	r0, r2
 80027a0:	fab2 f282 	clz	r2, r2
 80027a4:	0952      	lsrs	r2, r2, #5
 80027a6:	2900      	cmp	r1, #0
 80027a8:	bf08      	it	eq
 80027aa:	2201      	moveq	r2, #1
 80027ac:	2a00      	cmp	r2, #0
 80027ae:	f040 8085 	bne.w	80028bc <HAL_I2S_Transmit+0x124>
 80027b2:	461d      	mov	r5, r3
 80027b4:	f894 304d 	ldrb.w	r3, [r4, #77]	; 0x4d
 80027b8:	b2db      	uxtb	r3, r3
 80027ba:	2b01      	cmp	r3, #1
 80027bc:	f040 8081 	bne.w	80028c2 <HAL_I2S_Transmit+0x12a>
 80027c0:	f894 304c 	ldrb.w	r3, [r4, #76]	; 0x4c
 80027c4:	b2db      	uxtb	r3, r3
 80027c6:	2b01      	cmp	r3, #1
 80027c8:	d07d      	beq.n	80028c6 <HAL_I2S_Transmit+0x12e>
 80027ca:	2301      	movs	r3, #1
 80027cc:	f884 304c 	strb.w	r3, [r4, #76]	; 0x4c
 80027d0:	2303      	movs	r3, #3
 80027d2:	f884 304d 	strb.w	r3, [r4, #77]	; 0x4d
 80027d6:	2300      	movs	r3, #0
 80027d8:	6523      	str	r3, [r4, #80]	; 0x50
 80027da:	62e1      	str	r1, [r4, #44]	; 0x2c
 80027dc:	8620      	strh	r0, [r4, #48]	; 0x30
 80027de:	8660      	strh	r0, [r4, #50]	; 0x32
 80027e0:	6363      	str	r3, [r4, #52]	; 0x34
 80027e2:	8723      	strh	r3, [r4, #56]	; 0x38
 80027e4:	8763      	strh	r3, [r4, #58]	; 0x3a
 80027e6:	6833      	ldr	r3, [r6, #0]
 80027e8:	f013 0f01 	tst.w	r3, #1
 80027ec:	d103      	bne.n	80027f6 <HAL_I2S_Transmit+0x5e>
 80027ee:	6833      	ldr	r3, [r6, #0]
 80027f0:	f043 0301 	orr.w	r3, r3, #1
 80027f4:	6033      	str	r3, [r6, #0]
 80027f6:	6822      	ldr	r2, [r4, #0]
 80027f8:	6813      	ldr	r3, [r2, #0]
 80027fa:	f443 7300 	orr.w	r3, r3, #512	; 0x200
 80027fe:	6013      	str	r3, [r2, #0]
 8002800:	462b      	mov	r3, r5
 8002802:	2201      	movs	r2, #1
 8002804:	2102      	movs	r1, #2
 8002806:	4620      	mov	r0, r4
 8002808:	f7ff fee2 	bl	80025d0 <I2S_WaitFlagStateUntilTimeout>
 800280c:	4607      	mov	r7, r0
 800280e:	b310      	cbz	r0, 8002856 <HAL_I2S_Transmit+0xbe>
 8002810:	6d23      	ldr	r3, [r4, #80]	; 0x50
 8002812:	f043 0301 	orr.w	r3, r3, #1
 8002816:	6523      	str	r3, [r4, #80]	; 0x50
 8002818:	2301      	movs	r3, #1
 800281a:	f884 304d 	strb.w	r3, [r4, #77]	; 0x4d
 800281e:	2300      	movs	r3, #0
 8002820:	f884 304c 	strb.w	r3, [r4, #76]	; 0x4c
 8002824:	2703      	movs	r7, #3
 8002826:	e04a      	b.n	80028be <HAL_I2S_Transmit+0x126>
 8002828:	6ae3      	ldr	r3, [r4, #44]	; 0x2c
 800282a:	881b      	ldrh	r3, [r3, #0]
 800282c:	8433      	strh	r3, [r6, #32]
 800282e:	6ae3      	ldr	r3, [r4, #44]	; 0x2c
 8002830:	3302      	adds	r3, #2
 8002832:	62e3      	str	r3, [r4, #44]	; 0x2c
 8002834:	8e62      	ldrh	r2, [r4, #50]	; 0x32
 8002836:	b292      	uxth	r2, r2
 8002838:	3a01      	subs	r2, #1
 800283a:	b292      	uxth	r2, r2
 800283c:	8662      	strh	r2, [r4, #50]	; 0x32
 800283e:	462b      	mov	r3, r5
 8002840:	2201      	movs	r2, #1
 8002842:	2102      	movs	r1, #2
 8002844:	4620      	mov	r0, r4
 8002846:	f7ff fec3 	bl	80025d0 <I2S_WaitFlagStateUntilTimeout>
 800284a:	b9d8      	cbnz	r0, 8002884 <HAL_I2S_Transmit+0xec>
 800284c:	6823      	ldr	r3, [r4, #0]
 800284e:	695a      	ldr	r2, [r3, #20]
 8002850:	f012 0f20 	tst.w	r2, #32
 8002854:	d122      	bne.n	800289c <HAL_I2S_Transmit+0x104>
 8002856:	8e62      	ldrh	r2, [r4, #50]	; 0x32
 8002858:	b292      	uxth	r2, r2
 800285a:	b342      	cbz	r2, 80028ae <HAL_I2S_Transmit+0x116>
 800285c:	68e3      	ldr	r3, [r4, #12]
 800285e:	f5b3 7f00 	cmp.w	r3, #512	; 0x200
 8002862:	bf18      	it	ne
 8002864:	f5b3 7f80 	cmpne.w	r3, #256	; 0x100
 8002868:	d1de      	bne.n	8002828 <HAL_I2S_Transmit+0x90>
 800286a:	6ae2      	ldr	r2, [r4, #44]	; 0x2c
 800286c:	6823      	ldr	r3, [r4, #0]
 800286e:	6812      	ldr	r2, [r2, #0]
 8002870:	621a      	str	r2, [r3, #32]
 8002872:	6ae3      	ldr	r3, [r4, #44]	; 0x2c
 8002874:	3304      	adds	r3, #4
 8002876:	62e3      	str	r3, [r4, #44]	; 0x2c
 8002878:	8e63      	ldrh	r3, [r4, #50]	; 0x32
 800287a:	b29b      	uxth	r3, r3
 800287c:	3b01      	subs	r3, #1
 800287e:	b29b      	uxth	r3, r3
 8002880:	8663      	strh	r3, [r4, #50]	; 0x32
 8002882:	e7dc      	b.n	800283e <HAL_I2S_Transmit+0xa6>
 8002884:	6d23      	ldr	r3, [r4, #80]	; 0x50
 8002886:	f043 0301 	orr.w	r3, r3, #1
 800288a:	6523      	str	r3, [r4, #80]	; 0x50
 800288c:	2301      	movs	r3, #1
 800288e:	f884 304d 	strb.w	r3, [r4, #77]	; 0x4d
 8002892:	2300      	movs	r3, #0
 8002894:	f884 304c 	strb.w	r3, [r4, #76]	; 0x4c
 8002898:	2703      	movs	r7, #3
 800289a:	e010      	b.n	80028be <HAL_I2S_Transmit+0x126>
 800289c:	699a      	ldr	r2, [r3, #24]
 800289e:	f042 0220 	orr.w	r2, r2, #32
 80028a2:	619a      	str	r2, [r3, #24]
 80028a4:	6d23      	ldr	r3, [r4, #80]	; 0x50
 80028a6:	f043 0304 	orr.w	r3, r3, #4
 80028aa:	6523      	str	r3, [r4, #80]	; 0x50
 80028ac:	e7d3      	b.n	8002856 <HAL_I2S_Transmit+0xbe>
 80028ae:	2301      	movs	r3, #1
 80028b0:	f884 304d 	strb.w	r3, [r4, #77]	; 0x4d
 80028b4:	2300      	movs	r3, #0
 80028b6:	f884 304c 	strb.w	r3, [r4, #76]	; 0x4c
 80028ba:	e000      	b.n	80028be <HAL_I2S_Transmit+0x126>
 80028bc:	2701      	movs	r7, #1
 80028be:	4638      	mov	r0, r7
 80028c0:	bdf8      	pop	{r3, r4, r5, r6, r7, pc}
 80028c2:	2702      	movs	r7, #2
 80028c4:	e7fb      	b.n	80028be <HAL_I2S_Transmit+0x126>
 80028c6:	2702      	movs	r7, #2
 80028c8:	e7f9      	b.n	80028be <HAL_I2S_Transmit+0x126>
	...

080028cc <HAL_PWREx_ConfigSupply>:
 80028cc:	4b13      	ldr	r3, [pc, #76]	; (800291c <HAL_PWREx_ConfigSupply+0x50>)
 80028ce:	68db      	ldr	r3, [r3, #12]
 80028d0:	f013 0f04 	tst.w	r3, #4
 80028d4:	d107      	bne.n	80028e6 <HAL_PWREx_ConfigSupply+0x1a>
 80028d6:	4b11      	ldr	r3, [pc, #68]	; (800291c <HAL_PWREx_ConfigSupply+0x50>)
 80028d8:	68db      	ldr	r3, [r3, #12]
 80028da:	f003 0307 	and.w	r3, r3, #7
 80028de:	4283      	cmp	r3, r0
 80028e0:	d01a      	beq.n	8002918 <HAL_PWREx_ConfigSupply+0x4c>
 80028e2:	2001      	movs	r0, #1
 80028e4:	4770      	bx	lr
 80028e6:	b510      	push	{r4, lr}
 80028e8:	4a0c      	ldr	r2, [pc, #48]	; (800291c <HAL_PWREx_ConfigSupply+0x50>)
 80028ea:	68d3      	ldr	r3, [r2, #12]
 80028ec:	f023 0307 	bic.w	r3, r3, #7
 80028f0:	4318      	orrs	r0, r3
 80028f2:	60d0      	str	r0, [r2, #12]
 80028f4:	f7fe fd56 	bl	80013a4 <HAL_GetTick>
 80028f8:	4604      	mov	r4, r0
 80028fa:	4b08      	ldr	r3, [pc, #32]	; (800291c <HAL_PWREx_ConfigSupply+0x50>)
 80028fc:	685b      	ldr	r3, [r3, #4]
 80028fe:	f413 5f00 	tst.w	r3, #8192	; 0x2000
 8002902:	d107      	bne.n	8002914 <HAL_PWREx_ConfigSupply+0x48>
 8002904:	f7fe fd4e 	bl	80013a4 <HAL_GetTick>
 8002908:	1b00      	subs	r0, r0, r4
 800290a:	f5b0 7f7a 	cmp.w	r0, #1000	; 0x3e8
 800290e:	d9f4      	bls.n	80028fa <HAL_PWREx_ConfigSupply+0x2e>
 8002910:	2001      	movs	r0, #1
 8002912:	e000      	b.n	8002916 <HAL_PWREx_ConfigSupply+0x4a>
 8002914:	2000      	movs	r0, #0
 8002916:	bd10      	pop	{r4, pc}
 8002918:	2000      	movs	r0, #0
 800291a:	4770      	bx	lr
 800291c:	58024800 	.word	0x58024800

08002920 <HAL_RCC_OscConfig>:
 8002920:	2800      	cmp	r0, #0
 8002922:	f000 8318 	beq.w	8002f56 <HAL_RCC_OscConfig+0x636>
 8002926:	b538      	push	{r3, r4, r5, lr}
 8002928:	4604      	mov	r4, r0
 800292a:	6803      	ldr	r3, [r0, #0]
 800292c:	f013 0f01 	tst.w	r3, #1
 8002930:	d025      	beq.n	800297e <HAL_RCC_OscConfig+0x5e>
 8002932:	4aa7      	ldr	r2, [pc, #668]	; (8002bd0 <HAL_RCC_OscConfig+0x2b0>)
 8002934:	6913      	ldr	r3, [r2, #16]
 8002936:	f003 0338 	and.w	r3, r3, #56	; 0x38
 800293a:	6a92      	ldr	r2, [r2, #40]	; 0x28
 800293c:	2b10      	cmp	r3, #16
 800293e:	d015      	beq.n	800296c <HAL_RCC_OscConfig+0x4c>
 8002940:	2b18      	cmp	r3, #24
 8002942:	d00f      	beq.n	8002964 <HAL_RCC_OscConfig+0x44>
 8002944:	6863      	ldr	r3, [r4, #4]
 8002946:	f5b3 3f80 	cmp.w	r3, #65536	; 0x10000
 800294a:	d03f      	beq.n	80029cc <HAL_RCC_OscConfig+0xac>
 800294c:	2b00      	cmp	r3, #0
 800294e:	d153      	bne.n	80029f8 <HAL_RCC_OscConfig+0xd8>
 8002950:	4b9f      	ldr	r3, [pc, #636]	; (8002bd0 <HAL_RCC_OscConfig+0x2b0>)
 8002952:	681a      	ldr	r2, [r3, #0]
 8002954:	f422 3280 	bic.w	r2, r2, #65536	; 0x10000
 8002958:	601a      	str	r2, [r3, #0]
 800295a:	681a      	ldr	r2, [r3, #0]
 800295c:	f422 2280 	bic.w	r2, r2, #262144	; 0x40000
 8002960:	601a      	str	r2, [r3, #0]
 8002962:	e038      	b.n	80029d6 <HAL_RCC_OscConfig+0xb6>
 8002964:	f002 0203 	and.w	r2, r2, #3
 8002968:	2a02      	cmp	r2, #2
 800296a:	d1eb      	bne.n	8002944 <HAL_RCC_OscConfig+0x24>
 800296c:	4b98      	ldr	r3, [pc, #608]	; (8002bd0 <HAL_RCC_OscConfig+0x2b0>)
 800296e:	681b      	ldr	r3, [r3, #0]
 8002970:	f413 3f00 	tst.w	r3, #131072	; 0x20000
 8002974:	d003      	beq.n	800297e <HAL_RCC_OscConfig+0x5e>
 8002976:	6863      	ldr	r3, [r4, #4]
 8002978:	2b00      	cmp	r3, #0
 800297a:	f000 82ee 	beq.w	8002f5a <HAL_RCC_OscConfig+0x63a>
 800297e:	6823      	ldr	r3, [r4, #0]
 8002980:	f013 0f02 	tst.w	r3, #2
 8002984:	f000 80a1 	beq.w	8002aca <HAL_RCC_OscConfig+0x1aa>
 8002988:	4a91      	ldr	r2, [pc, #580]	; (8002bd0 <HAL_RCC_OscConfig+0x2b0>)
 800298a:	6913      	ldr	r3, [r2, #16]
 800298c:	6a92      	ldr	r2, [r2, #40]	; 0x28
 800298e:	f013 0338 	ands.w	r3, r3, #56	; 0x38
 8002992:	d05a      	beq.n	8002a4a <HAL_RCC_OscConfig+0x12a>
 8002994:	2b18      	cmp	r3, #24
 8002996:	d055      	beq.n	8002a44 <HAL_RCC_OscConfig+0x124>
 8002998:	68e3      	ldr	r3, [r4, #12]
 800299a:	2b00      	cmp	r3, #0
 800299c:	f000 80de 	beq.w	8002b5c <HAL_RCC_OscConfig+0x23c>
 80029a0:	498b      	ldr	r1, [pc, #556]	; (8002bd0 <HAL_RCC_OscConfig+0x2b0>)
 80029a2:	680a      	ldr	r2, [r1, #0]
 80029a4:	f022 0219 	bic.w	r2, r2, #25
 80029a8:	4313      	orrs	r3, r2
 80029aa:	600b      	str	r3, [r1, #0]
 80029ac:	f7fe fcfa 	bl	80013a4 <HAL_GetTick>
 80029b0:	4605      	mov	r5, r0
 80029b2:	4b87      	ldr	r3, [pc, #540]	; (8002bd0 <HAL_RCC_OscConfig+0x2b0>)
 80029b4:	681b      	ldr	r3, [r3, #0]
 80029b6:	f013 0f04 	tst.w	r3, #4
 80029ba:	f040 80ad 	bne.w	8002b18 <HAL_RCC_OscConfig+0x1f8>
 80029be:	f7fe fcf1 	bl	80013a4 <HAL_GetTick>
 80029c2:	1b40      	subs	r0, r0, r5
 80029c4:	2802      	cmp	r0, #2
 80029c6:	d9f4      	bls.n	80029b2 <HAL_RCC_OscConfig+0x92>
 80029c8:	2003      	movs	r0, #3
 80029ca:	e2cd      	b.n	8002f68 <HAL_RCC_OscConfig+0x648>
 80029cc:	4a80      	ldr	r2, [pc, #512]	; (8002bd0 <HAL_RCC_OscConfig+0x2b0>)
 80029ce:	6813      	ldr	r3, [r2, #0]
 80029d0:	f443 3380 	orr.w	r3, r3, #65536	; 0x10000
 80029d4:	6013      	str	r3, [r2, #0]
 80029d6:	6863      	ldr	r3, [r4, #4]
 80029d8:	b32b      	cbz	r3, 8002a26 <HAL_RCC_OscConfig+0x106>
 80029da:	f7fe fce3 	bl	80013a4 <HAL_GetTick>
 80029de:	4605      	mov	r5, r0
 80029e0:	4b7b      	ldr	r3, [pc, #492]	; (8002bd0 <HAL_RCC_OscConfig+0x2b0>)
 80029e2:	681b      	ldr	r3, [r3, #0]
 80029e4:	f413 3f00 	tst.w	r3, #131072	; 0x20000
 80029e8:	d1c9      	bne.n	800297e <HAL_RCC_OscConfig+0x5e>
 80029ea:	f7fe fcdb 	bl	80013a4 <HAL_GetTick>
 80029ee:	1b40      	subs	r0, r0, r5
 80029f0:	2864      	cmp	r0, #100	; 0x64
 80029f2:	d9f5      	bls.n	80029e0 <HAL_RCC_OscConfig+0xc0>
 80029f4:	2003      	movs	r0, #3
 80029f6:	e2b7      	b.n	8002f68 <HAL_RCC_OscConfig+0x648>
 80029f8:	f5b3 2fa0 	cmp.w	r3, #327680	; 0x50000
 80029fc:	d009      	beq.n	8002a12 <HAL_RCC_OscConfig+0xf2>
 80029fe:	4b74      	ldr	r3, [pc, #464]	; (8002bd0 <HAL_RCC_OscConfig+0x2b0>)
 8002a00:	681a      	ldr	r2, [r3, #0]
 8002a02:	f422 3280 	bic.w	r2, r2, #65536	; 0x10000
 8002a06:	601a      	str	r2, [r3, #0]
 8002a08:	681a      	ldr	r2, [r3, #0]
 8002a0a:	f422 2280 	bic.w	r2, r2, #262144	; 0x40000
 8002a0e:	601a      	str	r2, [r3, #0]
 8002a10:	e7e1      	b.n	80029d6 <HAL_RCC_OscConfig+0xb6>
 8002a12:	4b6f      	ldr	r3, [pc, #444]	; (8002bd0 <HAL_RCC_OscConfig+0x2b0>)
 8002a14:	681a      	ldr	r2, [r3, #0]
 8002a16:	f442 2280 	orr.w	r2, r2, #262144	; 0x40000
 8002a1a:	601a      	str	r2, [r3, #0]
 8002a1c:	681a      	ldr	r2, [r3, #0]
 8002a1e:	f442 3280 	orr.w	r2, r2, #65536	; 0x10000
 8002a22:	601a      	str	r2, [r3, #0]
 8002a24:	e7d7      	b.n	80029d6 <HAL_RCC_OscConfig+0xb6>
 8002a26:	f7fe fcbd 	bl	80013a4 <HAL_GetTick>
 8002a2a:	4605      	mov	r5, r0
 8002a2c:	4b68      	ldr	r3, [pc, #416]	; (8002bd0 <HAL_RCC_OscConfig+0x2b0>)
 8002a2e:	681b      	ldr	r3, [r3, #0]
 8002a30:	f413 3f00 	tst.w	r3, #131072	; 0x20000
 8002a34:	d0a3      	beq.n	800297e <HAL_RCC_OscConfig+0x5e>
 8002a36:	f7fe fcb5 	bl	80013a4 <HAL_GetTick>
 8002a3a:	1b40      	subs	r0, r0, r5
 8002a3c:	2864      	cmp	r0, #100	; 0x64
 8002a3e:	d9f5      	bls.n	8002a2c <HAL_RCC_OscConfig+0x10c>
 8002a40:	2003      	movs	r0, #3
 8002a42:	e291      	b.n	8002f68 <HAL_RCC_OscConfig+0x648>
 8002a44:	f012 0f03 	tst.w	r2, #3
 8002a48:	d1a6      	bne.n	8002998 <HAL_RCC_OscConfig+0x78>
 8002a4a:	4b61      	ldr	r3, [pc, #388]	; (8002bd0 <HAL_RCC_OscConfig+0x2b0>)
 8002a4c:	681b      	ldr	r3, [r3, #0]
 8002a4e:	f013 0f04 	tst.w	r3, #4
 8002a52:	d003      	beq.n	8002a5c <HAL_RCC_OscConfig+0x13c>
 8002a54:	68e3      	ldr	r3, [r4, #12]
 8002a56:	2b00      	cmp	r3, #0
 8002a58:	f000 8281 	beq.w	8002f5e <HAL_RCC_OscConfig+0x63e>
 8002a5c:	4a5c      	ldr	r2, [pc, #368]	; (8002bd0 <HAL_RCC_OscConfig+0x2b0>)
 8002a5e:	6813      	ldr	r3, [r2, #0]
 8002a60:	f023 0319 	bic.w	r3, r3, #25
 8002a64:	68e1      	ldr	r1, [r4, #12]
 8002a66:	430b      	orrs	r3, r1
 8002a68:	6013      	str	r3, [r2, #0]
 8002a6a:	f7fe fc9b 	bl	80013a4 <HAL_GetTick>
 8002a6e:	4605      	mov	r5, r0
 8002a70:	4b57      	ldr	r3, [pc, #348]	; (8002bd0 <HAL_RCC_OscConfig+0x2b0>)
 8002a72:	681b      	ldr	r3, [r3, #0]
 8002a74:	f013 0f04 	tst.w	r3, #4
 8002a78:	d106      	bne.n	8002a88 <HAL_RCC_OscConfig+0x168>
 8002a7a:	f7fe fc93 	bl	80013a4 <HAL_GetTick>
 8002a7e:	1b40      	subs	r0, r0, r5
 8002a80:	2802      	cmp	r0, #2
 8002a82:	d9f5      	bls.n	8002a70 <HAL_RCC_OscConfig+0x150>
 8002a84:	2003      	movs	r0, #3
 8002a86:	e26f      	b.n	8002f68 <HAL_RCC_OscConfig+0x648>
 8002a88:	f7fe fca6 	bl	80013d8 <HAL_GetREVID>
 8002a8c:	f241 0303 	movw	r3, #4099	; 0x1003
 8002a90:	4298      	cmp	r0, r3
 8002a92:	d812      	bhi.n	8002aba <HAL_RCC_OscConfig+0x19a>
 8002a94:	6922      	ldr	r2, [r4, #16]
 8002a96:	2a40      	cmp	r2, #64	; 0x40
 8002a98:	d007      	beq.n	8002aaa <HAL_RCC_OscConfig+0x18a>
 8002a9a:	494d      	ldr	r1, [pc, #308]	; (8002bd0 <HAL_RCC_OscConfig+0x2b0>)
 8002a9c:	684b      	ldr	r3, [r1, #4]
 8002a9e:	f423 337c 	bic.w	r3, r3, #258048	; 0x3f000
 8002aa2:	ea43 3302 	orr.w	r3, r3, r2, lsl #12
 8002aa6:	604b      	str	r3, [r1, #4]
 8002aa8:	e00f      	b.n	8002aca <HAL_RCC_OscConfig+0x1aa>
 8002aaa:	4a49      	ldr	r2, [pc, #292]	; (8002bd0 <HAL_RCC_OscConfig+0x2b0>)
 8002aac:	6853      	ldr	r3, [r2, #4]
 8002aae:	f423 337c 	bic.w	r3, r3, #258048	; 0x3f000
 8002ab2:	f443 3300 	orr.w	r3, r3, #131072	; 0x20000
 8002ab6:	6053      	str	r3, [r2, #4]
 8002ab8:	e007      	b.n	8002aca <HAL_RCC_OscConfig+0x1aa>
 8002aba:	4a45      	ldr	r2, [pc, #276]	; (8002bd0 <HAL_RCC_OscConfig+0x2b0>)
 8002abc:	6853      	ldr	r3, [r2, #4]
 8002abe:	f023 43fe 	bic.w	r3, r3, #2130706432	; 0x7f000000
 8002ac2:	6921      	ldr	r1, [r4, #16]
 8002ac4:	ea43 6301 	orr.w	r3, r3, r1, lsl #24
 8002ac8:	6053      	str	r3, [r2, #4]
 8002aca:	6823      	ldr	r3, [r4, #0]
 8002acc:	f013 0f10 	tst.w	r3, #16
 8002ad0:	f000 8088 	beq.w	8002be4 <HAL_RCC_OscConfig+0x2c4>
 8002ad4:	4a3e      	ldr	r2, [pc, #248]	; (8002bd0 <HAL_RCC_OscConfig+0x2b0>)
 8002ad6:	6913      	ldr	r3, [r2, #16]
 8002ad8:	f003 0338 	and.w	r3, r3, #56	; 0x38
 8002adc:	6a92      	ldr	r2, [r2, #40]	; 0x28
 8002ade:	2b08      	cmp	r3, #8
 8002ae0:	d054      	beq.n	8002b8c <HAL_RCC_OscConfig+0x26c>
 8002ae2:	2b18      	cmp	r3, #24
 8002ae4:	d04e      	beq.n	8002b84 <HAL_RCC_OscConfig+0x264>
 8002ae6:	69e3      	ldr	r3, [r4, #28]
 8002ae8:	2b00      	cmp	r3, #0
 8002aea:	f000 80b8 	beq.w	8002c5e <HAL_RCC_OscConfig+0x33e>
 8002aee:	4a38      	ldr	r2, [pc, #224]	; (8002bd0 <HAL_RCC_OscConfig+0x2b0>)
 8002af0:	6813      	ldr	r3, [r2, #0]
 8002af2:	f043 0380 	orr.w	r3, r3, #128	; 0x80
 8002af6:	6013      	str	r3, [r2, #0]
 8002af8:	f7fe fc54 	bl	80013a4 <HAL_GetTick>
 8002afc:	4605      	mov	r5, r0
 8002afe:	4b34      	ldr	r3, [pc, #208]	; (8002bd0 <HAL_RCC_OscConfig+0x2b0>)
 8002b00:	681b      	ldr	r3, [r3, #0]
 8002b02:	f413 7f80 	tst.w	r3, #256	; 0x100
 8002b06:	f040 8088 	bne.w	8002c1a <HAL_RCC_OscConfig+0x2fa>
 8002b0a:	f7fe fc4b 	bl	80013a4 <HAL_GetTick>
 8002b0e:	1b40      	subs	r0, r0, r5
 8002b10:	2802      	cmp	r0, #2
 8002b12:	d9f4      	bls.n	8002afe <HAL_RCC_OscConfig+0x1de>
 8002b14:	2003      	movs	r0, #3
 8002b16:	e227      	b.n	8002f68 <HAL_RCC_OscConfig+0x648>
 8002b18:	f7fe fc5e 	bl	80013d8 <HAL_GetREVID>
 8002b1c:	f241 0303 	movw	r3, #4099	; 0x1003
 8002b20:	4298      	cmp	r0, r3
 8002b22:	d812      	bhi.n	8002b4a <HAL_RCC_OscConfig+0x22a>
 8002b24:	6922      	ldr	r2, [r4, #16]
 8002b26:	2a40      	cmp	r2, #64	; 0x40
 8002b28:	d007      	beq.n	8002b3a <HAL_RCC_OscConfig+0x21a>
 8002b2a:	4929      	ldr	r1, [pc, #164]	; (8002bd0 <HAL_RCC_OscConfig+0x2b0>)
 8002b2c:	684b      	ldr	r3, [r1, #4]
 8002b2e:	f423 337c 	bic.w	r3, r3, #258048	; 0x3f000
 8002b32:	ea43 3302 	orr.w	r3, r3, r2, lsl #12
 8002b36:	604b      	str	r3, [r1, #4]
 8002b38:	e7c7      	b.n	8002aca <HAL_RCC_OscConfig+0x1aa>
 8002b3a:	4a25      	ldr	r2, [pc, #148]	; (8002bd0 <HAL_RCC_OscConfig+0x2b0>)
 8002b3c:	6853      	ldr	r3, [r2, #4]
 8002b3e:	f423 337c 	bic.w	r3, r3, #258048	; 0x3f000
 8002b42:	f443 3300 	orr.w	r3, r3, #131072	; 0x20000
 8002b46:	6053      	str	r3, [r2, #4]
 8002b48:	e7bf      	b.n	8002aca <HAL_RCC_OscConfig+0x1aa>
 8002b4a:	4a21      	ldr	r2, [pc, #132]	; (8002bd0 <HAL_RCC_OscConfig+0x2b0>)
 8002b4c:	6853      	ldr	r3, [r2, #4]
 8002b4e:	f023 43fe 	bic.w	r3, r3, #2130706432	; 0x7f000000
 8002b52:	6921      	ldr	r1, [r4, #16]
 8002b54:	ea43 6301 	orr.w	r3, r3, r1, lsl #24
 8002b58:	6053      	str	r3, [r2, #4]
 8002b5a:	e7b6      	b.n	8002aca <HAL_RCC_OscConfig+0x1aa>
 8002b5c:	4a1c      	ldr	r2, [pc, #112]	; (8002bd0 <HAL_RCC_OscConfig+0x2b0>)
 8002b5e:	6813      	ldr	r3, [r2, #0]
 8002b60:	f023 0301 	bic.w	r3, r3, #1
 8002b64:	6013      	str	r3, [r2, #0]
 8002b66:	f7fe fc1d 	bl	80013a4 <HAL_GetTick>
 8002b6a:	4605      	mov	r5, r0
 8002b6c:	4b18      	ldr	r3, [pc, #96]	; (8002bd0 <HAL_RCC_OscConfig+0x2b0>)
 8002b6e:	681b      	ldr	r3, [r3, #0]
 8002b70:	f013 0f04 	tst.w	r3, #4
 8002b74:	d0a9      	beq.n	8002aca <HAL_RCC_OscConfig+0x1aa>
 8002b76:	f7fe fc15 	bl	80013a4 <HAL_GetTick>
 8002b7a:	1b40      	subs	r0, r0, r5
 8002b7c:	2802      	cmp	r0, #2
 8002b7e:	d9f5      	bls.n	8002b6c <HAL_RCC_OscConfig+0x24c>
 8002b80:	2003      	movs	r0, #3
 8002b82:	e1f1      	b.n	8002f68 <HAL_RCC_OscConfig+0x648>
 8002b84:	f002 0203 	and.w	r2, r2, #3
 8002b88:	2a01      	cmp	r2, #1
 8002b8a:	d1ac      	bne.n	8002ae6 <HAL_RCC_OscConfig+0x1c6>
 8002b8c:	4b10      	ldr	r3, [pc, #64]	; (8002bd0 <HAL_RCC_OscConfig+0x2b0>)
 8002b8e:	681b      	ldr	r3, [r3, #0]
 8002b90:	f413 7f80 	tst.w	r3, #256	; 0x100
 8002b94:	d003      	beq.n	8002b9e <HAL_RCC_OscConfig+0x27e>
 8002b96:	69e3      	ldr	r3, [r4, #28]
 8002b98:	2b80      	cmp	r3, #128	; 0x80
 8002b9a:	f040 81e2 	bne.w	8002f62 <HAL_RCC_OscConfig+0x642>
 8002b9e:	f7fe fc1b 	bl	80013d8 <HAL_GetREVID>
 8002ba2:	f241 0303 	movw	r3, #4099	; 0x1003
 8002ba6:	4298      	cmp	r0, r3
 8002ba8:	d814      	bhi.n	8002bd4 <HAL_RCC_OscConfig+0x2b4>
 8002baa:	6a22      	ldr	r2, [r4, #32]
 8002bac:	2a20      	cmp	r2, #32
 8002bae:	d007      	beq.n	8002bc0 <HAL_RCC_OscConfig+0x2a0>
 8002bb0:	4907      	ldr	r1, [pc, #28]	; (8002bd0 <HAL_RCC_OscConfig+0x2b0>)
 8002bb2:	684b      	ldr	r3, [r1, #4]
 8002bb4:	f023 43f8 	bic.w	r3, r3, #2080374784	; 0x7c000000
 8002bb8:	ea43 6382 	orr.w	r3, r3, r2, lsl #26
 8002bbc:	604b      	str	r3, [r1, #4]
 8002bbe:	e011      	b.n	8002be4 <HAL_RCC_OscConfig+0x2c4>
 8002bc0:	4a03      	ldr	r2, [pc, #12]	; (8002bd0 <HAL_RCC_OscConfig+0x2b0>)
 8002bc2:	6853      	ldr	r3, [r2, #4]
 8002bc4:	f023 43f8 	bic.w	r3, r3, #2080374784	; 0x7c000000
 8002bc8:	f043 4380 	orr.w	r3, r3, #1073741824	; 0x40000000
 8002bcc:	6053      	str	r3, [r2, #4]
 8002bce:	e009      	b.n	8002be4 <HAL_RCC_OscConfig+0x2c4>
 8002bd0:	58024400 	.word	0x58024400
 8002bd4:	4a9a      	ldr	r2, [pc, #616]	; (8002e40 <HAL_RCC_OscConfig+0x520>)
 8002bd6:	68d3      	ldr	r3, [r2, #12]
 8002bd8:	f023 537c 	bic.w	r3, r3, #1056964608	; 0x3f000000
 8002bdc:	6a21      	ldr	r1, [r4, #32]
 8002bde:	ea43 6301 	orr.w	r3, r3, r1, lsl #24
 8002be2:	60d3      	str	r3, [r2, #12]
 8002be4:	6823      	ldr	r3, [r4, #0]
 8002be6:	f013 0f08 	tst.w	r3, #8
 8002bea:	d060      	beq.n	8002cae <HAL_RCC_OscConfig+0x38e>
 8002bec:	6963      	ldr	r3, [r4, #20]
 8002bee:	2b00      	cmp	r3, #0
 8002bf0:	d049      	beq.n	8002c86 <HAL_RCC_OscConfig+0x366>
 8002bf2:	4a93      	ldr	r2, [pc, #588]	; (8002e40 <HAL_RCC_OscConfig+0x520>)
 8002bf4:	6f53      	ldr	r3, [r2, #116]	; 0x74
 8002bf6:	f043 0301 	orr.w	r3, r3, #1
 8002bfa:	6753      	str	r3, [r2, #116]	; 0x74
 8002bfc:	f7fe fbd2 	bl	80013a4 <HAL_GetTick>
 8002c00:	4605      	mov	r5, r0
 8002c02:	4b8f      	ldr	r3, [pc, #572]	; (8002e40 <HAL_RCC_OscConfig+0x520>)
 8002c04:	6f5b      	ldr	r3, [r3, #116]	; 0x74
 8002c06:	f013 0f02 	tst.w	r3, #2
 8002c0a:	d150      	bne.n	8002cae <HAL_RCC_OscConfig+0x38e>
 8002c0c:	f7fe fbca 	bl	80013a4 <HAL_GetTick>
 8002c10:	1b40      	subs	r0, r0, r5
 8002c12:	2802      	cmp	r0, #2
 8002c14:	d9f5      	bls.n	8002c02 <HAL_RCC_OscConfig+0x2e2>
 8002c16:	2003      	movs	r0, #3
 8002c18:	e1a6      	b.n	8002f68 <HAL_RCC_OscConfig+0x648>
 8002c1a:	f7fe fbdd 	bl	80013d8 <HAL_GetREVID>
 8002c1e:	f241 0303 	movw	r3, #4099	; 0x1003
 8002c22:	4298      	cmp	r0, r3
 8002c24:	d812      	bhi.n	8002c4c <HAL_RCC_OscConfig+0x32c>
 8002c26:	6a22      	ldr	r2, [r4, #32]
 8002c28:	2a20      	cmp	r2, #32
 8002c2a:	d007      	beq.n	8002c3c <HAL_RCC_OscConfig+0x31c>
 8002c2c:	4984      	ldr	r1, [pc, #528]	; (8002e40 <HAL_RCC_OscConfig+0x520>)
 8002c2e:	684b      	ldr	r3, [r1, #4]
 8002c30:	f023 43f8 	bic.w	r3, r3, #2080374784	; 0x7c000000
 8002c34:	ea43 6382 	orr.w	r3, r3, r2, lsl #26
 8002c38:	604b      	str	r3, [r1, #4]
 8002c3a:	e7d3      	b.n	8002be4 <HAL_RCC_OscConfig+0x2c4>
 8002c3c:	4a80      	ldr	r2, [pc, #512]	; (8002e40 <HAL_RCC_OscConfig+0x520>)
 8002c3e:	6853      	ldr	r3, [r2, #4]
 8002c40:	f023 43f8 	bic.w	r3, r3, #2080374784	; 0x7c000000
 8002c44:	f043 4380 	orr.w	r3, r3, #1073741824	; 0x40000000
 8002c48:	6053      	str	r3, [r2, #4]
 8002c4a:	e7cb      	b.n	8002be4 <HAL_RCC_OscConfig+0x2c4>
 8002c4c:	4a7c      	ldr	r2, [pc, #496]	; (8002e40 <HAL_RCC_OscConfig+0x520>)
 8002c4e:	68d3      	ldr	r3, [r2, #12]
 8002c50:	f023 537c 	bic.w	r3, r3, #1056964608	; 0x3f000000
 8002c54:	6a21      	ldr	r1, [r4, #32]
 8002c56:	ea43 6301 	orr.w	r3, r3, r1, lsl #24
 8002c5a:	60d3      	str	r3, [r2, #12]
 8002c5c:	e7c2      	b.n	8002be4 <HAL_RCC_OscConfig+0x2c4>
 8002c5e:	4a78      	ldr	r2, [pc, #480]	; (8002e40 <HAL_RCC_OscConfig+0x520>)
 8002c60:	6813      	ldr	r3, [r2, #0]
 8002c62:	f023 0380 	bic.w	r3, r3, #128	; 0x80
 8002c66:	6013      	str	r3, [r2, #0]
 8002c68:	f7fe fb9c 	bl	80013a4 <HAL_GetTick>
 8002c6c:	4605      	mov	r5, r0
 8002c6e:	4b74      	ldr	r3, [pc, #464]	; (8002e40 <HAL_RCC_OscConfig+0x520>)
 8002c70:	681b      	ldr	r3, [r3, #0]
 8002c72:	f413 7f80 	tst.w	r3, #256	; 0x100
 8002c76:	d0b5      	beq.n	8002be4 <HAL_RCC_OscConfig+0x2c4>
 8002c78:	f7fe fb94 	bl	80013a4 <HAL_GetTick>
 8002c7c:	1b40      	subs	r0, r0, r5
 8002c7e:	2802      	cmp	r0, #2
 8002c80:	d9f5      	bls.n	8002c6e <HAL_RCC_OscConfig+0x34e>
 8002c82:	2003      	movs	r0, #3
 8002c84:	e170      	b.n	8002f68 <HAL_RCC_OscConfig+0x648>
 8002c86:	4a6e      	ldr	r2, [pc, #440]	; (8002e40 <HAL_RCC_OscConfig+0x520>)
 8002c88:	6f53      	ldr	r3, [r2, #116]	; 0x74
 8002c8a:	f023 0301 	bic.w	r3, r3, #1
 8002c8e:	6753      	str	r3, [r2, #116]	; 0x74
 8002c90:	f7fe fb88 	bl	80013a4 <HAL_GetTick>
 8002c94:	4605      	mov	r5, r0
 8002c96:	4b6a      	ldr	r3, [pc, #424]	; (8002e40 <HAL_RCC_OscConfig+0x520>)
 8002c98:	6f5b      	ldr	r3, [r3, #116]	; 0x74
 8002c9a:	f013 0f02 	tst.w	r3, #2
 8002c9e:	d006      	beq.n	8002cae <HAL_RCC_OscConfig+0x38e>
 8002ca0:	f7fe fb80 	bl	80013a4 <HAL_GetTick>
 8002ca4:	1b40      	subs	r0, r0, r5
 8002ca6:	2802      	cmp	r0, #2
 8002ca8:	d9f5      	bls.n	8002c96 <HAL_RCC_OscConfig+0x376>
 8002caa:	2003      	movs	r0, #3
 8002cac:	e15c      	b.n	8002f68 <HAL_RCC_OscConfig+0x648>
 8002cae:	6823      	ldr	r3, [r4, #0]
 8002cb0:	f013 0f20 	tst.w	r3, #32
 8002cb4:	d029      	beq.n	8002d0a <HAL_RCC_OscConfig+0x3ea>
 8002cb6:	69a3      	ldr	r3, [r4, #24]
 8002cb8:	b19b      	cbz	r3, 8002ce2 <HAL_RCC_OscConfig+0x3c2>
 8002cba:	4a61      	ldr	r2, [pc, #388]	; (8002e40 <HAL_RCC_OscConfig+0x520>)
 8002cbc:	6813      	ldr	r3, [r2, #0]
 8002cbe:	f443 5380 	orr.w	r3, r3, #4096	; 0x1000
 8002cc2:	6013      	str	r3, [r2, #0]
 8002cc4:	f7fe fb6e 	bl	80013a4 <HAL_GetTick>
 8002cc8:	4605      	mov	r5, r0
 8002cca:	4b5d      	ldr	r3, [pc, #372]	; (8002e40 <HAL_RCC_OscConfig+0x520>)
 8002ccc:	681b      	ldr	r3, [r3, #0]
 8002cce:	f413 5f00 	tst.w	r3, #8192	; 0x2000
 8002cd2:	d11a      	bne.n	8002d0a <HAL_RCC_OscConfig+0x3ea>
 8002cd4:	f7fe fb66 	bl	80013a4 <HAL_GetTick>
 8002cd8:	1b40      	subs	r0, r0, r5
 8002cda:	2802      	cmp	r0, #2
 8002cdc:	d9f5      	bls.n	8002cca <HAL_RCC_OscConfig+0x3aa>
 8002cde:	2003      	movs	r0, #3
 8002ce0:	e142      	b.n	8002f68 <HAL_RCC_OscConfig+0x648>
 8002ce2:	4a57      	ldr	r2, [pc, #348]	; (8002e40 <HAL_RCC_OscConfig+0x520>)
 8002ce4:	6813      	ldr	r3, [r2, #0]
 8002ce6:	f423 5380 	bic.w	r3, r3, #4096	; 0x1000
 8002cea:	6013      	str	r3, [r2, #0]
 8002cec:	f7fe fb5a 	bl	80013a4 <HAL_GetTick>
 8002cf0:	4605      	mov	r5, r0
 8002cf2:	4b53      	ldr	r3, [pc, #332]	; (8002e40 <HAL_RCC_OscConfig+0x520>)
 8002cf4:	681b      	ldr	r3, [r3, #0]
 8002cf6:	f413 5f00 	tst.w	r3, #8192	; 0x2000
 8002cfa:	d006      	beq.n	8002d0a <HAL_RCC_OscConfig+0x3ea>
 8002cfc:	f7fe fb52 	bl	80013a4 <HAL_GetTick>
 8002d00:	1b40      	subs	r0, r0, r5
 8002d02:	2802      	cmp	r0, #2
 8002d04:	d9f5      	bls.n	8002cf2 <HAL_RCC_OscConfig+0x3d2>
 8002d06:	2003      	movs	r0, #3
 8002d08:	e12e      	b.n	8002f68 <HAL_RCC_OscConfig+0x648>
 8002d0a:	6823      	ldr	r3, [r4, #0]
 8002d0c:	f013 0f04 	tst.w	r3, #4
 8002d10:	d121      	bne.n	8002d56 <HAL_RCC_OscConfig+0x436>
 8002d12:	6a63      	ldr	r3, [r4, #36]	; 0x24
 8002d14:	2b00      	cmp	r3, #0
 8002d16:	f000 8126 	beq.w	8002f66 <HAL_RCC_OscConfig+0x646>
 8002d1a:	4a49      	ldr	r2, [pc, #292]	; (8002e40 <HAL_RCC_OscConfig+0x520>)
 8002d1c:	6912      	ldr	r2, [r2, #16]
 8002d1e:	f002 0238 	and.w	r2, r2, #56	; 0x38
 8002d22:	2a18      	cmp	r2, #24
 8002d24:	f000 80ee 	beq.w	8002f04 <HAL_RCC_OscConfig+0x5e4>
 8002d28:	2b02      	cmp	r3, #2
 8002d2a:	d075      	beq.n	8002e18 <HAL_RCC_OscConfig+0x4f8>
 8002d2c:	4a44      	ldr	r2, [pc, #272]	; (8002e40 <HAL_RCC_OscConfig+0x520>)
 8002d2e:	6813      	ldr	r3, [r2, #0]
 8002d30:	f023 7380 	bic.w	r3, r3, #16777216	; 0x1000000
 8002d34:	6013      	str	r3, [r2, #0]
 8002d36:	f7fe fb35 	bl	80013a4 <HAL_GetTick>
 8002d3a:	4604      	mov	r4, r0
 8002d3c:	4b40      	ldr	r3, [pc, #256]	; (8002e40 <HAL_RCC_OscConfig+0x520>)
 8002d3e:	681b      	ldr	r3, [r3, #0]
 8002d40:	f013 7f00 	tst.w	r3, #33554432	; 0x2000000
 8002d44:	f000 80dc 	beq.w	8002f00 <HAL_RCC_OscConfig+0x5e0>
 8002d48:	f7fe fb2c 	bl	80013a4 <HAL_GetTick>
 8002d4c:	1b00      	subs	r0, r0, r4
 8002d4e:	2802      	cmp	r0, #2
 8002d50:	d9f4      	bls.n	8002d3c <HAL_RCC_OscConfig+0x41c>
 8002d52:	2003      	movs	r0, #3
 8002d54:	e108      	b.n	8002f68 <HAL_RCC_OscConfig+0x648>
 8002d56:	4a3b      	ldr	r2, [pc, #236]	; (8002e44 <HAL_RCC_OscConfig+0x524>)
 8002d58:	6813      	ldr	r3, [r2, #0]
 8002d5a:	f443 7380 	orr.w	r3, r3, #256	; 0x100
 8002d5e:	6013      	str	r3, [r2, #0]
 8002d60:	f7fe fb20 	bl	80013a4 <HAL_GetTick>
 8002d64:	4605      	mov	r5, r0
 8002d66:	4b37      	ldr	r3, [pc, #220]	; (8002e44 <HAL_RCC_OscConfig+0x524>)
 8002d68:	681b      	ldr	r3, [r3, #0]
 8002d6a:	f413 7f80 	tst.w	r3, #256	; 0x100
 8002d6e:	d106      	bne.n	8002d7e <HAL_RCC_OscConfig+0x45e>
 8002d70:	f7fe fb18 	bl	80013a4 <HAL_GetTick>
 8002d74:	1b40      	subs	r0, r0, r5
 8002d76:	2864      	cmp	r0, #100	; 0x64
 8002d78:	d9f5      	bls.n	8002d66 <HAL_RCC_OscConfig+0x446>
 8002d7a:	2003      	movs	r0, #3
 8002d7c:	e0f4      	b.n	8002f68 <HAL_RCC_OscConfig+0x648>
 8002d7e:	68a3      	ldr	r3, [r4, #8]
 8002d80:	2b01      	cmp	r3, #1
 8002d82:	d00a      	beq.n	8002d9a <HAL_RCC_OscConfig+0x47a>
 8002d84:	bb0b      	cbnz	r3, 8002dca <HAL_RCC_OscConfig+0x4aa>
 8002d86:	4b2e      	ldr	r3, [pc, #184]	; (8002e40 <HAL_RCC_OscConfig+0x520>)
 8002d88:	6f1a      	ldr	r2, [r3, #112]	; 0x70
 8002d8a:	f022 0201 	bic.w	r2, r2, #1
 8002d8e:	671a      	str	r2, [r3, #112]	; 0x70
 8002d90:	6f1a      	ldr	r2, [r3, #112]	; 0x70
 8002d92:	f022 0204 	bic.w	r2, r2, #4
 8002d96:	671a      	str	r2, [r3, #112]	; 0x70
 8002d98:	e004      	b.n	8002da4 <HAL_RCC_OscConfig+0x484>
 8002d9a:	4a29      	ldr	r2, [pc, #164]	; (8002e40 <HAL_RCC_OscConfig+0x520>)
 8002d9c:	6f13      	ldr	r3, [r2, #112]	; 0x70
 8002d9e:	f043 0301 	orr.w	r3, r3, #1
 8002da2:	6713      	str	r3, [r2, #112]	; 0x70
 8002da4:	68a3      	ldr	r3, [r4, #8]
 8002da6:	b333      	cbz	r3, 8002df6 <HAL_RCC_OscConfig+0x4d6>
 8002da8:	f7fe fafc 	bl	80013a4 <HAL_GetTick>
 8002dac:	4605      	mov	r5, r0
 8002dae:	4b24      	ldr	r3, [pc, #144]	; (8002e40 <HAL_RCC_OscConfig+0x520>)
 8002db0:	6f1b      	ldr	r3, [r3, #112]	; 0x70
 8002db2:	f013 0f02 	tst.w	r3, #2
 8002db6:	d1ac      	bne.n	8002d12 <HAL_RCC_OscConfig+0x3f2>
 8002db8:	f7fe faf4 	bl	80013a4 <HAL_GetTick>
 8002dbc:	1b40      	subs	r0, r0, r5
 8002dbe:	f241 3388 	movw	r3, #5000	; 0x1388
 8002dc2:	4298      	cmp	r0, r3
 8002dc4:	d9f3      	bls.n	8002dae <HAL_RCC_OscConfig+0x48e>
 8002dc6:	2003      	movs	r0, #3
 8002dc8:	e0ce      	b.n	8002f68 <HAL_RCC_OscConfig+0x648>
 8002dca:	2b05      	cmp	r3, #5
 8002dcc:	d009      	beq.n	8002de2 <HAL_RCC_OscConfig+0x4c2>
 8002dce:	4b1c      	ldr	r3, [pc, #112]	; (8002e40 <HAL_RCC_OscConfig+0x520>)
 8002dd0:	6f1a      	ldr	r2, [r3, #112]	; 0x70
 8002dd2:	f022 0201 	bic.w	r2, r2, #1
 8002dd6:	671a      	str	r2, [r3, #112]	; 0x70
 8002dd8:	6f1a      	ldr	r2, [r3, #112]	; 0x70
 8002dda:	f022 0204 	bic.w	r2, r2, #4
 8002dde:	671a      	str	r2, [r3, #112]	; 0x70
 8002de0:	e7e0      	b.n	8002da4 <HAL_RCC_OscConfig+0x484>
 8002de2:	4b17      	ldr	r3, [pc, #92]	; (8002e40 <HAL_RCC_OscConfig+0x520>)
 8002de4:	6f1a      	ldr	r2, [r3, #112]	; 0x70
 8002de6:	f042 0204 	orr.w	r2, r2, #4
 8002dea:	671a      	str	r2, [r3, #112]	; 0x70
 8002dec:	6f1a      	ldr	r2, [r3, #112]	; 0x70
 8002dee:	f042 0201 	orr.w	r2, r2, #1
 8002df2:	671a      	str	r2, [r3, #112]	; 0x70
 8002df4:	e7d6      	b.n	8002da4 <HAL_RCC_OscConfig+0x484>
 8002df6:	f7fe fad5 	bl	80013a4 <HAL_GetTick>
 8002dfa:	4605      	mov	r5, r0
 8002dfc:	4b10      	ldr	r3, [pc, #64]	; (8002e40 <HAL_RCC_OscConfig+0x520>)
 8002dfe:	6f1b      	ldr	r3, [r3, #112]	; 0x70
 8002e00:	f013 0f02 	tst.w	r3, #2
 8002e04:	d085      	beq.n	8002d12 <HAL_RCC_OscConfig+0x3f2>
 8002e06:	f7fe facd 	bl	80013a4 <HAL_GetTick>
 8002e0a:	1b40      	subs	r0, r0, r5
 8002e0c:	f241 3388 	movw	r3, #5000	; 0x1388
 8002e10:	4298      	cmp	r0, r3
 8002e12:	d9f3      	bls.n	8002dfc <HAL_RCC_OscConfig+0x4dc>
 8002e14:	2003      	movs	r0, #3
 8002e16:	e0a7      	b.n	8002f68 <HAL_RCC_OscConfig+0x648>
 8002e18:	4a09      	ldr	r2, [pc, #36]	; (8002e40 <HAL_RCC_OscConfig+0x520>)
 8002e1a:	6813      	ldr	r3, [r2, #0]
 8002e1c:	f023 7380 	bic.w	r3, r3, #16777216	; 0x1000000
 8002e20:	6013      	str	r3, [r2, #0]
 8002e22:	f7fe fabf 	bl	80013a4 <HAL_GetTick>
 8002e26:	4605      	mov	r5, r0
 8002e28:	4b05      	ldr	r3, [pc, #20]	; (8002e40 <HAL_RCC_OscConfig+0x520>)
 8002e2a:	681b      	ldr	r3, [r3, #0]
 8002e2c:	f013 7f00 	tst.w	r3, #33554432	; 0x2000000
 8002e30:	d00a      	beq.n	8002e48 <HAL_RCC_OscConfig+0x528>
 8002e32:	f7fe fab7 	bl	80013a4 <HAL_GetTick>
 8002e36:	1b40      	subs	r0, r0, r5
 8002e38:	2802      	cmp	r0, #2
 8002e3a:	d9f5      	bls.n	8002e28 <HAL_RCC_OscConfig+0x508>
 8002e3c:	2003      	movs	r0, #3
 8002e3e:	e093      	b.n	8002f68 <HAL_RCC_OscConfig+0x648>
 8002e40:	58024400 	.word	0x58024400
 8002e44:	58024800 	.word	0x58024800
 8002e48:	4b4f      	ldr	r3, [pc, #316]	; (8002f88 <HAL_RCC_OscConfig+0x668>)
 8002e4a:	6a99      	ldr	r1, [r3, #40]	; 0x28
 8002e4c:	4a4f      	ldr	r2, [pc, #316]	; (8002f8c <HAL_RCC_OscConfig+0x66c>)
 8002e4e:	400a      	ands	r2, r1
 8002e50:	6aa1      	ldr	r1, [r4, #40]	; 0x28
 8002e52:	6ae0      	ldr	r0, [r4, #44]	; 0x2c
 8002e54:	ea41 1100 	orr.w	r1, r1, r0, lsl #4
 8002e58:	430a      	orrs	r2, r1
 8002e5a:	629a      	str	r2, [r3, #40]	; 0x28
 8002e5c:	6b22      	ldr	r2, [r4, #48]	; 0x30
 8002e5e:	3a01      	subs	r2, #1
 8002e60:	f3c2 0208 	ubfx	r2, r2, #0, #9
 8002e64:	6b61      	ldr	r1, [r4, #52]	; 0x34
 8002e66:	3901      	subs	r1, #1
 8002e68:	0249      	lsls	r1, r1, #9
 8002e6a:	b289      	uxth	r1, r1
 8002e6c:	430a      	orrs	r2, r1
 8002e6e:	6ba1      	ldr	r1, [r4, #56]	; 0x38
 8002e70:	3901      	subs	r1, #1
 8002e72:	0409      	lsls	r1, r1, #16
 8002e74:	f401 01fe 	and.w	r1, r1, #8323072	; 0x7f0000
 8002e78:	430a      	orrs	r2, r1
 8002e7a:	6be1      	ldr	r1, [r4, #60]	; 0x3c
 8002e7c:	3901      	subs	r1, #1
 8002e7e:	0609      	lsls	r1, r1, #24
 8002e80:	f001 41fe 	and.w	r1, r1, #2130706432	; 0x7f000000
 8002e84:	430a      	orrs	r2, r1
 8002e86:	631a      	str	r2, [r3, #48]	; 0x30
 8002e88:	6ada      	ldr	r2, [r3, #44]	; 0x2c
 8002e8a:	f022 0201 	bic.w	r2, r2, #1
 8002e8e:	62da      	str	r2, [r3, #44]	; 0x2c
 8002e90:	6b59      	ldr	r1, [r3, #52]	; 0x34
 8002e92:	4a3f      	ldr	r2, [pc, #252]	; (8002f90 <HAL_RCC_OscConfig+0x670>)
 8002e94:	400a      	ands	r2, r1
 8002e96:	6ca1      	ldr	r1, [r4, #72]	; 0x48
 8002e98:	ea42 02c1 	orr.w	r2, r2, r1, lsl #3
 8002e9c:	635a      	str	r2, [r3, #52]	; 0x34
 8002e9e:	6ada      	ldr	r2, [r3, #44]	; 0x2c
 8002ea0:	f022 020c 	bic.w	r2, r2, #12
 8002ea4:	6c21      	ldr	r1, [r4, #64]	; 0x40
 8002ea6:	430a      	orrs	r2, r1
 8002ea8:	62da      	str	r2, [r3, #44]	; 0x2c
 8002eaa:	6ada      	ldr	r2, [r3, #44]	; 0x2c
 8002eac:	f022 0202 	bic.w	r2, r2, #2
 8002eb0:	6c61      	ldr	r1, [r4, #68]	; 0x44
 8002eb2:	430a      	orrs	r2, r1
 8002eb4:	62da      	str	r2, [r3, #44]	; 0x2c
 8002eb6:	6ada      	ldr	r2, [r3, #44]	; 0x2c
 8002eb8:	f442 3280 	orr.w	r2, r2, #65536	; 0x10000
 8002ebc:	62da      	str	r2, [r3, #44]	; 0x2c
 8002ebe:	6ada      	ldr	r2, [r3, #44]	; 0x2c
 8002ec0:	f442 3200 	orr.w	r2, r2, #131072	; 0x20000
 8002ec4:	62da      	str	r2, [r3, #44]	; 0x2c
 8002ec6:	6ada      	ldr	r2, [r3, #44]	; 0x2c
 8002ec8:	f442 2280 	orr.w	r2, r2, #262144	; 0x40000
 8002ecc:	62da      	str	r2, [r3, #44]	; 0x2c
 8002ece:	6ada      	ldr	r2, [r3, #44]	; 0x2c
 8002ed0:	f042 0201 	orr.w	r2, r2, #1
 8002ed4:	62da      	str	r2, [r3, #44]	; 0x2c
 8002ed6:	681a      	ldr	r2, [r3, #0]
 8002ed8:	f042 7280 	orr.w	r2, r2, #16777216	; 0x1000000
 8002edc:	601a      	str	r2, [r3, #0]
 8002ede:	f7fe fa61 	bl	80013a4 <HAL_GetTick>
 8002ee2:	4604      	mov	r4, r0
 8002ee4:	4b28      	ldr	r3, [pc, #160]	; (8002f88 <HAL_RCC_OscConfig+0x668>)
 8002ee6:	681b      	ldr	r3, [r3, #0]
 8002ee8:	f013 7f00 	tst.w	r3, #33554432	; 0x2000000
 8002eec:	d106      	bne.n	8002efc <HAL_RCC_OscConfig+0x5dc>
 8002eee:	f7fe fa59 	bl	80013a4 <HAL_GetTick>
 8002ef2:	1b00      	subs	r0, r0, r4
 8002ef4:	2802      	cmp	r0, #2
 8002ef6:	d9f5      	bls.n	8002ee4 <HAL_RCC_OscConfig+0x5c4>
 8002ef8:	2003      	movs	r0, #3
 8002efa:	e035      	b.n	8002f68 <HAL_RCC_OscConfig+0x648>
 8002efc:	2000      	movs	r0, #0
 8002efe:	e033      	b.n	8002f68 <HAL_RCC_OscConfig+0x648>
 8002f00:	2000      	movs	r0, #0
 8002f02:	e031      	b.n	8002f68 <HAL_RCC_OscConfig+0x648>
 8002f04:	4a20      	ldr	r2, [pc, #128]	; (8002f88 <HAL_RCC_OscConfig+0x668>)
 8002f06:	6a91      	ldr	r1, [r2, #40]	; 0x28
 8002f08:	6b10      	ldr	r0, [r2, #48]	; 0x30
 8002f0a:	2b01      	cmp	r3, #1
 8002f0c:	d02d      	beq.n	8002f6a <HAL_RCC_OscConfig+0x64a>
 8002f0e:	f001 0303 	and.w	r3, r1, #3
 8002f12:	6aa2      	ldr	r2, [r4, #40]	; 0x28
 8002f14:	4293      	cmp	r3, r2
 8002f16:	d12a      	bne.n	8002f6e <HAL_RCC_OscConfig+0x64e>
 8002f18:	f3c1 1105 	ubfx	r1, r1, #4, #6
 8002f1c:	6ae3      	ldr	r3, [r4, #44]	; 0x2c
 8002f1e:	4299      	cmp	r1, r3
 8002f20:	d127      	bne.n	8002f72 <HAL_RCC_OscConfig+0x652>
 8002f22:	f3c0 0208 	ubfx	r2, r0, #0, #9
 8002f26:	6b23      	ldr	r3, [r4, #48]	; 0x30
 8002f28:	3b01      	subs	r3, #1
 8002f2a:	429a      	cmp	r2, r3
 8002f2c:	d123      	bne.n	8002f76 <HAL_RCC_OscConfig+0x656>
 8002f2e:	f3c0 2246 	ubfx	r2, r0, #9, #7
 8002f32:	6b63      	ldr	r3, [r4, #52]	; 0x34
 8002f34:	3b01      	subs	r3, #1
 8002f36:	429a      	cmp	r2, r3
 8002f38:	d11f      	bne.n	8002f7a <HAL_RCC_OscConfig+0x65a>
 8002f3a:	f3c0 4206 	ubfx	r2, r0, #16, #7
 8002f3e:	6ba3      	ldr	r3, [r4, #56]	; 0x38
 8002f40:	3b01      	subs	r3, #1
 8002f42:	429a      	cmp	r2, r3
 8002f44:	d11b      	bne.n	8002f7e <HAL_RCC_OscConfig+0x65e>
 8002f46:	f3c0 6006 	ubfx	r0, r0, #24, #7
 8002f4a:	6be3      	ldr	r3, [r4, #60]	; 0x3c
 8002f4c:	3b01      	subs	r3, #1
 8002f4e:	4298      	cmp	r0, r3
 8002f50:	d117      	bne.n	8002f82 <HAL_RCC_OscConfig+0x662>
 8002f52:	2000      	movs	r0, #0
 8002f54:	e008      	b.n	8002f68 <HAL_RCC_OscConfig+0x648>
 8002f56:	2001      	movs	r0, #1
 8002f58:	4770      	bx	lr
 8002f5a:	2001      	movs	r0, #1
 8002f5c:	e004      	b.n	8002f68 <HAL_RCC_OscConfig+0x648>
 8002f5e:	2001      	movs	r0, #1
 8002f60:	e002      	b.n	8002f68 <HAL_RCC_OscConfig+0x648>
 8002f62:	2001      	movs	r0, #1
 8002f64:	e000      	b.n	8002f68 <HAL_RCC_OscConfig+0x648>
 8002f66:	2000      	movs	r0, #0
 8002f68:	bd38      	pop	{r3, r4, r5, pc}
 8002f6a:	2001      	movs	r0, #1
 8002f6c:	e7fc      	b.n	8002f68 <HAL_RCC_OscConfig+0x648>
 8002f6e:	2001      	movs	r0, #1
 8002f70:	e7fa      	b.n	8002f68 <HAL_RCC_OscConfig+0x648>
 8002f72:	2001      	movs	r0, #1
 8002f74:	e7f8      	b.n	8002f68 <HAL_RCC_OscConfig+0x648>
 8002f76:	2001      	movs	r0, #1
 8002f78:	e7f6      	b.n	8002f68 <HAL_RCC_OscConfig+0x648>
 8002f7a:	2001      	movs	r0, #1
 8002f7c:	e7f4      	b.n	8002f68 <HAL_RCC_OscConfig+0x648>
 8002f7e:	2001      	movs	r0, #1
 8002f80:	e7f2      	b.n	8002f68 <HAL_RCC_OscConfig+0x648>
 8002f82:	2001      	movs	r0, #1
 8002f84:	e7f0      	b.n	8002f68 <HAL_RCC_OscConfig+0x648>
 8002f86:	bf00      	nop
 8002f88:	58024400 	.word	0x58024400
 8002f8c:	fffffc0c 	.word	0xfffffc0c
 8002f90:	ffff0007 	.word	0xffff0007

08002f94 <HAL_RCC_GetSysClockFreq>:
 8002f94:	4b74      	ldr	r3, [pc, #464]	; (8003168 <HAL_RCC_GetSysClockFreq+0x1d4>)
 8002f96:	691b      	ldr	r3, [r3, #16]
 8002f98:	f003 0338 	and.w	r3, r3, #56	; 0x38
 8002f9c:	2b10      	cmp	r3, #16
 8002f9e:	f000 80df 	beq.w	8003160 <HAL_RCC_GetSysClockFreq+0x1cc>
 8002fa2:	2b18      	cmp	r3, #24
 8002fa4:	d010      	beq.n	8002fc8 <HAL_RCC_GetSysClockFreq+0x34>
 8002fa6:	b10b      	cbz	r3, 8002fac <HAL_RCC_GetSysClockFreq+0x18>
 8002fa8:	4870      	ldr	r0, [pc, #448]	; (800316c <HAL_RCC_GetSysClockFreq+0x1d8>)
 8002faa:	4770      	bx	lr
 8002fac:	4b6e      	ldr	r3, [pc, #440]	; (8003168 <HAL_RCC_GetSysClockFreq+0x1d4>)
 8002fae:	681b      	ldr	r3, [r3, #0]
 8002fb0:	f013 0f20 	tst.w	r3, #32
 8002fb4:	f000 80d6 	beq.w	8003164 <HAL_RCC_GetSysClockFreq+0x1d0>
 8002fb8:	4b6b      	ldr	r3, [pc, #428]	; (8003168 <HAL_RCC_GetSysClockFreq+0x1d4>)
 8002fba:	6818      	ldr	r0, [r3, #0]
 8002fbc:	f3c0 00c1 	ubfx	r0, r0, #3, #2
 8002fc0:	4b6b      	ldr	r3, [pc, #428]	; (8003170 <HAL_RCC_GetSysClockFreq+0x1dc>)
 8002fc2:	fa23 f000 	lsr.w	r0, r3, r0
 8002fc6:	4770      	bx	lr
 8002fc8:	b410      	push	{r4}
 8002fca:	4a67      	ldr	r2, [pc, #412]	; (8003168 <HAL_RCC_GetSysClockFreq+0x1d4>)
 8002fcc:	6a91      	ldr	r1, [r2, #40]	; 0x28
 8002fce:	f001 0103 	and.w	r1, r1, #3
 8002fd2:	6a94      	ldr	r4, [r2, #40]	; 0x28
 8002fd4:	f3c4 1005 	ubfx	r0, r4, #4, #6
 8002fd8:	6ad3      	ldr	r3, [r2, #44]	; 0x2c
 8002fda:	f003 0301 	and.w	r3, r3, #1
 8002fde:	6b52      	ldr	r2, [r2, #52]	; 0x34
 8002fe0:	f3c2 02cc 	ubfx	r2, r2, #3, #13
 8002fe4:	fb03 f302 	mul.w	r3, r3, r2
 8002fe8:	ee07 3a90 	vmov	s15, r3
 8002fec:	eef8 7a67 	vcvt.f32.u32	s15, s15
 8002ff0:	f414 7f7c 	tst.w	r4, #1008	; 0x3f0
 8002ff4:	f000 8094 	beq.w	8003120 <HAL_RCC_GetSysClockFreq+0x18c>
 8002ff8:	2901      	cmp	r1, #1
 8002ffa:	d066      	beq.n	80030ca <HAL_RCC_GetSysClockFreq+0x136>
 8002ffc:	2902      	cmp	r1, #2
 8002ffe:	f000 8092 	beq.w	8003126 <HAL_RCC_GetSysClockFreq+0x192>
 8003002:	b1e1      	cbz	r1, 800303e <HAL_RCC_GetSysClockFreq+0xaa>
 8003004:	ee07 0a10 	vmov	s14, r0
 8003008:	eef8 6a47 	vcvt.f32.u32	s13, s14
 800300c:	ed9f 6a59 	vldr	s12, [pc, #356]	; 8003174 <HAL_RCC_GetSysClockFreq+0x1e0>
 8003010:	ee86 7a26 	vdiv.f32	s14, s12, s13
 8003014:	4b54      	ldr	r3, [pc, #336]	; (8003168 <HAL_RCC_GetSysClockFreq+0x1d4>)
 8003016:	6b1b      	ldr	r3, [r3, #48]	; 0x30
 8003018:	f3c3 0308 	ubfx	r3, r3, #0, #9
 800301c:	ee06 3a90 	vmov	s13, r3
 8003020:	eef8 6a66 	vcvt.f32.u32	s13, s13
 8003024:	ed9f 6a54 	vldr	s12, [pc, #336]	; 8003178 <HAL_RCC_GetSysClockFreq+0x1e4>
 8003028:	ee67 7a86 	vmul.f32	s15, s15, s12
 800302c:	ee76 7aa7 	vadd.f32	s15, s13, s15
 8003030:	eef7 6a00 	vmov.f32	s13, #112	; 0x3f800000  1.0
 8003034:	ee77 7aa6 	vadd.f32	s15, s15, s13
 8003038:	ee27 7a27 	vmul.f32	s14, s14, s15
 800303c:	e061      	b.n	8003102 <HAL_RCC_GetSysClockFreq+0x16e>
 800303e:	4b4a      	ldr	r3, [pc, #296]	; (8003168 <HAL_RCC_GetSysClockFreq+0x1d4>)
 8003040:	681b      	ldr	r3, [r3, #0]
 8003042:	f013 0f20 	tst.w	r3, #32
 8003046:	d023      	beq.n	8003090 <HAL_RCC_GetSysClockFreq+0xfc>
 8003048:	4947      	ldr	r1, [pc, #284]	; (8003168 <HAL_RCC_GetSysClockFreq+0x1d4>)
 800304a:	680a      	ldr	r2, [r1, #0]
 800304c:	f3c2 02c1 	ubfx	r2, r2, #3, #2
 8003050:	4b47      	ldr	r3, [pc, #284]	; (8003170 <HAL_RCC_GetSysClockFreq+0x1dc>)
 8003052:	40d3      	lsrs	r3, r2
 8003054:	ee07 3a10 	vmov	s14, r3
 8003058:	eef8 6a47 	vcvt.f32.u32	s13, s14
 800305c:	ee07 0a10 	vmov	s14, r0
 8003060:	eeb8 6a47 	vcvt.f32.u32	s12, s14
 8003064:	ee86 7a86 	vdiv.f32	s14, s13, s12
 8003068:	6b0b      	ldr	r3, [r1, #48]	; 0x30
 800306a:	f3c3 0308 	ubfx	r3, r3, #0, #9
 800306e:	ee06 3a90 	vmov	s13, r3
 8003072:	eef8 6a66 	vcvt.f32.u32	s13, s13
 8003076:	ed9f 6a40 	vldr	s12, [pc, #256]	; 8003178 <HAL_RCC_GetSysClockFreq+0x1e4>
 800307a:	ee67 7a86 	vmul.f32	s15, s15, s12
 800307e:	ee76 7aa7 	vadd.f32	s15, s13, s15
 8003082:	eef7 6a00 	vmov.f32	s13, #112	; 0x3f800000  1.0
 8003086:	ee77 7aa6 	vadd.f32	s15, s15, s13
 800308a:	ee27 7a27 	vmul.f32	s14, s14, s15
 800308e:	e038      	b.n	8003102 <HAL_RCC_GetSysClockFreq+0x16e>
 8003090:	ee07 0a10 	vmov	s14, r0
 8003094:	eef8 6a47 	vcvt.f32.u32	s13, s14
 8003098:	ed9f 6a38 	vldr	s12, [pc, #224]	; 800317c <HAL_RCC_GetSysClockFreq+0x1e8>
 800309c:	ee86 7a26 	vdiv.f32	s14, s12, s13
 80030a0:	4b31      	ldr	r3, [pc, #196]	; (8003168 <HAL_RCC_GetSysClockFreq+0x1d4>)
 80030a2:	6b1b      	ldr	r3, [r3, #48]	; 0x30
 80030a4:	f3c3 0308 	ubfx	r3, r3, #0, #9
 80030a8:	ee06 3a90 	vmov	s13, r3
 80030ac:	eef8 6a66 	vcvt.f32.u32	s13, s13
 80030b0:	ed9f 6a31 	vldr	s12, [pc, #196]	; 8003178 <HAL_RCC_GetSysClockFreq+0x1e4>
 80030b4:	ee67 7a86 	vmul.f32	s15, s15, s12
 80030b8:	ee76 7aa7 	vadd.f32	s15, s13, s15
 80030bc:	eef7 6a00 	vmov.f32	s13, #112	; 0x3f800000  1.0
 80030c0:	ee77 7aa6 	vadd.f32	s15, s15, s13
 80030c4:	ee27 7a27 	vmul.f32	s14, s14, s15
 80030c8:	e01b      	b.n	8003102 <HAL_RCC_GetSysClockFreq+0x16e>
 80030ca:	ee07 0a10 	vmov	s14, r0
 80030ce:	eef8 6a47 	vcvt.f32.u32	s13, s14
 80030d2:	ed9f 6a28 	vldr	s12, [pc, #160]	; 8003174 <HAL_RCC_GetSysClockFreq+0x1e0>
 80030d6:	ee86 7a26 	vdiv.f32	s14, s12, s13
 80030da:	4b23      	ldr	r3, [pc, #140]	; (8003168 <HAL_RCC_GetSysClockFreq+0x1d4>)
 80030dc:	6b1b      	ldr	r3, [r3, #48]	; 0x30
 80030de:	f3c3 0308 	ubfx	r3, r3, #0, #9
 80030e2:	ee06 3a90 	vmov	s13, r3
 80030e6:	eef8 6a66 	vcvt.f32.u32	s13, s13
 80030ea:	ed9f 6a23 	vldr	s12, [pc, #140]	; 8003178 <HAL_RCC_GetSysClockFreq+0x1e4>
 80030ee:	ee67 7a86 	vmul.f32	s15, s15, s12
 80030f2:	ee76 7aa7 	vadd.f32	s15, s13, s15
 80030f6:	eef7 6a00 	vmov.f32	s13, #112	; 0x3f800000  1.0
 80030fa:	ee77 7aa6 	vadd.f32	s15, s15, s13
 80030fe:	ee27 7a27 	vmul.f32	s14, s14, s15
 8003102:	4b19      	ldr	r3, [pc, #100]	; (8003168 <HAL_RCC_GetSysClockFreq+0x1d4>)
 8003104:	6b1b      	ldr	r3, [r3, #48]	; 0x30
 8003106:	f3c3 2346 	ubfx	r3, r3, #9, #7
 800310a:	3301      	adds	r3, #1
 800310c:	ee07 3a90 	vmov	s15, r3
 8003110:	eef8 7a67 	vcvt.f32.u32	s15, s15
 8003114:	eec7 6a27 	vdiv.f32	s13, s14, s15
 8003118:	eefc 7ae6 	vcvt.u32.f32	s15, s13
 800311c:	ee17 0a90 	vmov	r0, s15
 8003120:	f85d 4b04 	ldr.w	r4, [sp], #4
 8003124:	4770      	bx	lr
 8003126:	ee07 0a10 	vmov	s14, r0
 800312a:	eef8 6a47 	vcvt.f32.u32	s13, s14
 800312e:	ed9f 6a14 	vldr	s12, [pc, #80]	; 8003180 <HAL_RCC_GetSysClockFreq+0x1ec>
 8003132:	ee86 7a26 	vdiv.f32	s14, s12, s13
 8003136:	4b0c      	ldr	r3, [pc, #48]	; (8003168 <HAL_RCC_GetSysClockFreq+0x1d4>)
 8003138:	6b1b      	ldr	r3, [r3, #48]	; 0x30
 800313a:	f3c3 0308 	ubfx	r3, r3, #0, #9
 800313e:	ee06 3a90 	vmov	s13, r3
 8003142:	eef8 6a66 	vcvt.f32.u32	s13, s13
 8003146:	ed9f 6a0c 	vldr	s12, [pc, #48]	; 8003178 <HAL_RCC_GetSysClockFreq+0x1e4>
 800314a:	ee67 7a86 	vmul.f32	s15, s15, s12
 800314e:	ee76 7aa7 	vadd.f32	s15, s13, s15
 8003152:	eef7 6a00 	vmov.f32	s13, #112	; 0x3f800000  1.0
 8003156:	ee77 7aa6 	vadd.f32	s15, s15, s13
 800315a:	ee27 7a27 	vmul.f32	s14, s14, s15
 800315e:	e7d0      	b.n	8003102 <HAL_RCC_GetSysClockFreq+0x16e>
 8003160:	4808      	ldr	r0, [pc, #32]	; (8003184 <HAL_RCC_GetSysClockFreq+0x1f0>)
 8003162:	4770      	bx	lr
 8003164:	4802      	ldr	r0, [pc, #8]	; (8003170 <HAL_RCC_GetSysClockFreq+0x1dc>)
 8003166:	4770      	bx	lr
 8003168:	58024400 	.word	0x58024400
 800316c:	003d0900 	.word	0x003d0900
 8003170:	03d09000 	.word	0x03d09000
 8003174:	4a742400 	.word	0x4a742400
 8003178:	39000000 	.word	0x39000000
 800317c:	4c742400 	.word	0x4c742400
 8003180:	4bbebc20 	.word	0x4bbebc20
 8003184:	017d7840 	.word	0x017d7840

08003188 <HAL_RCC_ClockConfig>:
 8003188:	2800      	cmp	r0, #0
 800318a:	f000 8132 	beq.w	80033f2 <HAL_RCC_ClockConfig+0x26a>
 800318e:	b570      	push	{r4, r5, r6, lr}
 8003190:	460d      	mov	r5, r1
 8003192:	4604      	mov	r4, r0
 8003194:	4b9b      	ldr	r3, [pc, #620]	; (8003404 <HAL_RCC_ClockConfig+0x27c>)
 8003196:	681b      	ldr	r3, [r3, #0]
 8003198:	f003 030f 	and.w	r3, r3, #15
 800319c:	428b      	cmp	r3, r1
 800319e:	d20b      	bcs.n	80031b8 <HAL_RCC_ClockConfig+0x30>
 80031a0:	4a98      	ldr	r2, [pc, #608]	; (8003404 <HAL_RCC_ClockConfig+0x27c>)
 80031a2:	6813      	ldr	r3, [r2, #0]
 80031a4:	f023 030f 	bic.w	r3, r3, #15
 80031a8:	430b      	orrs	r3, r1
 80031aa:	6013      	str	r3, [r2, #0]
 80031ac:	6813      	ldr	r3, [r2, #0]
 80031ae:	f003 030f 	and.w	r3, r3, #15
 80031b2:	428b      	cmp	r3, r1
 80031b4:	f040 811f 	bne.w	80033f6 <HAL_RCC_ClockConfig+0x26e>
 80031b8:	6823      	ldr	r3, [r4, #0]
 80031ba:	f013 0f04 	tst.w	r3, #4
 80031be:	d00c      	beq.n	80031da <HAL_RCC_ClockConfig+0x52>
 80031c0:	6922      	ldr	r2, [r4, #16]
 80031c2:	4b91      	ldr	r3, [pc, #580]	; (8003408 <HAL_RCC_ClockConfig+0x280>)
 80031c4:	699b      	ldr	r3, [r3, #24]
 80031c6:	f003 0370 	and.w	r3, r3, #112	; 0x70
 80031ca:	429a      	cmp	r2, r3
 80031cc:	d905      	bls.n	80031da <HAL_RCC_ClockConfig+0x52>
 80031ce:	498e      	ldr	r1, [pc, #568]	; (8003408 <HAL_RCC_ClockConfig+0x280>)
 80031d0:	698b      	ldr	r3, [r1, #24]
 80031d2:	f023 0370 	bic.w	r3, r3, #112	; 0x70
 80031d6:	431a      	orrs	r2, r3
 80031d8:	618a      	str	r2, [r1, #24]
 80031da:	6823      	ldr	r3, [r4, #0]
 80031dc:	f013 0f08 	tst.w	r3, #8
 80031e0:	d00c      	beq.n	80031fc <HAL_RCC_ClockConfig+0x74>
 80031e2:	6962      	ldr	r2, [r4, #20]
 80031e4:	4b88      	ldr	r3, [pc, #544]	; (8003408 <HAL_RCC_ClockConfig+0x280>)
 80031e6:	69db      	ldr	r3, [r3, #28]
 80031e8:	f003 0370 	and.w	r3, r3, #112	; 0x70
 80031ec:	429a      	cmp	r2, r3
 80031ee:	d905      	bls.n	80031fc <HAL_RCC_ClockConfig+0x74>
 80031f0:	4985      	ldr	r1, [pc, #532]	; (8003408 <HAL_RCC_ClockConfig+0x280>)
 80031f2:	69cb      	ldr	r3, [r1, #28]
 80031f4:	f023 0370 	bic.w	r3, r3, #112	; 0x70
 80031f8:	431a      	orrs	r2, r3
 80031fa:	61ca      	str	r2, [r1, #28]
 80031fc:	6823      	ldr	r3, [r4, #0]
 80031fe:	f013 0f10 	tst.w	r3, #16
 8003202:	d00c      	beq.n	800321e <HAL_RCC_ClockConfig+0x96>
 8003204:	69a2      	ldr	r2, [r4, #24]
 8003206:	4b80      	ldr	r3, [pc, #512]	; (8003408 <HAL_RCC_ClockConfig+0x280>)
 8003208:	69db      	ldr	r3, [r3, #28]
 800320a:	f403 63e0 	and.w	r3, r3, #1792	; 0x700
 800320e:	429a      	cmp	r2, r3
 8003210:	d905      	bls.n	800321e <HAL_RCC_ClockConfig+0x96>
 8003212:	497d      	ldr	r1, [pc, #500]	; (8003408 <HAL_RCC_ClockConfig+0x280>)
 8003214:	69cb      	ldr	r3, [r1, #28]
 8003216:	f423 63e0 	bic.w	r3, r3, #1792	; 0x700
 800321a:	431a      	orrs	r2, r3
 800321c:	61ca      	str	r2, [r1, #28]
 800321e:	6823      	ldr	r3, [r4, #0]
 8003220:	f013 0f20 	tst.w	r3, #32
 8003224:	d00c      	beq.n	8003240 <HAL_RCC_ClockConfig+0xb8>
 8003226:	69e2      	ldr	r2, [r4, #28]
 8003228:	4b77      	ldr	r3, [pc, #476]	; (8003408 <HAL_RCC_ClockConfig+0x280>)
 800322a:	6a1b      	ldr	r3, [r3, #32]
 800322c:	f003 0370 	and.w	r3, r3, #112	; 0x70
 8003230:	429a      	cmp	r2, r3
 8003232:	d905      	bls.n	8003240 <HAL_RCC_ClockConfig+0xb8>
 8003234:	4974      	ldr	r1, [pc, #464]	; (8003408 <HAL_RCC_ClockConfig+0x280>)
 8003236:	6a0b      	ldr	r3, [r1, #32]
 8003238:	f023 0370 	bic.w	r3, r3, #112	; 0x70
 800323c:	431a      	orrs	r2, r3
 800323e:	620a      	str	r2, [r1, #32]
 8003240:	6823      	ldr	r3, [r4, #0]
 8003242:	f013 0f02 	tst.w	r3, #2
 8003246:	d00c      	beq.n	8003262 <HAL_RCC_ClockConfig+0xda>
 8003248:	68e2      	ldr	r2, [r4, #12]
 800324a:	4b6f      	ldr	r3, [pc, #444]	; (8003408 <HAL_RCC_ClockConfig+0x280>)
 800324c:	699b      	ldr	r3, [r3, #24]
 800324e:	f003 030f 	and.w	r3, r3, #15
 8003252:	429a      	cmp	r2, r3
 8003254:	d905      	bls.n	8003262 <HAL_RCC_ClockConfig+0xda>
 8003256:	496c      	ldr	r1, [pc, #432]	; (8003408 <HAL_RCC_ClockConfig+0x280>)
 8003258:	698b      	ldr	r3, [r1, #24]
 800325a:	f023 030f 	bic.w	r3, r3, #15
 800325e:	431a      	orrs	r2, r3
 8003260:	618a      	str	r2, [r1, #24]
 8003262:	6823      	ldr	r3, [r4, #0]
 8003264:	f013 0f01 	tst.w	r3, #1
 8003268:	d041      	beq.n	80032ee <HAL_RCC_ClockConfig+0x166>
 800326a:	4a67      	ldr	r2, [pc, #412]	; (8003408 <HAL_RCC_ClockConfig+0x280>)
 800326c:	6993      	ldr	r3, [r2, #24]
 800326e:	f423 6370 	bic.w	r3, r3, #3840	; 0xf00
 8003272:	68a1      	ldr	r1, [r4, #8]
 8003274:	430b      	orrs	r3, r1
 8003276:	6193      	str	r3, [r2, #24]
 8003278:	6863      	ldr	r3, [r4, #4]
 800327a:	2b02      	cmp	r3, #2
 800327c:	d00a      	beq.n	8003294 <HAL_RCC_ClockConfig+0x10c>
 800327e:	2b03      	cmp	r3, #3
 8003280:	d027      	beq.n	80032d2 <HAL_RCC_ClockConfig+0x14a>
 8003282:	2b01      	cmp	r3, #1
 8003284:	d02c      	beq.n	80032e0 <HAL_RCC_ClockConfig+0x158>
 8003286:	4a60      	ldr	r2, [pc, #384]	; (8003408 <HAL_RCC_ClockConfig+0x280>)
 8003288:	6812      	ldr	r2, [r2, #0]
 800328a:	f012 0f04 	tst.w	r2, #4
 800328e:	d106      	bne.n	800329e <HAL_RCC_ClockConfig+0x116>
 8003290:	2001      	movs	r0, #1
 8003292:	e0ad      	b.n	80033f0 <HAL_RCC_ClockConfig+0x268>
 8003294:	6812      	ldr	r2, [r2, #0]
 8003296:	f412 3f00 	tst.w	r2, #131072	; 0x20000
 800329a:	f000 80ae 	beq.w	80033fa <HAL_RCC_ClockConfig+0x272>
 800329e:	495a      	ldr	r1, [pc, #360]	; (8003408 <HAL_RCC_ClockConfig+0x280>)
 80032a0:	690a      	ldr	r2, [r1, #16]
 80032a2:	f022 0207 	bic.w	r2, r2, #7
 80032a6:	4313      	orrs	r3, r2
 80032a8:	610b      	str	r3, [r1, #16]
 80032aa:	f7fe f87b 	bl	80013a4 <HAL_GetTick>
 80032ae:	4606      	mov	r6, r0
 80032b0:	4b55      	ldr	r3, [pc, #340]	; (8003408 <HAL_RCC_ClockConfig+0x280>)
 80032b2:	691b      	ldr	r3, [r3, #16]
 80032b4:	f003 0338 	and.w	r3, r3, #56	; 0x38
 80032b8:	6862      	ldr	r2, [r4, #4]
 80032ba:	ebb3 0fc2 	cmp.w	r3, r2, lsl #3
 80032be:	d016      	beq.n	80032ee <HAL_RCC_ClockConfig+0x166>
 80032c0:	f7fe f870 	bl	80013a4 <HAL_GetTick>
 80032c4:	1b80      	subs	r0, r0, r6
 80032c6:	f241 3388 	movw	r3, #5000	; 0x1388
 80032ca:	4298      	cmp	r0, r3
 80032cc:	d9f0      	bls.n	80032b0 <HAL_RCC_ClockConfig+0x128>
 80032ce:	2003      	movs	r0, #3
 80032d0:	e08e      	b.n	80033f0 <HAL_RCC_ClockConfig+0x268>
 80032d2:	4a4d      	ldr	r2, [pc, #308]	; (8003408 <HAL_RCC_ClockConfig+0x280>)
 80032d4:	6812      	ldr	r2, [r2, #0]
 80032d6:	f012 7f00 	tst.w	r2, #33554432	; 0x2000000
 80032da:	d1e0      	bne.n	800329e <HAL_RCC_ClockConfig+0x116>
 80032dc:	2001      	movs	r0, #1
 80032de:	e087      	b.n	80033f0 <HAL_RCC_ClockConfig+0x268>
 80032e0:	4a49      	ldr	r2, [pc, #292]	; (8003408 <HAL_RCC_ClockConfig+0x280>)
 80032e2:	6812      	ldr	r2, [r2, #0]
 80032e4:	f412 7f80 	tst.w	r2, #256	; 0x100
 80032e8:	d1d9      	bne.n	800329e <HAL_RCC_ClockConfig+0x116>
 80032ea:	2001      	movs	r0, #1
 80032ec:	e080      	b.n	80033f0 <HAL_RCC_ClockConfig+0x268>
 80032ee:	6823      	ldr	r3, [r4, #0]
 80032f0:	f013 0f02 	tst.w	r3, #2
 80032f4:	d00c      	beq.n	8003310 <HAL_RCC_ClockConfig+0x188>
 80032f6:	68e2      	ldr	r2, [r4, #12]
 80032f8:	4b43      	ldr	r3, [pc, #268]	; (8003408 <HAL_RCC_ClockConfig+0x280>)
 80032fa:	699b      	ldr	r3, [r3, #24]
 80032fc:	f003 030f 	and.w	r3, r3, #15
 8003300:	429a      	cmp	r2, r3
 8003302:	d205      	bcs.n	8003310 <HAL_RCC_ClockConfig+0x188>
 8003304:	4940      	ldr	r1, [pc, #256]	; (8003408 <HAL_RCC_ClockConfig+0x280>)
 8003306:	698b      	ldr	r3, [r1, #24]
 8003308:	f023 030f 	bic.w	r3, r3, #15
 800330c:	431a      	orrs	r2, r3
 800330e:	618a      	str	r2, [r1, #24]
 8003310:	4b3c      	ldr	r3, [pc, #240]	; (8003404 <HAL_RCC_ClockConfig+0x27c>)
 8003312:	681b      	ldr	r3, [r3, #0]
 8003314:	f003 030f 	and.w	r3, r3, #15
 8003318:	42ab      	cmp	r3, r5
 800331a:	d90a      	bls.n	8003332 <HAL_RCC_ClockConfig+0x1aa>
 800331c:	4a39      	ldr	r2, [pc, #228]	; (8003404 <HAL_RCC_ClockConfig+0x27c>)
 800331e:	6813      	ldr	r3, [r2, #0]
 8003320:	f023 030f 	bic.w	r3, r3, #15
 8003324:	432b      	orrs	r3, r5
 8003326:	6013      	str	r3, [r2, #0]
 8003328:	6813      	ldr	r3, [r2, #0]
 800332a:	f003 030f 	and.w	r3, r3, #15
 800332e:	42ab      	cmp	r3, r5
 8003330:	d165      	bne.n	80033fe <HAL_RCC_ClockConfig+0x276>
 8003332:	6823      	ldr	r3, [r4, #0]
 8003334:	f013 0f04 	tst.w	r3, #4
 8003338:	d00c      	beq.n	8003354 <HAL_RCC_ClockConfig+0x1cc>
 800333a:	6922      	ldr	r2, [r4, #16]
 800333c:	4b32      	ldr	r3, [pc, #200]	; (8003408 <HAL_RCC_ClockConfig+0x280>)
 800333e:	699b      	ldr	r3, [r3, #24]
 8003340:	f003 0370 	and.w	r3, r3, #112	; 0x70
 8003344:	429a      	cmp	r2, r3
 8003346:	d205      	bcs.n	8003354 <HAL_RCC_ClockConfig+0x1cc>
 8003348:	492f      	ldr	r1, [pc, #188]	; (8003408 <HAL_RCC_ClockConfig+0x280>)
 800334a:	698b      	ldr	r3, [r1, #24]
 800334c:	f023 0370 	bic.w	r3, r3, #112	; 0x70
 8003350:	431a      	orrs	r2, r3
 8003352:	618a      	str	r2, [r1, #24]
 8003354:	6823      	ldr	r3, [r4, #0]
 8003356:	f013 0f08 	tst.w	r3, #8
 800335a:	d00c      	beq.n	8003376 <HAL_RCC_ClockConfig+0x1ee>
 800335c:	6962      	ldr	r2, [r4, #20]
 800335e:	4b2a      	ldr	r3, [pc, #168]	; (8003408 <HAL_RCC_ClockConfig+0x280>)
 8003360:	69db      	ldr	r3, [r3, #28]
 8003362:	f003 0370 	and.w	r3, r3, #112	; 0x70
 8003366:	429a      	cmp	r2, r3
 8003368:	d205      	bcs.n	8003376 <HAL_RCC_ClockConfig+0x1ee>
 800336a:	4927      	ldr	r1, [pc, #156]	; (8003408 <HAL_RCC_ClockConfig+0x280>)
 800336c:	69cb      	ldr	r3, [r1, #28]
 800336e:	f023 0370 	bic.w	r3, r3, #112	; 0x70
 8003372:	431a      	orrs	r2, r3
 8003374:	61ca      	str	r2, [r1, #28]
 8003376:	6823      	ldr	r3, [r4, #0]
 8003378:	f013 0f10 	tst.w	r3, #16
 800337c:	d00c      	beq.n	8003398 <HAL_RCC_ClockConfig+0x210>
 800337e:	69a2      	ldr	r2, [r4, #24]
 8003380:	4b21      	ldr	r3, [pc, #132]	; (8003408 <HAL_RCC_ClockConfig+0x280>)
 8003382:	69db      	ldr	r3, [r3, #28]
 8003384:	f403 63e0 	and.w	r3, r3, #1792	; 0x700
 8003388:	429a      	cmp	r2, r3
 800338a:	d205      	bcs.n	8003398 <HAL_RCC_ClockConfig+0x210>
 800338c:	491e      	ldr	r1, [pc, #120]	; (8003408 <HAL_RCC_ClockConfig+0x280>)
 800338e:	69cb      	ldr	r3, [r1, #28]
 8003390:	f423 63e0 	bic.w	r3, r3, #1792	; 0x700
 8003394:	431a      	orrs	r2, r3
 8003396:	61ca      	str	r2, [r1, #28]
 8003398:	6823      	ldr	r3, [r4, #0]
 800339a:	f013 0f20 	tst.w	r3, #32
 800339e:	d00c      	beq.n	80033ba <HAL_RCC_ClockConfig+0x232>
 80033a0:	69e2      	ldr	r2, [r4, #28]
 80033a2:	4b19      	ldr	r3, [pc, #100]	; (8003408 <HAL_RCC_ClockConfig+0x280>)
 80033a4:	6a1b      	ldr	r3, [r3, #32]
 80033a6:	f003 0370 	and.w	r3, r3, #112	; 0x70
 80033aa:	429a      	cmp	r2, r3
 80033ac:	d205      	bcs.n	80033ba <HAL_RCC_ClockConfig+0x232>
 80033ae:	4916      	ldr	r1, [pc, #88]	; (8003408 <HAL_RCC_ClockConfig+0x280>)
 80033b0:	6a0b      	ldr	r3, [r1, #32]
 80033b2:	f023 0370 	bic.w	r3, r3, #112	; 0x70
 80033b6:	431a      	orrs	r2, r3
 80033b8:	620a      	str	r2, [r1, #32]
 80033ba:	f7ff fdeb 	bl	8002f94 <HAL_RCC_GetSysClockFreq>
 80033be:	4912      	ldr	r1, [pc, #72]	; (8003408 <HAL_RCC_ClockConfig+0x280>)
 80033c0:	698b      	ldr	r3, [r1, #24]
 80033c2:	f3c3 2303 	ubfx	r3, r3, #8, #4
 80033c6:	4a11      	ldr	r2, [pc, #68]	; (800340c <HAL_RCC_ClockConfig+0x284>)
 80033c8:	5cd3      	ldrb	r3, [r2, r3]
 80033ca:	f003 031f 	and.w	r3, r3, #31
 80033ce:	40d8      	lsrs	r0, r3
 80033d0:	698b      	ldr	r3, [r1, #24]
 80033d2:	f003 030f 	and.w	r3, r3, #15
 80033d6:	5cd3      	ldrb	r3, [r2, r3]
 80033d8:	f003 031f 	and.w	r3, r3, #31
 80033dc:	fa20 f303 	lsr.w	r3, r0, r3
 80033e0:	4a0b      	ldr	r2, [pc, #44]	; (8003410 <HAL_RCC_ClockConfig+0x288>)
 80033e2:	6013      	str	r3, [r2, #0]
 80033e4:	4b0b      	ldr	r3, [pc, #44]	; (8003414 <HAL_RCC_ClockConfig+0x28c>)
 80033e6:	6018      	str	r0, [r3, #0]
 80033e8:	4b0b      	ldr	r3, [pc, #44]	; (8003418 <HAL_RCC_ClockConfig+0x290>)
 80033ea:	6818      	ldr	r0, [r3, #0]
 80033ec:	f7fd ff78 	bl	80012e0 <HAL_InitTick>
 80033f0:	bd70      	pop	{r4, r5, r6, pc}
 80033f2:	2001      	movs	r0, #1
 80033f4:	4770      	bx	lr
 80033f6:	2001      	movs	r0, #1
 80033f8:	e7fa      	b.n	80033f0 <HAL_RCC_ClockConfig+0x268>
 80033fa:	2001      	movs	r0, #1
 80033fc:	e7f8      	b.n	80033f0 <HAL_RCC_ClockConfig+0x268>
 80033fe:	2001      	movs	r0, #1
 8003400:	e7f6      	b.n	80033f0 <HAL_RCC_ClockConfig+0x268>
 8003402:	bf00      	nop
 8003404:	52002000 	.word	0x52002000
 8003408:	58024400 	.word	0x58024400
 800340c:	080050ac 	.word	0x080050ac
 8003410:	240040cc 	.word	0x240040cc
 8003414:	240040c8 	.word	0x240040c8
 8003418:	240040d4 	.word	0x240040d4

0800341c <HAL_RCC_GetHCLKFreq>:
 800341c:	b508      	push	{r3, lr}
 800341e:	f7ff fdb9 	bl	8002f94 <HAL_RCC_GetSysClockFreq>
 8003422:	4a0b      	ldr	r2, [pc, #44]	; (8003450 <HAL_RCC_GetHCLKFreq+0x34>)
 8003424:	6993      	ldr	r3, [r2, #24]
 8003426:	f3c3 2303 	ubfx	r3, r3, #8, #4
 800342a:	490a      	ldr	r1, [pc, #40]	; (8003454 <HAL_RCC_GetHCLKFreq+0x38>)
 800342c:	5ccb      	ldrb	r3, [r1, r3]
 800342e:	f003 031f 	and.w	r3, r3, #31
 8003432:	fa20 f303 	lsr.w	r3, r0, r3
 8003436:	6992      	ldr	r2, [r2, #24]
 8003438:	f002 020f 	and.w	r2, r2, #15
 800343c:	5c88      	ldrb	r0, [r1, r2]
 800343e:	f000 001f 	and.w	r0, r0, #31
 8003442:	fa23 f000 	lsr.w	r0, r3, r0
 8003446:	4a04      	ldr	r2, [pc, #16]	; (8003458 <HAL_RCC_GetHCLKFreq+0x3c>)
 8003448:	6010      	str	r0, [r2, #0]
 800344a:	4a04      	ldr	r2, [pc, #16]	; (800345c <HAL_RCC_GetHCLKFreq+0x40>)
 800344c:	6013      	str	r3, [r2, #0]
 800344e:	bd08      	pop	{r3, pc}
 8003450:	58024400 	.word	0x58024400
 8003454:	080050ac 	.word	0x080050ac
 8003458:	240040cc 	.word	0x240040cc
 800345c:	240040c8 	.word	0x240040c8

08003460 <RCCEx_PLL2_Config>:
 8003460:	4b40      	ldr	r3, [pc, #256]	; (8003564 <RCCEx_PLL2_Config+0x104>)
 8003462:	6a9b      	ldr	r3, [r3, #40]	; 0x28
 8003464:	f003 0303 	and.w	r3, r3, #3
 8003468:	2b03      	cmp	r3, #3
 800346a:	d079      	beq.n	8003560 <RCCEx_PLL2_Config+0x100>
 800346c:	b570      	push	{r4, r5, r6, lr}
 800346e:	4605      	mov	r5, r0
 8003470:	460e      	mov	r6, r1
 8003472:	4a3c      	ldr	r2, [pc, #240]	; (8003564 <RCCEx_PLL2_Config+0x104>)
 8003474:	6813      	ldr	r3, [r2, #0]
 8003476:	f023 6380 	bic.w	r3, r3, #67108864	; 0x4000000
 800347a:	6013      	str	r3, [r2, #0]
 800347c:	f7fd ff92 	bl	80013a4 <HAL_GetTick>
 8003480:	4604      	mov	r4, r0
 8003482:	4b38      	ldr	r3, [pc, #224]	; (8003564 <RCCEx_PLL2_Config+0x104>)
 8003484:	681b      	ldr	r3, [r3, #0]
 8003486:	f013 6f00 	tst.w	r3, #134217728	; 0x8000000
 800348a:	d006      	beq.n	800349a <RCCEx_PLL2_Config+0x3a>
 800348c:	f7fd ff8a 	bl	80013a4 <HAL_GetTick>
 8003490:	1b03      	subs	r3, r0, r4
 8003492:	2b02      	cmp	r3, #2
 8003494:	d9f5      	bls.n	8003482 <RCCEx_PLL2_Config+0x22>
 8003496:	2003      	movs	r0, #3
 8003498:	bd70      	pop	{r4, r5, r6, pc}
 800349a:	4b32      	ldr	r3, [pc, #200]	; (8003564 <RCCEx_PLL2_Config+0x104>)
 800349c:	6a9a      	ldr	r2, [r3, #40]	; 0x28
 800349e:	f422 327c 	bic.w	r2, r2, #258048	; 0x3f000
 80034a2:	6829      	ldr	r1, [r5, #0]
 80034a4:	ea42 3201 	orr.w	r2, r2, r1, lsl #12
 80034a8:	629a      	str	r2, [r3, #40]	; 0x28
 80034aa:	686a      	ldr	r2, [r5, #4]
 80034ac:	3a01      	subs	r2, #1
 80034ae:	f3c2 0208 	ubfx	r2, r2, #0, #9
 80034b2:	68a9      	ldr	r1, [r5, #8]
 80034b4:	3901      	subs	r1, #1
 80034b6:	0249      	lsls	r1, r1, #9
 80034b8:	b289      	uxth	r1, r1
 80034ba:	430a      	orrs	r2, r1
 80034bc:	68e9      	ldr	r1, [r5, #12]
 80034be:	3901      	subs	r1, #1
 80034c0:	0409      	lsls	r1, r1, #16
 80034c2:	f401 01fe 	and.w	r1, r1, #8323072	; 0x7f0000
 80034c6:	430a      	orrs	r2, r1
 80034c8:	6929      	ldr	r1, [r5, #16]
 80034ca:	3901      	subs	r1, #1
 80034cc:	0609      	lsls	r1, r1, #24
 80034ce:	f001 41fe 	and.w	r1, r1, #2130706432	; 0x7f000000
 80034d2:	430a      	orrs	r2, r1
 80034d4:	639a      	str	r2, [r3, #56]	; 0x38
 80034d6:	6ada      	ldr	r2, [r3, #44]	; 0x2c
 80034d8:	f022 02c0 	bic.w	r2, r2, #192	; 0xc0
 80034dc:	6969      	ldr	r1, [r5, #20]
 80034de:	430a      	orrs	r2, r1
 80034e0:	62da      	str	r2, [r3, #44]	; 0x2c
 80034e2:	6ada      	ldr	r2, [r3, #44]	; 0x2c
 80034e4:	f022 0220 	bic.w	r2, r2, #32
 80034e8:	69a9      	ldr	r1, [r5, #24]
 80034ea:	430a      	orrs	r2, r1
 80034ec:	62da      	str	r2, [r3, #44]	; 0x2c
 80034ee:	6ada      	ldr	r2, [r3, #44]	; 0x2c
 80034f0:	f022 0210 	bic.w	r2, r2, #16
 80034f4:	62da      	str	r2, [r3, #44]	; 0x2c
 80034f6:	6bd9      	ldr	r1, [r3, #60]	; 0x3c
 80034f8:	4a1b      	ldr	r2, [pc, #108]	; (8003568 <RCCEx_PLL2_Config+0x108>)
 80034fa:	400a      	ands	r2, r1
 80034fc:	69e9      	ldr	r1, [r5, #28]
 80034fe:	ea42 02c1 	orr.w	r2, r2, r1, lsl #3
 8003502:	63da      	str	r2, [r3, #60]	; 0x3c
 8003504:	6ada      	ldr	r2, [r3, #44]	; 0x2c
 8003506:	f042 0210 	orr.w	r2, r2, #16
 800350a:	62da      	str	r2, [r3, #44]	; 0x2c
 800350c:	b9c6      	cbnz	r6, 8003540 <RCCEx_PLL2_Config+0xe0>
 800350e:	461a      	mov	r2, r3
 8003510:	6adb      	ldr	r3, [r3, #44]	; 0x2c
 8003512:	f443 2300 	orr.w	r3, r3, #524288	; 0x80000
 8003516:	62d3      	str	r3, [r2, #44]	; 0x2c
 8003518:	4a12      	ldr	r2, [pc, #72]	; (8003564 <RCCEx_PLL2_Config+0x104>)
 800351a:	6813      	ldr	r3, [r2, #0]
 800351c:	f043 6380 	orr.w	r3, r3, #67108864	; 0x4000000
 8003520:	6013      	str	r3, [r2, #0]
 8003522:	f7fd ff3f 	bl	80013a4 <HAL_GetTick>
 8003526:	4604      	mov	r4, r0
 8003528:	4b0e      	ldr	r3, [pc, #56]	; (8003564 <RCCEx_PLL2_Config+0x104>)
 800352a:	681b      	ldr	r3, [r3, #0]
 800352c:	f013 6f00 	tst.w	r3, #134217728	; 0x8000000
 8003530:	d114      	bne.n	800355c <RCCEx_PLL2_Config+0xfc>
 8003532:	f7fd ff37 	bl	80013a4 <HAL_GetTick>
 8003536:	1b00      	subs	r0, r0, r4
 8003538:	2802      	cmp	r0, #2
 800353a:	d9f5      	bls.n	8003528 <RCCEx_PLL2_Config+0xc8>
 800353c:	2003      	movs	r0, #3
 800353e:	e7ab      	b.n	8003498 <RCCEx_PLL2_Config+0x38>
 8003540:	2e01      	cmp	r6, #1
 8003542:	d005      	beq.n	8003550 <RCCEx_PLL2_Config+0xf0>
 8003544:	4a07      	ldr	r2, [pc, #28]	; (8003564 <RCCEx_PLL2_Config+0x104>)
 8003546:	6ad3      	ldr	r3, [r2, #44]	; 0x2c
 8003548:	f443 1300 	orr.w	r3, r3, #2097152	; 0x200000
 800354c:	62d3      	str	r3, [r2, #44]	; 0x2c
 800354e:	e7e3      	b.n	8003518 <RCCEx_PLL2_Config+0xb8>
 8003550:	4a04      	ldr	r2, [pc, #16]	; (8003564 <RCCEx_PLL2_Config+0x104>)
 8003552:	6ad3      	ldr	r3, [r2, #44]	; 0x2c
 8003554:	f443 1380 	orr.w	r3, r3, #1048576	; 0x100000
 8003558:	62d3      	str	r3, [r2, #44]	; 0x2c
 800355a:	e7dd      	b.n	8003518 <RCCEx_PLL2_Config+0xb8>
 800355c:	2000      	movs	r0, #0
 800355e:	e79b      	b.n	8003498 <RCCEx_PLL2_Config+0x38>
 8003560:	2001      	movs	r0, #1
 8003562:	4770      	bx	lr
 8003564:	58024400 	.word	0x58024400
 8003568:	ffff0007 	.word	0xffff0007

0800356c <RCCEx_PLL3_Config>:
 800356c:	4b40      	ldr	r3, [pc, #256]	; (8003670 <RCCEx_PLL3_Config+0x104>)
 800356e:	6a9b      	ldr	r3, [r3, #40]	; 0x28
 8003570:	f003 0303 	and.w	r3, r3, #3
 8003574:	2b03      	cmp	r3, #3
 8003576:	d079      	beq.n	800366c <RCCEx_PLL3_Config+0x100>
 8003578:	b570      	push	{r4, r5, r6, lr}
 800357a:	4605      	mov	r5, r0
 800357c:	460e      	mov	r6, r1
 800357e:	4a3c      	ldr	r2, [pc, #240]	; (8003670 <RCCEx_PLL3_Config+0x104>)
 8003580:	6813      	ldr	r3, [r2, #0]
 8003582:	f023 5380 	bic.w	r3, r3, #268435456	; 0x10000000
 8003586:	6013      	str	r3, [r2, #0]
 8003588:	f7fd ff0c 	bl	80013a4 <HAL_GetTick>
 800358c:	4604      	mov	r4, r0
 800358e:	4b38      	ldr	r3, [pc, #224]	; (8003670 <RCCEx_PLL3_Config+0x104>)
 8003590:	681b      	ldr	r3, [r3, #0]
 8003592:	f013 5f00 	tst.w	r3, #536870912	; 0x20000000
 8003596:	d006      	beq.n	80035a6 <RCCEx_PLL3_Config+0x3a>
 8003598:	f7fd ff04 	bl	80013a4 <HAL_GetTick>
 800359c:	1b03      	subs	r3, r0, r4
 800359e:	2b02      	cmp	r3, #2
 80035a0:	d9f5      	bls.n	800358e <RCCEx_PLL3_Config+0x22>
 80035a2:	2003      	movs	r0, #3
 80035a4:	bd70      	pop	{r4, r5, r6, pc}
 80035a6:	4b32      	ldr	r3, [pc, #200]	; (8003670 <RCCEx_PLL3_Config+0x104>)
 80035a8:	6a9a      	ldr	r2, [r3, #40]	; 0x28
 80035aa:	f022 727c 	bic.w	r2, r2, #66060288	; 0x3f00000
 80035ae:	6829      	ldr	r1, [r5, #0]
 80035b0:	ea42 5201 	orr.w	r2, r2, r1, lsl #20
 80035b4:	629a      	str	r2, [r3, #40]	; 0x28
 80035b6:	686a      	ldr	r2, [r5, #4]
 80035b8:	3a01      	subs	r2, #1
 80035ba:	f3c2 0208 	ubfx	r2, r2, #0, #9
 80035be:	68a9      	ldr	r1, [r5, #8]
 80035c0:	3901      	subs	r1, #1
 80035c2:	0249      	lsls	r1, r1, #9
 80035c4:	b289      	uxth	r1, r1
 80035c6:	430a      	orrs	r2, r1
 80035c8:	68e9      	ldr	r1, [r5, #12]
 80035ca:	3901      	subs	r1, #1
 80035cc:	0409      	lsls	r1, r1, #16
 80035ce:	f401 01fe 	and.w	r1, r1, #8323072	; 0x7f0000
 80035d2:	430a      	orrs	r2, r1
 80035d4:	6929      	ldr	r1, [r5, #16]
 80035d6:	3901      	subs	r1, #1
 80035d8:	0609      	lsls	r1, r1, #24
 80035da:	f001 41fe 	and.w	r1, r1, #2130706432	; 0x7f000000
 80035de:	430a      	orrs	r2, r1
 80035e0:	641a      	str	r2, [r3, #64]	; 0x40
 80035e2:	6ada      	ldr	r2, [r3, #44]	; 0x2c
 80035e4:	f422 6240 	bic.w	r2, r2, #3072	; 0xc00
 80035e8:	6969      	ldr	r1, [r5, #20]
 80035ea:	430a      	orrs	r2, r1
 80035ec:	62da      	str	r2, [r3, #44]	; 0x2c
 80035ee:	6ada      	ldr	r2, [r3, #44]	; 0x2c
 80035f0:	f422 7200 	bic.w	r2, r2, #512	; 0x200
 80035f4:	69a9      	ldr	r1, [r5, #24]
 80035f6:	430a      	orrs	r2, r1
 80035f8:	62da      	str	r2, [r3, #44]	; 0x2c
 80035fa:	6ada      	ldr	r2, [r3, #44]	; 0x2c
 80035fc:	f422 7280 	bic.w	r2, r2, #256	; 0x100
 8003600:	62da      	str	r2, [r3, #44]	; 0x2c
 8003602:	6c59      	ldr	r1, [r3, #68]	; 0x44
 8003604:	4a1b      	ldr	r2, [pc, #108]	; (8003674 <RCCEx_PLL3_Config+0x108>)
 8003606:	400a      	ands	r2, r1
 8003608:	69e9      	ldr	r1, [r5, #28]
 800360a:	ea42 02c1 	orr.w	r2, r2, r1, lsl #3
 800360e:	645a      	str	r2, [r3, #68]	; 0x44
 8003610:	6ada      	ldr	r2, [r3, #44]	; 0x2c
 8003612:	f442 7280 	orr.w	r2, r2, #256	; 0x100
 8003616:	62da      	str	r2, [r3, #44]	; 0x2c
 8003618:	b9c6      	cbnz	r6, 800364c <RCCEx_PLL3_Config+0xe0>
 800361a:	461a      	mov	r2, r3
 800361c:	6adb      	ldr	r3, [r3, #44]	; 0x2c
 800361e:	f443 0380 	orr.w	r3, r3, #4194304	; 0x400000
 8003622:	62d3      	str	r3, [r2, #44]	; 0x2c
 8003624:	4a12      	ldr	r2, [pc, #72]	; (8003670 <RCCEx_PLL3_Config+0x104>)
 8003626:	6813      	ldr	r3, [r2, #0]
 8003628:	f043 5380 	orr.w	r3, r3, #268435456	; 0x10000000
 800362c:	6013      	str	r3, [r2, #0]
 800362e:	f7fd feb9 	bl	80013a4 <HAL_GetTick>
 8003632:	4604      	mov	r4, r0
 8003634:	4b0e      	ldr	r3, [pc, #56]	; (8003670 <RCCEx_PLL3_Config+0x104>)
 8003636:	681b      	ldr	r3, [r3, #0]
 8003638:	f013 5f00 	tst.w	r3, #536870912	; 0x20000000
 800363c:	d114      	bne.n	8003668 <RCCEx_PLL3_Config+0xfc>
 800363e:	f7fd feb1 	bl	80013a4 <HAL_GetTick>
 8003642:	1b00      	subs	r0, r0, r4
 8003644:	2802      	cmp	r0, #2
 8003646:	d9f5      	bls.n	8003634 <RCCEx_PLL3_Config+0xc8>
 8003648:	2003      	movs	r0, #3
 800364a:	e7ab      	b.n	80035a4 <RCCEx_PLL3_Config+0x38>
 800364c:	2e01      	cmp	r6, #1
 800364e:	d005      	beq.n	800365c <RCCEx_PLL3_Config+0xf0>
 8003650:	4a07      	ldr	r2, [pc, #28]	; (8003670 <RCCEx_PLL3_Config+0x104>)
 8003652:	6ad3      	ldr	r3, [r2, #44]	; 0x2c
 8003654:	f043 7380 	orr.w	r3, r3, #16777216	; 0x1000000
 8003658:	62d3      	str	r3, [r2, #44]	; 0x2c
 800365a:	e7e3      	b.n	8003624 <RCCEx_PLL3_Config+0xb8>
 800365c:	4a04      	ldr	r2, [pc, #16]	; (8003670 <RCCEx_PLL3_Config+0x104>)
 800365e:	6ad3      	ldr	r3, [r2, #44]	; 0x2c
 8003660:	f443 0300 	orr.w	r3, r3, #8388608	; 0x800000
 8003664:	62d3      	str	r3, [r2, #44]	; 0x2c
 8003666:	e7dd      	b.n	8003624 <RCCEx_PLL3_Config+0xb8>
 8003668:	2000      	movs	r0, #0
 800366a:	e79b      	b.n	80035a4 <RCCEx_PLL3_Config+0x38>
 800366c:	2001      	movs	r0, #1
 800366e:	4770      	bx	lr
 8003670:	58024400 	.word	0x58024400
 8003674:	ffff0007 	.word	0xffff0007

08003678 <HAL_RCCEx_PeriphCLKConfig>:
 8003678:	b5f8      	push	{r3, r4, r5, r6, r7, lr}
 800367a:	4604      	mov	r4, r0
 800367c:	6803      	ldr	r3, [r0, #0]
 800367e:	f013 6f00 	tst.w	r3, #134217728	; 0x8000000
 8003682:	d030      	beq.n	80036e6 <HAL_RCCEx_PeriphCLKConfig+0x6e>
 8003684:	6e43      	ldr	r3, [r0, #100]	; 0x64
 8003686:	f5b3 1f00 	cmp.w	r3, #2097152	; 0x200000
 800368a:	d026      	beq.n	80036da <HAL_RCCEx_PeriphCLKConfig+0x62>
 800368c:	d80e      	bhi.n	80036ac <HAL_RCCEx_PeriphCLKConfig+0x34>
 800368e:	b1eb      	cbz	r3, 80036cc <HAL_RCCEx_PeriphCLKConfig+0x54>
 8003690:	f5b3 1f80 	cmp.w	r3, #1048576	; 0x100000
 8003694:	d107      	bne.n	80036a6 <HAL_RCCEx_PeriphCLKConfig+0x2e>
 8003696:	2102      	movs	r1, #2
 8003698:	3004      	adds	r0, #4
 800369a:	f7ff fee1 	bl	8003460 <RCCEx_PLL2_Config>
 800369e:	4605      	mov	r5, r0
 80036a0:	b145      	cbz	r5, 80036b4 <HAL_RCCEx_PeriphCLKConfig+0x3c>
 80036a2:	462e      	mov	r6, r5
 80036a4:	e021      	b.n	80036ea <HAL_RCCEx_PeriphCLKConfig+0x72>
 80036a6:	2601      	movs	r6, #1
 80036a8:	4635      	mov	r5, r6
 80036aa:	e01e      	b.n	80036ea <HAL_RCCEx_PeriphCLKConfig+0x72>
 80036ac:	f5b3 1f40 	cmp.w	r3, #3145728	; 0x300000
 80036b0:	d109      	bne.n	80036c6 <HAL_RCCEx_PeriphCLKConfig+0x4e>
 80036b2:	2500      	movs	r5, #0
 80036b4:	4a96      	ldr	r2, [pc, #600]	; (8003910 <HAL_RCCEx_PeriphCLKConfig+0x298>)
 80036b6:	6d13      	ldr	r3, [r2, #80]	; 0x50
 80036b8:	f423 1340 	bic.w	r3, r3, #3145728	; 0x300000
 80036bc:	6e61      	ldr	r1, [r4, #100]	; 0x64
 80036be:	430b      	orrs	r3, r1
 80036c0:	6513      	str	r3, [r2, #80]	; 0x50
 80036c2:	2600      	movs	r6, #0
 80036c4:	e011      	b.n	80036ea <HAL_RCCEx_PeriphCLKConfig+0x72>
 80036c6:	2601      	movs	r6, #1
 80036c8:	4635      	mov	r5, r6
 80036ca:	e00e      	b.n	80036ea <HAL_RCCEx_PeriphCLKConfig+0x72>
 80036cc:	4a90      	ldr	r2, [pc, #576]	; (8003910 <HAL_RCCEx_PeriphCLKConfig+0x298>)
 80036ce:	6ad3      	ldr	r3, [r2, #44]	; 0x2c
 80036d0:	f443 3300 	orr.w	r3, r3, #131072	; 0x20000
 80036d4:	62d3      	str	r3, [r2, #44]	; 0x2c
 80036d6:	2500      	movs	r5, #0
 80036d8:	e7ec      	b.n	80036b4 <HAL_RCCEx_PeriphCLKConfig+0x3c>
 80036da:	2102      	movs	r1, #2
 80036dc:	3024      	adds	r0, #36	; 0x24
 80036de:	f7ff ff45 	bl	800356c <RCCEx_PLL3_Config>
 80036e2:	4605      	mov	r5, r0
 80036e4:	e7dc      	b.n	80036a0 <HAL_RCCEx_PeriphCLKConfig+0x28>
 80036e6:	2600      	movs	r6, #0
 80036e8:	4635      	mov	r5, r6
 80036ea:	6823      	ldr	r3, [r4, #0]
 80036ec:	f413 7f80 	tst.w	r3, #256	; 0x100
 80036f0:	d014      	beq.n	800371c <HAL_RCCEx_PeriphCLKConfig+0xa4>
 80036f2:	6d63      	ldr	r3, [r4, #84]	; 0x54
 80036f4:	2b04      	cmp	r3, #4
 80036f6:	d830      	bhi.n	800375a <HAL_RCCEx_PeriphCLKConfig+0xe2>
 80036f8:	e8df f003 	tbb	[pc, r3]
 80036fc:	08282203 	.word	0x08282203
 8003700:	08          	.byte	0x08
 8003701:	00          	.byte	0x00
 8003702:	4a83      	ldr	r2, [pc, #524]	; (8003910 <HAL_RCCEx_PeriphCLKConfig+0x298>)
 8003704:	6ad3      	ldr	r3, [r2, #44]	; 0x2c
 8003706:	f443 3300 	orr.w	r3, r3, #131072	; 0x20000
 800370a:	62d3      	str	r3, [r2, #44]	; 0x2c
 800370c:	bb45      	cbnz	r5, 8003760 <HAL_RCCEx_PeriphCLKConfig+0xe8>
 800370e:	4a80      	ldr	r2, [pc, #512]	; (8003910 <HAL_RCCEx_PeriphCLKConfig+0x298>)
 8003710:	6d13      	ldr	r3, [r2, #80]	; 0x50
 8003712:	f023 0307 	bic.w	r3, r3, #7
 8003716:	6d61      	ldr	r1, [r4, #84]	; 0x54
 8003718:	430b      	orrs	r3, r1
 800371a:	6513      	str	r3, [r2, #80]	; 0x50
 800371c:	6823      	ldr	r3, [r4, #0]
 800371e:	f413 7f00 	tst.w	r3, #512	; 0x200
 8003722:	d02f      	beq.n	8003784 <HAL_RCCEx_PeriphCLKConfig+0x10c>
 8003724:	6da3      	ldr	r3, [r4, #88]	; 0x58
 8003726:	2b80      	cmp	r3, #128	; 0x80
 8003728:	d04a      	beq.n	80037c0 <HAL_RCCEx_PeriphCLKConfig+0x148>
 800372a:	d81e      	bhi.n	800376a <HAL_RCCEx_PeriphCLKConfig+0xf2>
 800372c:	2b00      	cmp	r3, #0
 800372e:	d041      	beq.n	80037b4 <HAL_RCCEx_PeriphCLKConfig+0x13c>
 8003730:	2b40      	cmp	r3, #64	; 0x40
 8003732:	d117      	bne.n	8003764 <HAL_RCCEx_PeriphCLKConfig+0xec>
 8003734:	2100      	movs	r1, #0
 8003736:	1d20      	adds	r0, r4, #4
 8003738:	f7ff fe92 	bl	8003460 <RCCEx_PLL2_Config>
 800373c:	4605      	mov	r5, r0
 800373e:	e019      	b.n	8003774 <HAL_RCCEx_PeriphCLKConfig+0xfc>
 8003740:	2100      	movs	r1, #0
 8003742:	1d20      	adds	r0, r4, #4
 8003744:	f7ff fe8c 	bl	8003460 <RCCEx_PLL2_Config>
 8003748:	4605      	mov	r5, r0
 800374a:	e7df      	b.n	800370c <HAL_RCCEx_PeriphCLKConfig+0x94>
 800374c:	2100      	movs	r1, #0
 800374e:	f104 0024 	add.w	r0, r4, #36	; 0x24
 8003752:	f7ff ff0b 	bl	800356c <RCCEx_PLL3_Config>
 8003756:	4605      	mov	r5, r0
 8003758:	e7d8      	b.n	800370c <HAL_RCCEx_PeriphCLKConfig+0x94>
 800375a:	2601      	movs	r6, #1
 800375c:	4635      	mov	r5, r6
 800375e:	e7dd      	b.n	800371c <HAL_RCCEx_PeriphCLKConfig+0xa4>
 8003760:	462e      	mov	r6, r5
 8003762:	e7db      	b.n	800371c <HAL_RCCEx_PeriphCLKConfig+0xa4>
 8003764:	2601      	movs	r6, #1
 8003766:	4635      	mov	r5, r6
 8003768:	e00c      	b.n	8003784 <HAL_RCCEx_PeriphCLKConfig+0x10c>
 800376a:	2bc0      	cmp	r3, #192	; 0xc0
 800376c:	d002      	beq.n	8003774 <HAL_RCCEx_PeriphCLKConfig+0xfc>
 800376e:	f5b3 7f80 	cmp.w	r3, #256	; 0x100
 8003772:	d11c      	bne.n	80037ae <HAL_RCCEx_PeriphCLKConfig+0x136>
 8003774:	bb5d      	cbnz	r5, 80037ce <HAL_RCCEx_PeriphCLKConfig+0x156>
 8003776:	4a66      	ldr	r2, [pc, #408]	; (8003910 <HAL_RCCEx_PeriphCLKConfig+0x298>)
 8003778:	6d13      	ldr	r3, [r2, #80]	; 0x50
 800377a:	f423 73e0 	bic.w	r3, r3, #448	; 0x1c0
 800377e:	6da1      	ldr	r1, [r4, #88]	; 0x58
 8003780:	430b      	orrs	r3, r1
 8003782:	6513      	str	r3, [r2, #80]	; 0x50
 8003784:	6823      	ldr	r3, [r4, #0]
 8003786:	f413 6f80 	tst.w	r3, #1024	; 0x400
 800378a:	d034      	beq.n	80037f6 <HAL_RCCEx_PeriphCLKConfig+0x17e>
 800378c:	f8d4 30a4 	ldr.w	r3, [r4, #164]	; 0xa4
 8003790:	f5b3 0f80 	cmp.w	r3, #4194304	; 0x400000
 8003794:	d04d      	beq.n	8003832 <HAL_RCCEx_PeriphCLKConfig+0x1ba>
 8003796:	d81f      	bhi.n	80037d8 <HAL_RCCEx_PeriphCLKConfig+0x160>
 8003798:	2b00      	cmp	r3, #0
 800379a:	d044      	beq.n	8003826 <HAL_RCCEx_PeriphCLKConfig+0x1ae>
 800379c:	f5b3 1f00 	cmp.w	r3, #2097152	; 0x200000
 80037a0:	d117      	bne.n	80037d2 <HAL_RCCEx_PeriphCLKConfig+0x15a>
 80037a2:	2100      	movs	r1, #0
 80037a4:	1d20      	adds	r0, r4, #4
 80037a6:	f7ff fe5b 	bl	8003460 <RCCEx_PLL2_Config>
 80037aa:	4605      	mov	r5, r0
 80037ac:	e01a      	b.n	80037e4 <HAL_RCCEx_PeriphCLKConfig+0x16c>
 80037ae:	2601      	movs	r6, #1
 80037b0:	4635      	mov	r5, r6
 80037b2:	e7e7      	b.n	8003784 <HAL_RCCEx_PeriphCLKConfig+0x10c>
 80037b4:	4a56      	ldr	r2, [pc, #344]	; (8003910 <HAL_RCCEx_PeriphCLKConfig+0x298>)
 80037b6:	6ad3      	ldr	r3, [r2, #44]	; 0x2c
 80037b8:	f443 3300 	orr.w	r3, r3, #131072	; 0x20000
 80037bc:	62d3      	str	r3, [r2, #44]	; 0x2c
 80037be:	e7d9      	b.n	8003774 <HAL_RCCEx_PeriphCLKConfig+0xfc>
 80037c0:	2100      	movs	r1, #0
 80037c2:	f104 0024 	add.w	r0, r4, #36	; 0x24
 80037c6:	f7ff fed1 	bl	800356c <RCCEx_PLL3_Config>
 80037ca:	4605      	mov	r5, r0
 80037cc:	e7d2      	b.n	8003774 <HAL_RCCEx_PeriphCLKConfig+0xfc>
 80037ce:	462e      	mov	r6, r5
 80037d0:	e7d8      	b.n	8003784 <HAL_RCCEx_PeriphCLKConfig+0x10c>
 80037d2:	2601      	movs	r6, #1
 80037d4:	4635      	mov	r5, r6
 80037d6:	e00e      	b.n	80037f6 <HAL_RCCEx_PeriphCLKConfig+0x17e>
 80037d8:	f5b3 0fc0 	cmp.w	r3, #6291456	; 0x600000
 80037dc:	d002      	beq.n	80037e4 <HAL_RCCEx_PeriphCLKConfig+0x16c>
 80037de:	f5b3 0f00 	cmp.w	r3, #8388608	; 0x800000
 80037e2:	d11d      	bne.n	8003820 <HAL_RCCEx_PeriphCLKConfig+0x1a8>
 80037e4:	bb65      	cbnz	r5, 8003840 <HAL_RCCEx_PeriphCLKConfig+0x1c8>
 80037e6:	4a4a      	ldr	r2, [pc, #296]	; (8003910 <HAL_RCCEx_PeriphCLKConfig+0x298>)
 80037e8:	6d93      	ldr	r3, [r2, #88]	; 0x58
 80037ea:	f423 0360 	bic.w	r3, r3, #14680064	; 0xe00000
 80037ee:	f8d4 10a4 	ldr.w	r1, [r4, #164]	; 0xa4
 80037f2:	430b      	orrs	r3, r1
 80037f4:	6593      	str	r3, [r2, #88]	; 0x58
 80037f6:	6823      	ldr	r3, [r4, #0]
 80037f8:	f413 6f00 	tst.w	r3, #2048	; 0x800
 80037fc:	d035      	beq.n	800386a <HAL_RCCEx_PeriphCLKConfig+0x1f2>
 80037fe:	f8d4 30a8 	ldr.w	r3, [r4, #168]	; 0xa8
 8003802:	f1b3 7f00 	cmp.w	r3, #33554432	; 0x2000000
 8003806:	d053      	beq.n	80038b0 <HAL_RCCEx_PeriphCLKConfig+0x238>
 8003808:	d81f      	bhi.n	800384a <HAL_RCCEx_PeriphCLKConfig+0x1d2>
 800380a:	2b00      	cmp	r3, #0
 800380c:	d04a      	beq.n	80038a4 <HAL_RCCEx_PeriphCLKConfig+0x22c>
 800380e:	f1b3 7f80 	cmp.w	r3, #16777216	; 0x1000000
 8003812:	d117      	bne.n	8003844 <HAL_RCCEx_PeriphCLKConfig+0x1cc>
 8003814:	2100      	movs	r1, #0
 8003816:	1d20      	adds	r0, r4, #4
 8003818:	f7ff fe22 	bl	8003460 <RCCEx_PLL2_Config>
 800381c:	4605      	mov	r5, r0
 800381e:	e01a      	b.n	8003856 <HAL_RCCEx_PeriphCLKConfig+0x1de>
 8003820:	2601      	movs	r6, #1
 8003822:	4635      	mov	r5, r6
 8003824:	e7e7      	b.n	80037f6 <HAL_RCCEx_PeriphCLKConfig+0x17e>
 8003826:	4a3a      	ldr	r2, [pc, #232]	; (8003910 <HAL_RCCEx_PeriphCLKConfig+0x298>)
 8003828:	6ad3      	ldr	r3, [r2, #44]	; 0x2c
 800382a:	f443 3300 	orr.w	r3, r3, #131072	; 0x20000
 800382e:	62d3      	str	r3, [r2, #44]	; 0x2c
 8003830:	e7d8      	b.n	80037e4 <HAL_RCCEx_PeriphCLKConfig+0x16c>
 8003832:	2100      	movs	r1, #0
 8003834:	f104 0024 	add.w	r0, r4, #36	; 0x24
 8003838:	f7ff fe98 	bl	800356c <RCCEx_PLL3_Config>
 800383c:	4605      	mov	r5, r0
 800383e:	e7d1      	b.n	80037e4 <HAL_RCCEx_PeriphCLKConfig+0x16c>
 8003840:	462e      	mov	r6, r5
 8003842:	e7d8      	b.n	80037f6 <HAL_RCCEx_PeriphCLKConfig+0x17e>
 8003844:	2601      	movs	r6, #1
 8003846:	4635      	mov	r5, r6
 8003848:	e00f      	b.n	800386a <HAL_RCCEx_PeriphCLKConfig+0x1f2>
 800384a:	f1b3 7f40 	cmp.w	r3, #50331648	; 0x3000000
 800384e:	d002      	beq.n	8003856 <HAL_RCCEx_PeriphCLKConfig+0x1de>
 8003850:	f1b3 6f80 	cmp.w	r3, #67108864	; 0x4000000
 8003854:	d123      	bne.n	800389e <HAL_RCCEx_PeriphCLKConfig+0x226>
 8003856:	2d00      	cmp	r5, #0
 8003858:	d131      	bne.n	80038be <HAL_RCCEx_PeriphCLKConfig+0x246>
 800385a:	4a2d      	ldr	r2, [pc, #180]	; (8003910 <HAL_RCCEx_PeriphCLKConfig+0x298>)
 800385c:	6d93      	ldr	r3, [r2, #88]	; 0x58
 800385e:	f023 63e0 	bic.w	r3, r3, #117440512	; 0x7000000
 8003862:	f8d4 10a8 	ldr.w	r1, [r4, #168]	; 0xa8
 8003866:	430b      	orrs	r3, r1
 8003868:	6593      	str	r3, [r2, #88]	; 0x58
 800386a:	6823      	ldr	r3, [r4, #0]
 800386c:	f013 7f00 	tst.w	r3, #33554432	; 0x2000000
 8003870:	d02e      	beq.n	80038d0 <HAL_RCCEx_PeriphCLKConfig+0x258>
 8003872:	6ca3      	ldr	r3, [r4, #72]	; 0x48
 8003874:	2b20      	cmp	r3, #32
 8003876:	d03f      	beq.n	80038f8 <HAL_RCCEx_PeriphCLKConfig+0x280>
 8003878:	d826      	bhi.n	80038c8 <HAL_RCCEx_PeriphCLKConfig+0x250>
 800387a:	b133      	cbz	r3, 800388a <HAL_RCCEx_PeriphCLKConfig+0x212>
 800387c:	2b10      	cmp	r3, #16
 800387e:	d120      	bne.n	80038c2 <HAL_RCCEx_PeriphCLKConfig+0x24a>
 8003880:	4a23      	ldr	r2, [pc, #140]	; (8003910 <HAL_RCCEx_PeriphCLKConfig+0x298>)
 8003882:	6ad3      	ldr	r3, [r2, #44]	; 0x2c
 8003884:	f443 3300 	orr.w	r3, r3, #131072	; 0x20000
 8003888:	62d3      	str	r3, [r2, #44]	; 0x2c
 800388a:	2d00      	cmp	r5, #0
 800388c:	d13a      	bne.n	8003904 <HAL_RCCEx_PeriphCLKConfig+0x28c>
 800388e:	4a20      	ldr	r2, [pc, #128]	; (8003910 <HAL_RCCEx_PeriphCLKConfig+0x298>)
 8003890:	6cd3      	ldr	r3, [r2, #76]	; 0x4c
 8003892:	f023 0330 	bic.w	r3, r3, #48	; 0x30
 8003896:	6ca1      	ldr	r1, [r4, #72]	; 0x48
 8003898:	430b      	orrs	r3, r1
 800389a:	64d3      	str	r3, [r2, #76]	; 0x4c
 800389c:	e018      	b.n	80038d0 <HAL_RCCEx_PeriphCLKConfig+0x258>
 800389e:	2601      	movs	r6, #1
 80038a0:	4635      	mov	r5, r6
 80038a2:	e7e2      	b.n	800386a <HAL_RCCEx_PeriphCLKConfig+0x1f2>
 80038a4:	4a1a      	ldr	r2, [pc, #104]	; (8003910 <HAL_RCCEx_PeriphCLKConfig+0x298>)
 80038a6:	6ad3      	ldr	r3, [r2, #44]	; 0x2c
 80038a8:	f443 3300 	orr.w	r3, r3, #131072	; 0x20000
 80038ac:	62d3      	str	r3, [r2, #44]	; 0x2c
 80038ae:	e7d2      	b.n	8003856 <HAL_RCCEx_PeriphCLKConfig+0x1de>
 80038b0:	2100      	movs	r1, #0
 80038b2:	f104 0024 	add.w	r0, r4, #36	; 0x24
 80038b6:	f7ff fe59 	bl	800356c <RCCEx_PLL3_Config>
 80038ba:	4605      	mov	r5, r0
 80038bc:	e7cb      	b.n	8003856 <HAL_RCCEx_PeriphCLKConfig+0x1de>
 80038be:	462e      	mov	r6, r5
 80038c0:	e7d3      	b.n	800386a <HAL_RCCEx_PeriphCLKConfig+0x1f2>
 80038c2:	2601      	movs	r6, #1
 80038c4:	4635      	mov	r5, r6
 80038c6:	e003      	b.n	80038d0 <HAL_RCCEx_PeriphCLKConfig+0x258>
 80038c8:	2b30      	cmp	r3, #48	; 0x30
 80038ca:	d0de      	beq.n	800388a <HAL_RCCEx_PeriphCLKConfig+0x212>
 80038cc:	2601      	movs	r6, #1
 80038ce:	4635      	mov	r5, r6
 80038d0:	6823      	ldr	r3, [r4, #0]
 80038d2:	f413 5f80 	tst.w	r3, #4096	; 0x1000
 80038d6:	d02c      	beq.n	8003932 <HAL_RCCEx_PeriphCLKConfig+0x2ba>
 80038d8:	6de3      	ldr	r3, [r4, #92]	; 0x5c
 80038da:	f5b3 5f00 	cmp.w	r3, #8192	; 0x2000
 80038de:	d04d      	beq.n	800397c <HAL_RCCEx_PeriphCLKConfig+0x304>
 80038e0:	d818      	bhi.n	8003914 <HAL_RCCEx_PeriphCLKConfig+0x29c>
 80038e2:	2b00      	cmp	r3, #0
 80038e4:	d044      	beq.n	8003970 <HAL_RCCEx_PeriphCLKConfig+0x2f8>
 80038e6:	f5b3 5f80 	cmp.w	r3, #4096	; 0x1000
 80038ea:	d10d      	bne.n	8003908 <HAL_RCCEx_PeriphCLKConfig+0x290>
 80038ec:	2100      	movs	r1, #0
 80038ee:	1d20      	adds	r0, r4, #4
 80038f0:	f7ff fdb6 	bl	8003460 <RCCEx_PLL2_Config>
 80038f4:	4605      	mov	r5, r0
 80038f6:	e013      	b.n	8003920 <HAL_RCCEx_PeriphCLKConfig+0x2a8>
 80038f8:	2102      	movs	r1, #2
 80038fa:	1d20      	adds	r0, r4, #4
 80038fc:	f7ff fdb0 	bl	8003460 <RCCEx_PLL2_Config>
 8003900:	4605      	mov	r5, r0
 8003902:	e7c2      	b.n	800388a <HAL_RCCEx_PeriphCLKConfig+0x212>
 8003904:	462e      	mov	r6, r5
 8003906:	e7e3      	b.n	80038d0 <HAL_RCCEx_PeriphCLKConfig+0x258>
 8003908:	2601      	movs	r6, #1
 800390a:	4635      	mov	r5, r6
 800390c:	e011      	b.n	8003932 <HAL_RCCEx_PeriphCLKConfig+0x2ba>
 800390e:	bf00      	nop
 8003910:	58024400 	.word	0x58024400
 8003914:	f5b3 5f40 	cmp.w	r3, #12288	; 0x3000
 8003918:	d002      	beq.n	8003920 <HAL_RCCEx_PeriphCLKConfig+0x2a8>
 800391a:	f5b3 4f80 	cmp.w	r3, #16384	; 0x4000
 800391e:	d124      	bne.n	800396a <HAL_RCCEx_PeriphCLKConfig+0x2f2>
 8003920:	2d00      	cmp	r5, #0
 8003922:	d132      	bne.n	800398a <HAL_RCCEx_PeriphCLKConfig+0x312>
 8003924:	4a98      	ldr	r2, [pc, #608]	; (8003b88 <HAL_RCCEx_PeriphCLKConfig+0x510>)
 8003926:	6d13      	ldr	r3, [r2, #80]	; 0x50
 8003928:	f423 43e0 	bic.w	r3, r3, #28672	; 0x7000
 800392c:	6de1      	ldr	r1, [r4, #92]	; 0x5c
 800392e:	430b      	orrs	r3, r1
 8003930:	6513      	str	r3, [r2, #80]	; 0x50
 8003932:	6823      	ldr	r3, [r4, #0]
 8003934:	f413 5f00 	tst.w	r3, #8192	; 0x2000
 8003938:	d037      	beq.n	80039aa <HAL_RCCEx_PeriphCLKConfig+0x332>
 800393a:	6e23      	ldr	r3, [r4, #96]	; 0x60
 800393c:	f5b3 3f00 	cmp.w	r3, #131072	; 0x20000
 8003940:	d051      	beq.n	80039e6 <HAL_RCCEx_PeriphCLKConfig+0x36e>
 8003942:	d827      	bhi.n	8003994 <HAL_RCCEx_PeriphCLKConfig+0x31c>
 8003944:	b13b      	cbz	r3, 8003956 <HAL_RCCEx_PeriphCLKConfig+0x2de>
 8003946:	f5b3 3f80 	cmp.w	r3, #65536	; 0x10000
 800394a:	d120      	bne.n	800398e <HAL_RCCEx_PeriphCLKConfig+0x316>
 800394c:	2101      	movs	r1, #1
 800394e:	1d20      	adds	r0, r4, #4
 8003950:	f7ff fd86 	bl	8003460 <RCCEx_PLL2_Config>
 8003954:	4605      	mov	r5, r0
 8003956:	2d00      	cmp	r5, #0
 8003958:	d14c      	bne.n	80039f4 <HAL_RCCEx_PeriphCLKConfig+0x37c>
 800395a:	4a8b      	ldr	r2, [pc, #556]	; (8003b88 <HAL_RCCEx_PeriphCLKConfig+0x510>)
 800395c:	6d13      	ldr	r3, [r2, #80]	; 0x50
 800395e:	f423 23e0 	bic.w	r3, r3, #458752	; 0x70000
 8003962:	6e21      	ldr	r1, [r4, #96]	; 0x60
 8003964:	430b      	orrs	r3, r1
 8003966:	6513      	str	r3, [r2, #80]	; 0x50
 8003968:	e01f      	b.n	80039aa <HAL_RCCEx_PeriphCLKConfig+0x332>
 800396a:	2601      	movs	r6, #1
 800396c:	4635      	mov	r5, r6
 800396e:	e7e0      	b.n	8003932 <HAL_RCCEx_PeriphCLKConfig+0x2ba>
 8003970:	4a85      	ldr	r2, [pc, #532]	; (8003b88 <HAL_RCCEx_PeriphCLKConfig+0x510>)
 8003972:	6ad3      	ldr	r3, [r2, #44]	; 0x2c
 8003974:	f443 3300 	orr.w	r3, r3, #131072	; 0x20000
 8003978:	62d3      	str	r3, [r2, #44]	; 0x2c
 800397a:	e7d1      	b.n	8003920 <HAL_RCCEx_PeriphCLKConfig+0x2a8>
 800397c:	2100      	movs	r1, #0
 800397e:	f104 0024 	add.w	r0, r4, #36	; 0x24
 8003982:	f7ff fdf3 	bl	800356c <RCCEx_PLL3_Config>
 8003986:	4605      	mov	r5, r0
 8003988:	e7ca      	b.n	8003920 <HAL_RCCEx_PeriphCLKConfig+0x2a8>
 800398a:	462e      	mov	r6, r5
 800398c:	e7d1      	b.n	8003932 <HAL_RCCEx_PeriphCLKConfig+0x2ba>
 800398e:	2601      	movs	r6, #1
 8003990:	4635      	mov	r5, r6
 8003992:	e00a      	b.n	80039aa <HAL_RCCEx_PeriphCLKConfig+0x332>
 8003994:	f5b3 2f80 	cmp.w	r3, #262144	; 0x40000
 8003998:	d0dd      	beq.n	8003956 <HAL_RCCEx_PeriphCLKConfig+0x2de>
 800399a:	f5b3 2fa0 	cmp.w	r3, #327680	; 0x50000
 800399e:	d0da      	beq.n	8003956 <HAL_RCCEx_PeriphCLKConfig+0x2de>
 80039a0:	f5b3 3f40 	cmp.w	r3, #196608	; 0x30000
 80039a4:	d0d7      	beq.n	8003956 <HAL_RCCEx_PeriphCLKConfig+0x2de>
 80039a6:	2601      	movs	r6, #1
 80039a8:	4635      	mov	r5, r6
 80039aa:	6823      	ldr	r3, [r4, #0]
 80039ac:	f413 4f80 	tst.w	r3, #16384	; 0x4000
 80039b0:	d030      	beq.n	8003a14 <HAL_RCCEx_PeriphCLKConfig+0x39c>
 80039b2:	f8d4 30ac 	ldr.w	r3, [r4, #172]	; 0xac
 80039b6:	f1b3 5f00 	cmp.w	r3, #536870912	; 0x20000000
 80039ba:	d044      	beq.n	8003a46 <HAL_RCCEx_PeriphCLKConfig+0x3ce>
 80039bc:	d81f      	bhi.n	80039fe <HAL_RCCEx_PeriphCLKConfig+0x386>
 80039be:	b13b      	cbz	r3, 80039d0 <HAL_RCCEx_PeriphCLKConfig+0x358>
 80039c0:	f1b3 5f80 	cmp.w	r3, #268435456	; 0x10000000
 80039c4:	d118      	bne.n	80039f8 <HAL_RCCEx_PeriphCLKConfig+0x380>
 80039c6:	2101      	movs	r1, #1
 80039c8:	1d20      	adds	r0, r4, #4
 80039ca:	f7ff fd49 	bl	8003460 <RCCEx_PLL2_Config>
 80039ce:	4605      	mov	r5, r0
 80039d0:	2d00      	cmp	r5, #0
 80039d2:	d13f      	bne.n	8003a54 <HAL_RCCEx_PeriphCLKConfig+0x3dc>
 80039d4:	4a6c      	ldr	r2, [pc, #432]	; (8003b88 <HAL_RCCEx_PeriphCLKConfig+0x510>)
 80039d6:	6d93      	ldr	r3, [r2, #88]	; 0x58
 80039d8:	f023 43e0 	bic.w	r3, r3, #1879048192	; 0x70000000
 80039dc:	f8d4 10ac 	ldr.w	r1, [r4, #172]	; 0xac
 80039e0:	430b      	orrs	r3, r1
 80039e2:	6593      	str	r3, [r2, #88]	; 0x58
 80039e4:	e016      	b.n	8003a14 <HAL_RCCEx_PeriphCLKConfig+0x39c>
 80039e6:	2101      	movs	r1, #1
 80039e8:	f104 0024 	add.w	r0, r4, #36	; 0x24
 80039ec:	f7ff fdbe 	bl	800356c <RCCEx_PLL3_Config>
 80039f0:	4605      	mov	r5, r0
 80039f2:	e7b0      	b.n	8003956 <HAL_RCCEx_PeriphCLKConfig+0x2de>
 80039f4:	462e      	mov	r6, r5
 80039f6:	e7d8      	b.n	80039aa <HAL_RCCEx_PeriphCLKConfig+0x332>
 80039f8:	2601      	movs	r6, #1
 80039fa:	4635      	mov	r5, r6
 80039fc:	e00a      	b.n	8003a14 <HAL_RCCEx_PeriphCLKConfig+0x39c>
 80039fe:	f1b3 4f80 	cmp.w	r3, #1073741824	; 0x40000000
 8003a02:	d0e5      	beq.n	80039d0 <HAL_RCCEx_PeriphCLKConfig+0x358>
 8003a04:	f1b3 4fa0 	cmp.w	r3, #1342177280	; 0x50000000
 8003a08:	d0e2      	beq.n	80039d0 <HAL_RCCEx_PeriphCLKConfig+0x358>
 8003a0a:	f1b3 5f40 	cmp.w	r3, #805306368	; 0x30000000
 8003a0e:	d0df      	beq.n	80039d0 <HAL_RCCEx_PeriphCLKConfig+0x358>
 8003a10:	2601      	movs	r6, #1
 8003a12:	4635      	mov	r5, r6
 8003a14:	6823      	ldr	r3, [r4, #0]
 8003a16:	f413 4f00 	tst.w	r3, #32768	; 0x8000
 8003a1a:	d009      	beq.n	8003a30 <HAL_RCCEx_PeriphCLKConfig+0x3b8>
 8003a1c:	6ee3      	ldr	r3, [r4, #108]	; 0x6c
 8003a1e:	f1b3 5f80 	cmp.w	r3, #268435456	; 0x10000000
 8003a22:	d019      	beq.n	8003a58 <HAL_RCCEx_PeriphCLKConfig+0x3e0>
 8003a24:	f1b3 5f00 	cmp.w	r3, #536870912	; 0x20000000
 8003a28:	d024      	beq.n	8003a74 <HAL_RCCEx_PeriphCLKConfig+0x3fc>
 8003a2a:	b1d3      	cbz	r3, 8003a62 <HAL_RCCEx_PeriphCLKConfig+0x3ea>
 8003a2c:	2601      	movs	r6, #1
 8003a2e:	4635      	mov	r5, r6
 8003a30:	6823      	ldr	r3, [r4, #0]
 8003a32:	f013 7f80 	tst.w	r3, #16777216	; 0x1000000
 8003a36:	d03d      	beq.n	8003ab4 <HAL_RCCEx_PeriphCLKConfig+0x43c>
 8003a38:	6c63      	ldr	r3, [r4, #68]	; 0x44
 8003a3a:	2b03      	cmp	r3, #3
 8003a3c:	d836      	bhi.n	8003aac <HAL_RCCEx_PeriphCLKConfig+0x434>
 8003a3e:	e8df f003 	tbb	[pc, r3]
 8003a42:	2126      	.short	0x2126
 8003a44:	262f      	.short	0x262f
 8003a46:	2101      	movs	r1, #1
 8003a48:	f104 0024 	add.w	r0, r4, #36	; 0x24
 8003a4c:	f7ff fd8e 	bl	800356c <RCCEx_PLL3_Config>
 8003a50:	4605      	mov	r5, r0
 8003a52:	e7bd      	b.n	80039d0 <HAL_RCCEx_PeriphCLKConfig+0x358>
 8003a54:	462e      	mov	r6, r5
 8003a56:	e7dd      	b.n	8003a14 <HAL_RCCEx_PeriphCLKConfig+0x39c>
 8003a58:	4a4b      	ldr	r2, [pc, #300]	; (8003b88 <HAL_RCCEx_PeriphCLKConfig+0x510>)
 8003a5a:	6ad3      	ldr	r3, [r2, #44]	; 0x2c
 8003a5c:	f443 3300 	orr.w	r3, r3, #131072	; 0x20000
 8003a60:	62d3      	str	r3, [r2, #44]	; 0x2c
 8003a62:	b96d      	cbnz	r5, 8003a80 <HAL_RCCEx_PeriphCLKConfig+0x408>
 8003a64:	4a48      	ldr	r2, [pc, #288]	; (8003b88 <HAL_RCCEx_PeriphCLKConfig+0x510>)
 8003a66:	6d13      	ldr	r3, [r2, #80]	; 0x50
 8003a68:	f023 5340 	bic.w	r3, r3, #805306368	; 0x30000000
 8003a6c:	6ee1      	ldr	r1, [r4, #108]	; 0x6c
 8003a6e:	430b      	orrs	r3, r1
 8003a70:	6513      	str	r3, [r2, #80]	; 0x50
 8003a72:	e7dd      	b.n	8003a30 <HAL_RCCEx_PeriphCLKConfig+0x3b8>
 8003a74:	2101      	movs	r1, #1
 8003a76:	1d20      	adds	r0, r4, #4
 8003a78:	f7ff fcf2 	bl	8003460 <RCCEx_PLL2_Config>
 8003a7c:	4605      	mov	r5, r0
 8003a7e:	e7f0      	b.n	8003a62 <HAL_RCCEx_PeriphCLKConfig+0x3ea>
 8003a80:	462e      	mov	r6, r5
 8003a82:	e7d5      	b.n	8003a30 <HAL_RCCEx_PeriphCLKConfig+0x3b8>
 8003a84:	4a40      	ldr	r2, [pc, #256]	; (8003b88 <HAL_RCCEx_PeriphCLKConfig+0x510>)
 8003a86:	6ad3      	ldr	r3, [r2, #44]	; 0x2c
 8003a88:	f443 3300 	orr.w	r3, r3, #131072	; 0x20000
 8003a8c:	62d3      	str	r3, [r2, #44]	; 0x2c
 8003a8e:	b985      	cbnz	r5, 8003ab2 <HAL_RCCEx_PeriphCLKConfig+0x43a>
 8003a90:	4a3d      	ldr	r2, [pc, #244]	; (8003b88 <HAL_RCCEx_PeriphCLKConfig+0x510>)
 8003a92:	6cd3      	ldr	r3, [r2, #76]	; 0x4c
 8003a94:	f023 0303 	bic.w	r3, r3, #3
 8003a98:	6c61      	ldr	r1, [r4, #68]	; 0x44
 8003a9a:	430b      	orrs	r3, r1
 8003a9c:	64d3      	str	r3, [r2, #76]	; 0x4c
 8003a9e:	e009      	b.n	8003ab4 <HAL_RCCEx_PeriphCLKConfig+0x43c>
 8003aa0:	2102      	movs	r1, #2
 8003aa2:	1d20      	adds	r0, r4, #4
 8003aa4:	f7ff fcdc 	bl	8003460 <RCCEx_PLL2_Config>
 8003aa8:	4605      	mov	r5, r0
 8003aaa:	e7f0      	b.n	8003a8e <HAL_RCCEx_PeriphCLKConfig+0x416>
 8003aac:	2601      	movs	r6, #1
 8003aae:	4635      	mov	r5, r6
 8003ab0:	e000      	b.n	8003ab4 <HAL_RCCEx_PeriphCLKConfig+0x43c>
 8003ab2:	462e      	mov	r6, r5
 8003ab4:	6823      	ldr	r3, [r4, #0]
 8003ab6:	f413 0f80 	tst.w	r3, #4194304	; 0x400000
 8003aba:	d11f      	bne.n	8003afc <HAL_RCCEx_PeriphCLKConfig+0x484>
 8003abc:	6823      	ldr	r3, [r4, #0]
 8003abe:	f013 0f01 	tst.w	r3, #1
 8003ac2:	f000 809b 	beq.w	8003bfc <HAL_RCCEx_PeriphCLKConfig+0x584>
 8003ac6:	6fa3      	ldr	r3, [r4, #120]	; 0x78
 8003ac8:	2b28      	cmp	r3, #40	; 0x28
 8003aca:	f200 8095 	bhi.w	8003bf8 <HAL_RCCEx_PeriphCLKConfig+0x580>
 8003ace:	e8df f003 	tbb	[pc, r3]
 8003ad2:	9383      	.short	0x9383
 8003ad4:	93939393 	.word	0x93939393
 8003ad8:	937e9393 	.word	0x937e9393
 8003adc:	93939393 	.word	0x93939393
 8003ae0:	938c9393 	.word	0x938c9393
 8003ae4:	93939393 	.word	0x93939393
 8003ae8:	93839393 	.word	0x93839393
 8003aec:	93939393 	.word	0x93939393
 8003af0:	93839393 	.word	0x93839393
 8003af4:	93939393 	.word	0x93939393
 8003af8:	9393      	.short	0x9393
 8003afa:	83          	.byte	0x83
 8003afb:	00          	.byte	0x00
 8003afc:	4a23      	ldr	r2, [pc, #140]	; (8003b8c <HAL_RCCEx_PeriphCLKConfig+0x514>)
 8003afe:	6813      	ldr	r3, [r2, #0]
 8003b00:	f443 7380 	orr.w	r3, r3, #256	; 0x100
 8003b04:	6013      	str	r3, [r2, #0]
 8003b06:	f7fd fc4d 	bl	80013a4 <HAL_GetTick>
 8003b0a:	4607      	mov	r7, r0
 8003b0c:	4b1f      	ldr	r3, [pc, #124]	; (8003b8c <HAL_RCCEx_PeriphCLKConfig+0x514>)
 8003b0e:	681b      	ldr	r3, [r3, #0]
 8003b10:	f413 7f80 	tst.w	r3, #256	; 0x100
 8003b14:	d105      	bne.n	8003b22 <HAL_RCCEx_PeriphCLKConfig+0x4aa>
 8003b16:	f7fd fc45 	bl	80013a4 <HAL_GetTick>
 8003b1a:	1bc0      	subs	r0, r0, r7
 8003b1c:	2864      	cmp	r0, #100	; 0x64
 8003b1e:	d9f5      	bls.n	8003b0c <HAL_RCCEx_PeriphCLKConfig+0x494>
 8003b20:	2503      	movs	r5, #3
 8003b22:	2d00      	cmp	r5, #0
 8003b24:	d14f      	bne.n	8003bc6 <HAL_RCCEx_PeriphCLKConfig+0x54e>
 8003b26:	4b18      	ldr	r3, [pc, #96]	; (8003b88 <HAL_RCCEx_PeriphCLKConfig+0x510>)
 8003b28:	6f1b      	ldr	r3, [r3, #112]	; 0x70
 8003b2a:	f8d4 20b0 	ldr.w	r2, [r4, #176]	; 0xb0
 8003b2e:	4053      	eors	r3, r2
 8003b30:	f413 7f40 	tst.w	r3, #768	; 0x300
 8003b34:	d00c      	beq.n	8003b50 <HAL_RCCEx_PeriphCLKConfig+0x4d8>
 8003b36:	4b14      	ldr	r3, [pc, #80]	; (8003b88 <HAL_RCCEx_PeriphCLKConfig+0x510>)
 8003b38:	6f1a      	ldr	r2, [r3, #112]	; 0x70
 8003b3a:	f422 7240 	bic.w	r2, r2, #768	; 0x300
 8003b3e:	6f19      	ldr	r1, [r3, #112]	; 0x70
 8003b40:	f441 3180 	orr.w	r1, r1, #65536	; 0x10000
 8003b44:	6719      	str	r1, [r3, #112]	; 0x70
 8003b46:	6f19      	ldr	r1, [r3, #112]	; 0x70
 8003b48:	f421 3180 	bic.w	r1, r1, #65536	; 0x10000
 8003b4c:	6719      	str	r1, [r3, #112]	; 0x70
 8003b4e:	671a      	str	r2, [r3, #112]	; 0x70
 8003b50:	f8d4 30b0 	ldr.w	r3, [r4, #176]	; 0xb0
 8003b54:	f5b3 7f80 	cmp.w	r3, #256	; 0x100
 8003b58:	d01a      	beq.n	8003b90 <HAL_RCCEx_PeriphCLKConfig+0x518>
 8003b5a:	2d00      	cmp	r5, #0
 8003b5c:	d135      	bne.n	8003bca <HAL_RCCEx_PeriphCLKConfig+0x552>
 8003b5e:	f8d4 30b0 	ldr.w	r3, [r4, #176]	; 0xb0
 8003b62:	f403 7240 	and.w	r2, r3, #768	; 0x300
 8003b66:	f5b2 7f40 	cmp.w	r2, #768	; 0x300
 8003b6a:	d022      	beq.n	8003bb2 <HAL_RCCEx_PeriphCLKConfig+0x53a>
 8003b6c:	4a06      	ldr	r2, [pc, #24]	; (8003b88 <HAL_RCCEx_PeriphCLKConfig+0x510>)
 8003b6e:	6913      	ldr	r3, [r2, #16]
 8003b70:	f423 537c 	bic.w	r3, r3, #16128	; 0x3f00
 8003b74:	6113      	str	r3, [r2, #16]
 8003b76:	4904      	ldr	r1, [pc, #16]	; (8003b88 <HAL_RCCEx_PeriphCLKConfig+0x510>)
 8003b78:	6f0b      	ldr	r3, [r1, #112]	; 0x70
 8003b7a:	f8d4 20b0 	ldr.w	r2, [r4, #176]	; 0xb0
 8003b7e:	f3c2 020b 	ubfx	r2, r2, #0, #12
 8003b82:	4313      	orrs	r3, r2
 8003b84:	670b      	str	r3, [r1, #112]	; 0x70
 8003b86:	e799      	b.n	8003abc <HAL_RCCEx_PeriphCLKConfig+0x444>
 8003b88:	58024400 	.word	0x58024400
 8003b8c:	58024800 	.word	0x58024800
 8003b90:	f7fd fc08 	bl	80013a4 <HAL_GetTick>
 8003b94:	4607      	mov	r7, r0
 8003b96:	4b87      	ldr	r3, [pc, #540]	; (8003db4 <HAL_RCCEx_PeriphCLKConfig+0x73c>)
 8003b98:	6f1b      	ldr	r3, [r3, #112]	; 0x70
 8003b9a:	f013 0f02 	tst.w	r3, #2
 8003b9e:	d1dc      	bne.n	8003b5a <HAL_RCCEx_PeriphCLKConfig+0x4e2>
 8003ba0:	f7fd fc00 	bl	80013a4 <HAL_GetTick>
 8003ba4:	1bc0      	subs	r0, r0, r7
 8003ba6:	f241 3388 	movw	r3, #5000	; 0x1388
 8003baa:	4298      	cmp	r0, r3
 8003bac:	d9f3      	bls.n	8003b96 <HAL_RCCEx_PeriphCLKConfig+0x51e>
 8003bae:	2503      	movs	r5, #3
 8003bb0:	e7d3      	b.n	8003b5a <HAL_RCCEx_PeriphCLKConfig+0x4e2>
 8003bb2:	4880      	ldr	r0, [pc, #512]	; (8003db4 <HAL_RCCEx_PeriphCLKConfig+0x73c>)
 8003bb4:	6902      	ldr	r2, [r0, #16]
 8003bb6:	f422 527c 	bic.w	r2, r2, #16128	; 0x3f00
 8003bba:	497f      	ldr	r1, [pc, #508]	; (8003db8 <HAL_RCCEx_PeriphCLKConfig+0x740>)
 8003bbc:	ea01 1313 	and.w	r3, r1, r3, lsr #4
 8003bc0:	4313      	orrs	r3, r2
 8003bc2:	6103      	str	r3, [r0, #16]
 8003bc4:	e7d7      	b.n	8003b76 <HAL_RCCEx_PeriphCLKConfig+0x4fe>
 8003bc6:	462e      	mov	r6, r5
 8003bc8:	e778      	b.n	8003abc <HAL_RCCEx_PeriphCLKConfig+0x444>
 8003bca:	462e      	mov	r6, r5
 8003bcc:	e776      	b.n	8003abc <HAL_RCCEx_PeriphCLKConfig+0x444>
 8003bce:	2101      	movs	r1, #1
 8003bd0:	1d20      	adds	r0, r4, #4
 8003bd2:	f7ff fc45 	bl	8003460 <RCCEx_PLL2_Config>
 8003bd6:	4605      	mov	r5, r0
 8003bd8:	b9e5      	cbnz	r5, 8003c14 <HAL_RCCEx_PeriphCLKConfig+0x59c>
 8003bda:	4a76      	ldr	r2, [pc, #472]	; (8003db4 <HAL_RCCEx_PeriphCLKConfig+0x73c>)
 8003bdc:	6d53      	ldr	r3, [r2, #84]	; 0x54
 8003bde:	f023 0338 	bic.w	r3, r3, #56	; 0x38
 8003be2:	6fa1      	ldr	r1, [r4, #120]	; 0x78
 8003be4:	430b      	orrs	r3, r1
 8003be6:	6553      	str	r3, [r2, #84]	; 0x54
 8003be8:	e008      	b.n	8003bfc <HAL_RCCEx_PeriphCLKConfig+0x584>
 8003bea:	2101      	movs	r1, #1
 8003bec:	f104 0024 	add.w	r0, r4, #36	; 0x24
 8003bf0:	f7ff fcbc 	bl	800356c <RCCEx_PLL3_Config>
 8003bf4:	4605      	mov	r5, r0
 8003bf6:	e7ef      	b.n	8003bd8 <HAL_RCCEx_PeriphCLKConfig+0x560>
 8003bf8:	2601      	movs	r6, #1
 8003bfa:	4635      	mov	r5, r6
 8003bfc:	6823      	ldr	r3, [r4, #0]
 8003bfe:	f013 0f02 	tst.w	r3, #2
 8003c02:	d022      	beq.n	8003c4a <HAL_RCCEx_PeriphCLKConfig+0x5d2>
 8003c04:	6f63      	ldr	r3, [r4, #116]	; 0x74
 8003c06:	2b05      	cmp	r3, #5
 8003c08:	d81b      	bhi.n	8003c42 <HAL_RCCEx_PeriphCLKConfig+0x5ca>
 8003c0a:	e8df f003 	tbb	[pc, r3]
 8003c0e:	050a      	.short	0x050a
 8003c10:	0a0a0a13 	.word	0x0a0a0a13
 8003c14:	462e      	mov	r6, r5
 8003c16:	e7f1      	b.n	8003bfc <HAL_RCCEx_PeriphCLKConfig+0x584>
 8003c18:	2101      	movs	r1, #1
 8003c1a:	1d20      	adds	r0, r4, #4
 8003c1c:	f7ff fc20 	bl	8003460 <RCCEx_PLL2_Config>
 8003c20:	4605      	mov	r5, r0
 8003c22:	b98d      	cbnz	r5, 8003c48 <HAL_RCCEx_PeriphCLKConfig+0x5d0>
 8003c24:	4a63      	ldr	r2, [pc, #396]	; (8003db4 <HAL_RCCEx_PeriphCLKConfig+0x73c>)
 8003c26:	6d53      	ldr	r3, [r2, #84]	; 0x54
 8003c28:	f023 0307 	bic.w	r3, r3, #7
 8003c2c:	6f61      	ldr	r1, [r4, #116]	; 0x74
 8003c2e:	430b      	orrs	r3, r1
 8003c30:	6553      	str	r3, [r2, #84]	; 0x54
 8003c32:	e00a      	b.n	8003c4a <HAL_RCCEx_PeriphCLKConfig+0x5d2>
 8003c34:	2101      	movs	r1, #1
 8003c36:	f104 0024 	add.w	r0, r4, #36	; 0x24
 8003c3a:	f7ff fc97 	bl	800356c <RCCEx_PLL3_Config>
 8003c3e:	4605      	mov	r5, r0
 8003c40:	e7ef      	b.n	8003c22 <HAL_RCCEx_PeriphCLKConfig+0x5aa>
 8003c42:	2601      	movs	r6, #1
 8003c44:	4635      	mov	r5, r6
 8003c46:	e000      	b.n	8003c4a <HAL_RCCEx_PeriphCLKConfig+0x5d2>
 8003c48:	462e      	mov	r6, r5
 8003c4a:	6823      	ldr	r3, [r4, #0]
 8003c4c:	f013 0f04 	tst.w	r3, #4
 8003c50:	d022      	beq.n	8003c98 <HAL_RCCEx_PeriphCLKConfig+0x620>
 8003c52:	f8d4 3090 	ldr.w	r3, [r4, #144]	; 0x90
 8003c56:	2b05      	cmp	r3, #5
 8003c58:	d81a      	bhi.n	8003c90 <HAL_RCCEx_PeriphCLKConfig+0x618>
 8003c5a:	e8df f003 	tbb	[pc, r3]
 8003c5e:	0308      	.short	0x0308
 8003c60:	08080812 	.word	0x08080812
 8003c64:	2101      	movs	r1, #1
 8003c66:	1d20      	adds	r0, r4, #4
 8003c68:	f7ff fbfa 	bl	8003460 <RCCEx_PLL2_Config>
 8003c6c:	4605      	mov	r5, r0
 8003c6e:	b995      	cbnz	r5, 8003c96 <HAL_RCCEx_PeriphCLKConfig+0x61e>
 8003c70:	4a50      	ldr	r2, [pc, #320]	; (8003db4 <HAL_RCCEx_PeriphCLKConfig+0x73c>)
 8003c72:	6d93      	ldr	r3, [r2, #88]	; 0x58
 8003c74:	f023 0307 	bic.w	r3, r3, #7
 8003c78:	f8d4 1090 	ldr.w	r1, [r4, #144]	; 0x90
 8003c7c:	430b      	orrs	r3, r1
 8003c7e:	6593      	str	r3, [r2, #88]	; 0x58
 8003c80:	e00a      	b.n	8003c98 <HAL_RCCEx_PeriphCLKConfig+0x620>
 8003c82:	2101      	movs	r1, #1
 8003c84:	f104 0024 	add.w	r0, r4, #36	; 0x24
 8003c88:	f7ff fc70 	bl	800356c <RCCEx_PLL3_Config>
 8003c8c:	4605      	mov	r5, r0
 8003c8e:	e7ee      	b.n	8003c6e <HAL_RCCEx_PeriphCLKConfig+0x5f6>
 8003c90:	2601      	movs	r6, #1
 8003c92:	4635      	mov	r5, r6
 8003c94:	e000      	b.n	8003c98 <HAL_RCCEx_PeriphCLKConfig+0x620>
 8003c96:	462e      	mov	r6, r5
 8003c98:	6823      	ldr	r3, [r4, #0]
 8003c9a:	f013 0f20 	tst.w	r3, #32
 8003c9e:	d027      	beq.n	8003cf0 <HAL_RCCEx_PeriphCLKConfig+0x678>
 8003ca0:	f8d4 308c 	ldr.w	r3, [r4, #140]	; 0x8c
 8003ca4:	f1b3 5f00 	cmp.w	r3, #536870912	; 0x20000000
 8003ca8:	d040      	beq.n	8003d2c <HAL_RCCEx_PeriphCLKConfig+0x6b4>
 8003caa:	d816      	bhi.n	8003cda <HAL_RCCEx_PeriphCLKConfig+0x662>
 8003cac:	b13b      	cbz	r3, 8003cbe <HAL_RCCEx_PeriphCLKConfig+0x646>
 8003cae:	f1b3 5f80 	cmp.w	r3, #268435456	; 0x10000000
 8003cb2:	d10f      	bne.n	8003cd4 <HAL_RCCEx_PeriphCLKConfig+0x65c>
 8003cb4:	2100      	movs	r1, #0
 8003cb6:	1d20      	adds	r0, r4, #4
 8003cb8:	f7ff fbd2 	bl	8003460 <RCCEx_PLL2_Config>
 8003cbc:	4605      	mov	r5, r0
 8003cbe:	2d00      	cmp	r5, #0
 8003cc0:	d13b      	bne.n	8003d3a <HAL_RCCEx_PeriphCLKConfig+0x6c2>
 8003cc2:	4a3c      	ldr	r2, [pc, #240]	; (8003db4 <HAL_RCCEx_PeriphCLKConfig+0x73c>)
 8003cc4:	6d53      	ldr	r3, [r2, #84]	; 0x54
 8003cc6:	f023 43e0 	bic.w	r3, r3, #1879048192	; 0x70000000
 8003cca:	f8d4 108c 	ldr.w	r1, [r4, #140]	; 0x8c
 8003cce:	430b      	orrs	r3, r1
 8003cd0:	6553      	str	r3, [r2, #84]	; 0x54
 8003cd2:	e00d      	b.n	8003cf0 <HAL_RCCEx_PeriphCLKConfig+0x678>
 8003cd4:	2601      	movs	r6, #1
 8003cd6:	4635      	mov	r5, r6
 8003cd8:	e00a      	b.n	8003cf0 <HAL_RCCEx_PeriphCLKConfig+0x678>
 8003cda:	f1b3 4f80 	cmp.w	r3, #1073741824	; 0x40000000
 8003cde:	d0ee      	beq.n	8003cbe <HAL_RCCEx_PeriphCLKConfig+0x646>
 8003ce0:	f1b3 4fa0 	cmp.w	r3, #1342177280	; 0x50000000
 8003ce4:	d0eb      	beq.n	8003cbe <HAL_RCCEx_PeriphCLKConfig+0x646>
 8003ce6:	f1b3 5f40 	cmp.w	r3, #805306368	; 0x30000000
 8003cea:	d0e8      	beq.n	8003cbe <HAL_RCCEx_PeriphCLKConfig+0x646>
 8003cec:	2601      	movs	r6, #1
 8003cee:	4635      	mov	r5, r6
 8003cf0:	6823      	ldr	r3, [r4, #0]
 8003cf2:	f013 0f40 	tst.w	r3, #64	; 0x40
 8003cf6:	d030      	beq.n	8003d5a <HAL_RCCEx_PeriphCLKConfig+0x6e2>
 8003cf8:	f8d4 3098 	ldr.w	r3, [r4, #152]	; 0x98
 8003cfc:	f5b3 6f00 	cmp.w	r3, #2048	; 0x800
 8003d00:	d04b      	beq.n	8003d9a <HAL_RCCEx_PeriphCLKConfig+0x722>
 8003d02:	d81f      	bhi.n	8003d44 <HAL_RCCEx_PeriphCLKConfig+0x6cc>
 8003d04:	b13b      	cbz	r3, 8003d16 <HAL_RCCEx_PeriphCLKConfig+0x69e>
 8003d06:	f5b3 6f80 	cmp.w	r3, #1024	; 0x400
 8003d0a:	d118      	bne.n	8003d3e <HAL_RCCEx_PeriphCLKConfig+0x6c6>
 8003d0c:	2100      	movs	r1, #0
 8003d0e:	1d20      	adds	r0, r4, #4
 8003d10:	f7ff fba6 	bl	8003460 <RCCEx_PLL2_Config>
 8003d14:	4605      	mov	r5, r0
 8003d16:	2d00      	cmp	r5, #0
 8003d18:	d146      	bne.n	8003da8 <HAL_RCCEx_PeriphCLKConfig+0x730>
 8003d1a:	4a26      	ldr	r2, [pc, #152]	; (8003db4 <HAL_RCCEx_PeriphCLKConfig+0x73c>)
 8003d1c:	6d93      	ldr	r3, [r2, #88]	; 0x58
 8003d1e:	f423 53e0 	bic.w	r3, r3, #7168	; 0x1c00
 8003d22:	f8d4 1098 	ldr.w	r1, [r4, #152]	; 0x98
 8003d26:	430b      	orrs	r3, r1
 8003d28:	6593      	str	r3, [r2, #88]	; 0x58
 8003d2a:	e016      	b.n	8003d5a <HAL_RCCEx_PeriphCLKConfig+0x6e2>
 8003d2c:	2102      	movs	r1, #2
 8003d2e:	f104 0024 	add.w	r0, r4, #36	; 0x24
 8003d32:	f7ff fc1b 	bl	800356c <RCCEx_PLL3_Config>
 8003d36:	4605      	mov	r5, r0
 8003d38:	e7c1      	b.n	8003cbe <HAL_RCCEx_PeriphCLKConfig+0x646>
 8003d3a:	462e      	mov	r6, r5
 8003d3c:	e7d8      	b.n	8003cf0 <HAL_RCCEx_PeriphCLKConfig+0x678>
 8003d3e:	2601      	movs	r6, #1
 8003d40:	4635      	mov	r5, r6
 8003d42:	e00a      	b.n	8003d5a <HAL_RCCEx_PeriphCLKConfig+0x6e2>
 8003d44:	f5b3 5f80 	cmp.w	r3, #4096	; 0x1000
 8003d48:	d0e5      	beq.n	8003d16 <HAL_RCCEx_PeriphCLKConfig+0x69e>
 8003d4a:	f5b3 5fa0 	cmp.w	r3, #5120	; 0x1400
 8003d4e:	d0e2      	beq.n	8003d16 <HAL_RCCEx_PeriphCLKConfig+0x69e>
 8003d50:	f5b3 6f40 	cmp.w	r3, #3072	; 0xc00
 8003d54:	d0df      	beq.n	8003d16 <HAL_RCCEx_PeriphCLKConfig+0x69e>
 8003d56:	2601      	movs	r6, #1
 8003d58:	4635      	mov	r5, r6
 8003d5a:	6823      	ldr	r3, [r4, #0]
 8003d5c:	f013 0f80 	tst.w	r3, #128	; 0x80
 8003d60:	d037      	beq.n	8003dd2 <HAL_RCCEx_PeriphCLKConfig+0x75a>
 8003d62:	f8d4 309c 	ldr.w	r3, [r4, #156]	; 0x9c
 8003d66:	f5b3 4f80 	cmp.w	r3, #16384	; 0x4000
 8003d6a:	f000 80a2 	beq.w	8003eb2 <HAL_RCCEx_PeriphCLKConfig+0x83a>
 8003d6e:	d825      	bhi.n	8003dbc <HAL_RCCEx_PeriphCLKConfig+0x744>
 8003d70:	b13b      	cbz	r3, 8003d82 <HAL_RCCEx_PeriphCLKConfig+0x70a>
 8003d72:	f5b3 5f00 	cmp.w	r3, #8192	; 0x2000
 8003d76:	d119      	bne.n	8003dac <HAL_RCCEx_PeriphCLKConfig+0x734>
 8003d78:	2100      	movs	r1, #0
 8003d7a:	1d20      	adds	r0, r4, #4
 8003d7c:	f7ff fb70 	bl	8003460 <RCCEx_PLL2_Config>
 8003d80:	4605      	mov	r5, r0
 8003d82:	2d00      	cmp	r5, #0
 8003d84:	f040 809c 	bne.w	8003ec0 <HAL_RCCEx_PeriphCLKConfig+0x848>
 8003d88:	4a0a      	ldr	r2, [pc, #40]	; (8003db4 <HAL_RCCEx_PeriphCLKConfig+0x73c>)
 8003d8a:	6d93      	ldr	r3, [r2, #88]	; 0x58
 8003d8c:	f423 4360 	bic.w	r3, r3, #57344	; 0xe000
 8003d90:	f8d4 109c 	ldr.w	r1, [r4, #156]	; 0x9c
 8003d94:	430b      	orrs	r3, r1
 8003d96:	6593      	str	r3, [r2, #88]	; 0x58
 8003d98:	e01b      	b.n	8003dd2 <HAL_RCCEx_PeriphCLKConfig+0x75a>
 8003d9a:	2102      	movs	r1, #2
 8003d9c:	f104 0024 	add.w	r0, r4, #36	; 0x24
 8003da0:	f7ff fbe4 	bl	800356c <RCCEx_PLL3_Config>
 8003da4:	4605      	mov	r5, r0
 8003da6:	e7b6      	b.n	8003d16 <HAL_RCCEx_PeriphCLKConfig+0x69e>
 8003da8:	462e      	mov	r6, r5
 8003daa:	e7d6      	b.n	8003d5a <HAL_RCCEx_PeriphCLKConfig+0x6e2>
 8003dac:	2601      	movs	r6, #1
 8003dae:	4635      	mov	r5, r6
 8003db0:	e00f      	b.n	8003dd2 <HAL_RCCEx_PeriphCLKConfig+0x75a>
 8003db2:	bf00      	nop
 8003db4:	58024400 	.word	0x58024400
 8003db8:	00ffffcf 	.word	0x00ffffcf
 8003dbc:	f5b3 4f00 	cmp.w	r3, #32768	; 0x8000
 8003dc0:	d0df      	beq.n	8003d82 <HAL_RCCEx_PeriphCLKConfig+0x70a>
 8003dc2:	f5b3 4f20 	cmp.w	r3, #40960	; 0xa000
 8003dc6:	d0dc      	beq.n	8003d82 <HAL_RCCEx_PeriphCLKConfig+0x70a>
 8003dc8:	f5b3 4fc0 	cmp.w	r3, #24576	; 0x6000
 8003dcc:	d0d9      	beq.n	8003d82 <HAL_RCCEx_PeriphCLKConfig+0x70a>
 8003dce:	2601      	movs	r6, #1
 8003dd0:	4635      	mov	r5, r6
 8003dd2:	6823      	ldr	r3, [r4, #0]
 8003dd4:	f013 0f08 	tst.w	r3, #8
 8003dd8:	d00c      	beq.n	8003df4 <HAL_RCCEx_PeriphCLKConfig+0x77c>
 8003dda:	f8d4 3080 	ldr.w	r3, [r4, #128]	; 0x80
 8003dde:	f5b3 5f80 	cmp.w	r3, #4096	; 0x1000
 8003de2:	d06f      	beq.n	8003ec4 <HAL_RCCEx_PeriphCLKConfig+0x84c>
 8003de4:	4a94      	ldr	r2, [pc, #592]	; (8004038 <HAL_RCCEx_PeriphCLKConfig+0x9c0>)
 8003de6:	6d53      	ldr	r3, [r2, #84]	; 0x54
 8003de8:	f423 5340 	bic.w	r3, r3, #12288	; 0x3000
 8003dec:	f8d4 1080 	ldr.w	r1, [r4, #128]	; 0x80
 8003df0:	430b      	orrs	r3, r1
 8003df2:	6553      	str	r3, [r2, #84]	; 0x54
 8003df4:	6823      	ldr	r3, [r4, #0]
 8003df6:	f013 0f10 	tst.w	r3, #16
 8003dfa:	d00c      	beq.n	8003e16 <HAL_RCCEx_PeriphCLKConfig+0x79e>
 8003dfc:	f8d4 3094 	ldr.w	r3, [r4, #148]	; 0x94
 8003e00:	f5b3 7f80 	cmp.w	r3, #256	; 0x100
 8003e04:	d067      	beq.n	8003ed6 <HAL_RCCEx_PeriphCLKConfig+0x85e>
 8003e06:	4a8c      	ldr	r2, [pc, #560]	; (8004038 <HAL_RCCEx_PeriphCLKConfig+0x9c0>)
 8003e08:	6d93      	ldr	r3, [r2, #88]	; 0x58
 8003e0a:	f423 7340 	bic.w	r3, r3, #768	; 0x300
 8003e0e:	f8d4 1094 	ldr.w	r1, [r4, #148]	; 0x94
 8003e12:	430b      	orrs	r3, r1
 8003e14:	6593      	str	r3, [r2, #88]	; 0x58
 8003e16:	6823      	ldr	r3, [r4, #0]
 8003e18:	f413 2f00 	tst.w	r3, #524288	; 0x80000
 8003e1c:	d00b      	beq.n	8003e36 <HAL_RCCEx_PeriphCLKConfig+0x7be>
 8003e1e:	f8d4 30a0 	ldr.w	r3, [r4, #160]	; 0xa0
 8003e22:	f5b3 3f80 	cmp.w	r3, #65536	; 0x10000
 8003e26:	d06e      	beq.n	8003f06 <HAL_RCCEx_PeriphCLKConfig+0x88e>
 8003e28:	f5b3 3f00 	cmp.w	r3, #131072	; 0x20000
 8003e2c:	d061      	beq.n	8003ef2 <HAL_RCCEx_PeriphCLKConfig+0x87a>
 8003e2e:	2b00      	cmp	r3, #0
 8003e30:	d05a      	beq.n	8003ee8 <HAL_RCCEx_PeriphCLKConfig+0x870>
 8003e32:	2601      	movs	r6, #1
 8003e34:	4635      	mov	r5, r6
 8003e36:	6823      	ldr	r3, [r4, #0]
 8003e38:	f413 2f80 	tst.w	r3, #262144	; 0x40000
 8003e3c:	d00c      	beq.n	8003e58 <HAL_RCCEx_PeriphCLKConfig+0x7e0>
 8003e3e:	f8d4 3084 	ldr.w	r3, [r4, #132]	; 0x84
 8003e42:	f5b3 1f00 	cmp.w	r3, #2097152	; 0x200000
 8003e46:	d076      	beq.n	8003f36 <HAL_RCCEx_PeriphCLKConfig+0x8be>
 8003e48:	f5b3 1f40 	cmp.w	r3, #3145728	; 0x300000
 8003e4c:	d069      	beq.n	8003f22 <HAL_RCCEx_PeriphCLKConfig+0x8aa>
 8003e4e:	f5b3 1f80 	cmp.w	r3, #1048576	; 0x100000
 8003e52:	d061      	beq.n	8003f18 <HAL_RCCEx_PeriphCLKConfig+0x8a0>
 8003e54:	2601      	movs	r6, #1
 8003e56:	4635      	mov	r5, r6
 8003e58:	6823      	ldr	r3, [r4, #0]
 8003e5a:	f413 3f80 	tst.w	r3, #65536	; 0x10000
 8003e5e:	d007      	beq.n	8003e70 <HAL_RCCEx_PeriphCLKConfig+0x7f8>
 8003e60:	6ce3      	ldr	r3, [r4, #76]	; 0x4c
 8003e62:	2b00      	cmp	r3, #0
 8003e64:	d070      	beq.n	8003f48 <HAL_RCCEx_PeriphCLKConfig+0x8d0>
 8003e66:	f5b3 3f80 	cmp.w	r3, #65536	; 0x10000
 8003e6a:	d07b      	beq.n	8003f64 <HAL_RCCEx_PeriphCLKConfig+0x8ec>
 8003e6c:	2601      	movs	r6, #1
 8003e6e:	4635      	mov	r5, r6
 8003e70:	6823      	ldr	r3, [r4, #0]
 8003e72:	f013 5f00 	tst.w	r3, #536870912	; 0x20000000
 8003e76:	d17d      	bne.n	8003f74 <HAL_RCCEx_PeriphCLKConfig+0x8fc>
 8003e78:	6823      	ldr	r3, [r4, #0]
 8003e7a:	f413 3f00 	tst.w	r3, #131072	; 0x20000
 8003e7e:	f000 8086 	beq.w	8003f8e <HAL_RCCEx_PeriphCLKConfig+0x916>
 8003e82:	6fe3      	ldr	r3, [r4, #124]	; 0x7c
 8003e84:	f5b3 7f80 	cmp.w	r3, #256	; 0x100
 8003e88:	f000 80c6 	beq.w	8004018 <HAL_RCCEx_PeriphCLKConfig+0x9a0>
 8003e8c:	d97c      	bls.n	8003f88 <HAL_RCCEx_PeriphCLKConfig+0x910>
 8003e8e:	f5b3 7f00 	cmp.w	r3, #512	; 0x200
 8003e92:	d003      	beq.n	8003e9c <HAL_RCCEx_PeriphCLKConfig+0x824>
 8003e94:	f5b3 7f40 	cmp.w	r3, #768	; 0x300
 8003e98:	f040 80bc 	bne.w	8004014 <HAL_RCCEx_PeriphCLKConfig+0x99c>
 8003e9c:	2d00      	cmp	r5, #0
 8003e9e:	f040 80c1 	bne.w	8004024 <HAL_RCCEx_PeriphCLKConfig+0x9ac>
 8003ea2:	4a65      	ldr	r2, [pc, #404]	; (8004038 <HAL_RCCEx_PeriphCLKConfig+0x9c0>)
 8003ea4:	6d53      	ldr	r3, [r2, #84]	; 0x54
 8003ea6:	f423 7340 	bic.w	r3, r3, #768	; 0x300
 8003eaa:	6fe1      	ldr	r1, [r4, #124]	; 0x7c
 8003eac:	430b      	orrs	r3, r1
 8003eae:	6553      	str	r3, [r2, #84]	; 0x54
 8003eb0:	e06d      	b.n	8003f8e <HAL_RCCEx_PeriphCLKConfig+0x916>
 8003eb2:	2102      	movs	r1, #2
 8003eb4:	f104 0024 	add.w	r0, r4, #36	; 0x24
 8003eb8:	f7ff fb58 	bl	800356c <RCCEx_PLL3_Config>
 8003ebc:	4605      	mov	r5, r0
 8003ebe:	e760      	b.n	8003d82 <HAL_RCCEx_PeriphCLKConfig+0x70a>
 8003ec0:	462e      	mov	r6, r5
 8003ec2:	e786      	b.n	8003dd2 <HAL_RCCEx_PeriphCLKConfig+0x75a>
 8003ec4:	2102      	movs	r1, #2
 8003ec6:	f104 0024 	add.w	r0, r4, #36	; 0x24
 8003eca:	f7ff fb4f 	bl	800356c <RCCEx_PLL3_Config>
 8003ece:	2800      	cmp	r0, #0
 8003ed0:	d088      	beq.n	8003de4 <HAL_RCCEx_PeriphCLKConfig+0x76c>
 8003ed2:	2601      	movs	r6, #1
 8003ed4:	e786      	b.n	8003de4 <HAL_RCCEx_PeriphCLKConfig+0x76c>
 8003ed6:	2102      	movs	r1, #2
 8003ed8:	f104 0024 	add.w	r0, r4, #36	; 0x24
 8003edc:	f7ff fb46 	bl	800356c <RCCEx_PLL3_Config>
 8003ee0:	2800      	cmp	r0, #0
 8003ee2:	d090      	beq.n	8003e06 <HAL_RCCEx_PeriphCLKConfig+0x78e>
 8003ee4:	2601      	movs	r6, #1
 8003ee6:	e78e      	b.n	8003e06 <HAL_RCCEx_PeriphCLKConfig+0x78e>
 8003ee8:	2100      	movs	r1, #0
 8003eea:	1d20      	adds	r0, r4, #4
 8003eec:	f7ff fab8 	bl	8003460 <RCCEx_PLL2_Config>
 8003ef0:	4605      	mov	r5, r0
 8003ef2:	b97d      	cbnz	r5, 8003f14 <HAL_RCCEx_PeriphCLKConfig+0x89c>
 8003ef4:	4a50      	ldr	r2, [pc, #320]	; (8004038 <HAL_RCCEx_PeriphCLKConfig+0x9c0>)
 8003ef6:	6d93      	ldr	r3, [r2, #88]	; 0x58
 8003ef8:	f423 3340 	bic.w	r3, r3, #196608	; 0x30000
 8003efc:	f8d4 10a0 	ldr.w	r1, [r4, #160]	; 0xa0
 8003f00:	430b      	orrs	r3, r1
 8003f02:	6593      	str	r3, [r2, #88]	; 0x58
 8003f04:	e797      	b.n	8003e36 <HAL_RCCEx_PeriphCLKConfig+0x7be>
 8003f06:	2102      	movs	r1, #2
 8003f08:	f104 0024 	add.w	r0, r4, #36	; 0x24
 8003f0c:	f7ff fb2e 	bl	800356c <RCCEx_PLL3_Config>
 8003f10:	4605      	mov	r5, r0
 8003f12:	e7ee      	b.n	8003ef2 <HAL_RCCEx_PeriphCLKConfig+0x87a>
 8003f14:	462e      	mov	r6, r5
 8003f16:	e78e      	b.n	8003e36 <HAL_RCCEx_PeriphCLKConfig+0x7be>
 8003f18:	4a47      	ldr	r2, [pc, #284]	; (8004038 <HAL_RCCEx_PeriphCLKConfig+0x9c0>)
 8003f1a:	6ad3      	ldr	r3, [r2, #44]	; 0x2c
 8003f1c:	f443 3300 	orr.w	r3, r3, #131072	; 0x20000
 8003f20:	62d3      	str	r3, [r2, #44]	; 0x2c
 8003f22:	b97d      	cbnz	r5, 8003f44 <HAL_RCCEx_PeriphCLKConfig+0x8cc>
 8003f24:	4a44      	ldr	r2, [pc, #272]	; (8004038 <HAL_RCCEx_PeriphCLKConfig+0x9c0>)
 8003f26:	6d53      	ldr	r3, [r2, #84]	; 0x54
 8003f28:	f423 1340 	bic.w	r3, r3, #3145728	; 0x300000
 8003f2c:	f8d4 1084 	ldr.w	r1, [r4, #132]	; 0x84
 8003f30:	430b      	orrs	r3, r1
 8003f32:	6553      	str	r3, [r2, #84]	; 0x54
 8003f34:	e790      	b.n	8003e58 <HAL_RCCEx_PeriphCLKConfig+0x7e0>
 8003f36:	2101      	movs	r1, #1
 8003f38:	f104 0024 	add.w	r0, r4, #36	; 0x24
 8003f3c:	f7ff fb16 	bl	800356c <RCCEx_PLL3_Config>
 8003f40:	4605      	mov	r5, r0
 8003f42:	e7ee      	b.n	8003f22 <HAL_RCCEx_PeriphCLKConfig+0x8aa>
 8003f44:	462e      	mov	r6, r5
 8003f46:	e787      	b.n	8003e58 <HAL_RCCEx_PeriphCLKConfig+0x7e0>
 8003f48:	4a3b      	ldr	r2, [pc, #236]	; (8004038 <HAL_RCCEx_PeriphCLKConfig+0x9c0>)
 8003f4a:	6ad3      	ldr	r3, [r2, #44]	; 0x2c
 8003f4c:	f443 3300 	orr.w	r3, r3, #131072	; 0x20000
 8003f50:	62d3      	str	r3, [r2, #44]	; 0x2c
 8003f52:	b96d      	cbnz	r5, 8003f70 <HAL_RCCEx_PeriphCLKConfig+0x8f8>
 8003f54:	4a38      	ldr	r2, [pc, #224]	; (8004038 <HAL_RCCEx_PeriphCLKConfig+0x9c0>)
 8003f56:	6cd3      	ldr	r3, [r2, #76]	; 0x4c
 8003f58:	f423 3380 	bic.w	r3, r3, #65536	; 0x10000
 8003f5c:	6ce1      	ldr	r1, [r4, #76]	; 0x4c
 8003f5e:	430b      	orrs	r3, r1
 8003f60:	64d3      	str	r3, [r2, #76]	; 0x4c
 8003f62:	e785      	b.n	8003e70 <HAL_RCCEx_PeriphCLKConfig+0x7f8>
 8003f64:	2102      	movs	r1, #2
 8003f66:	1d20      	adds	r0, r4, #4
 8003f68:	f7ff fa7a 	bl	8003460 <RCCEx_PLL2_Config>
 8003f6c:	4605      	mov	r5, r0
 8003f6e:	e7f0      	b.n	8003f52 <HAL_RCCEx_PeriphCLKConfig+0x8da>
 8003f70:	462e      	mov	r6, r5
 8003f72:	e77d      	b.n	8003e70 <HAL_RCCEx_PeriphCLKConfig+0x7f8>
 8003f74:	2102      	movs	r1, #2
 8003f76:	f104 0024 	add.w	r0, r4, #36	; 0x24
 8003f7a:	f7ff faf7 	bl	800356c <RCCEx_PLL3_Config>
 8003f7e:	2800      	cmp	r0, #0
 8003f80:	f43f af7a 	beq.w	8003e78 <HAL_RCCEx_PeriphCLKConfig+0x800>
 8003f84:	2601      	movs	r6, #1
 8003f86:	e777      	b.n	8003e78 <HAL_RCCEx_PeriphCLKConfig+0x800>
 8003f88:	2b00      	cmp	r3, #0
 8003f8a:	d087      	beq.n	8003e9c <HAL_RCCEx_PeriphCLKConfig+0x824>
 8003f8c:	2601      	movs	r6, #1
 8003f8e:	6823      	ldr	r3, [r4, #0]
 8003f90:	f413 1f80 	tst.w	r3, #1048576	; 0x100000
 8003f94:	d006      	beq.n	8003fa4 <HAL_RCCEx_PeriphCLKConfig+0x92c>
 8003f96:	4a28      	ldr	r2, [pc, #160]	; (8004038 <HAL_RCCEx_PeriphCLKConfig+0x9c0>)
 8003f98:	6d13      	ldr	r3, [r2, #80]	; 0x50
 8003f9a:	f023 4300 	bic.w	r3, r3, #2147483648	; 0x80000000
 8003f9e:	6f21      	ldr	r1, [r4, #112]	; 0x70
 8003fa0:	430b      	orrs	r3, r1
 8003fa2:	6513      	str	r3, [r2, #80]	; 0x50
 8003fa4:	6823      	ldr	r3, [r4, #0]
 8003fa6:	f013 5f80 	tst.w	r3, #268435456	; 0x10000000
 8003faa:	d007      	beq.n	8003fbc <HAL_RCCEx_PeriphCLKConfig+0x944>
 8003fac:	4a22      	ldr	r2, [pc, #136]	; (8004038 <HAL_RCCEx_PeriphCLKConfig+0x9c0>)
 8003fae:	6913      	ldr	r3, [r2, #16]
 8003fb0:	f423 4380 	bic.w	r3, r3, #16384	; 0x4000
 8003fb4:	f8d4 10b4 	ldr.w	r1, [r4, #180]	; 0xb4
 8003fb8:	430b      	orrs	r3, r1
 8003fba:	6113      	str	r3, [r2, #16]
 8003fbc:	6823      	ldr	r3, [r4, #0]
 8003fbe:	f413 1f00 	tst.w	r3, #2097152	; 0x200000
 8003fc2:	d006      	beq.n	8003fd2 <HAL_RCCEx_PeriphCLKConfig+0x95a>
 8003fc4:	4a1c      	ldr	r2, [pc, #112]	; (8004038 <HAL_RCCEx_PeriphCLKConfig+0x9c0>)
 8003fc6:	6d13      	ldr	r3, [r2, #80]	; 0x50
 8003fc8:	f023 7380 	bic.w	r3, r3, #16777216	; 0x1000000
 8003fcc:	6ea1      	ldr	r1, [r4, #104]	; 0x68
 8003fce:	430b      	orrs	r3, r1
 8003fd0:	6513      	str	r3, [r2, #80]	; 0x50
 8003fd2:	6823      	ldr	r3, [r4, #0]
 8003fd4:	f013 4f80 	tst.w	r3, #1073741824	; 0x40000000
 8003fd8:	d009      	beq.n	8003fee <HAL_RCCEx_PeriphCLKConfig+0x976>
 8003fda:	4b17      	ldr	r3, [pc, #92]	; (8004038 <HAL_RCCEx_PeriphCLKConfig+0x9c0>)
 8003fdc:	691a      	ldr	r2, [r3, #16]
 8003fde:	f422 4200 	bic.w	r2, r2, #32768	; 0x8000
 8003fe2:	611a      	str	r2, [r3, #16]
 8003fe4:	691a      	ldr	r2, [r3, #16]
 8003fe6:	f8d4 10b8 	ldr.w	r1, [r4, #184]	; 0xb8
 8003fea:	430a      	orrs	r2, r1
 8003fec:	611a      	str	r2, [r3, #16]
 8003fee:	6823      	ldr	r3, [r4, #0]
 8003ff0:	2b00      	cmp	r3, #0
 8003ff2:	db19      	blt.n	8004028 <HAL_RCCEx_PeriphCLKConfig+0x9b0>
 8003ff4:	6823      	ldr	r3, [r4, #0]
 8003ff6:	f413 0f00 	tst.w	r3, #8388608	; 0x800000
 8003ffa:	d007      	beq.n	800400c <HAL_RCCEx_PeriphCLKConfig+0x994>
 8003ffc:	4a0e      	ldr	r2, [pc, #56]	; (8004038 <HAL_RCCEx_PeriphCLKConfig+0x9c0>)
 8003ffe:	6d53      	ldr	r3, [r2, #84]	; 0x54
 8004000:	f423 0340 	bic.w	r3, r3, #12582912	; 0xc00000
 8004004:	f8d4 1088 	ldr.w	r1, [r4, #136]	; 0x88
 8004008:	430b      	orrs	r3, r1
 800400a:	6553      	str	r3, [r2, #84]	; 0x54
 800400c:	b106      	cbz	r6, 8004010 <HAL_RCCEx_PeriphCLKConfig+0x998>
 800400e:	2601      	movs	r6, #1
 8004010:	4630      	mov	r0, r6
 8004012:	bdf8      	pop	{r3, r4, r5, r6, r7, pc}
 8004014:	2601      	movs	r6, #1
 8004016:	e7ba      	b.n	8003f8e <HAL_RCCEx_PeriphCLKConfig+0x916>
 8004018:	4a07      	ldr	r2, [pc, #28]	; (8004038 <HAL_RCCEx_PeriphCLKConfig+0x9c0>)
 800401a:	6ad3      	ldr	r3, [r2, #44]	; 0x2c
 800401c:	f443 3300 	orr.w	r3, r3, #131072	; 0x20000
 8004020:	62d3      	str	r3, [r2, #44]	; 0x2c
 8004022:	e73b      	b.n	8003e9c <HAL_RCCEx_PeriphCLKConfig+0x824>
 8004024:	462e      	mov	r6, r5
 8004026:	e7b2      	b.n	8003f8e <HAL_RCCEx_PeriphCLKConfig+0x916>
 8004028:	4a03      	ldr	r2, [pc, #12]	; (8004038 <HAL_RCCEx_PeriphCLKConfig+0x9c0>)
 800402a:	6cd3      	ldr	r3, [r2, #76]	; 0x4c
 800402c:	f023 5340 	bic.w	r3, r3, #805306368	; 0x30000000
 8004030:	6d21      	ldr	r1, [r4, #80]	; 0x50
 8004032:	430b      	orrs	r3, r1
 8004034:	64d3      	str	r3, [r2, #76]	; 0x4c
 8004036:	e7dd      	b.n	8003ff4 <HAL_RCCEx_PeriphCLKConfig+0x97c>
 8004038:	58024400 	.word	0x58024400

0800403c <HAL_RCCEx_GetD3PCLK1Freq>:
 800403c:	b508      	push	{r3, lr}
 800403e:	f7ff f9ed 	bl	800341c <HAL_RCC_GetHCLKFreq>
 8004042:	4b05      	ldr	r3, [pc, #20]	; (8004058 <HAL_RCCEx_GetD3PCLK1Freq+0x1c>)
 8004044:	6a1b      	ldr	r3, [r3, #32]
 8004046:	f3c3 1302 	ubfx	r3, r3, #4, #3
 800404a:	4a04      	ldr	r2, [pc, #16]	; (800405c <HAL_RCCEx_GetD3PCLK1Freq+0x20>)
 800404c:	5cd3      	ldrb	r3, [r2, r3]
 800404e:	f003 031f 	and.w	r3, r3, #31
 8004052:	40d8      	lsrs	r0, r3
 8004054:	bd08      	pop	{r3, pc}
 8004056:	bf00      	nop
 8004058:	58024400 	.word	0x58024400
 800405c:	080050ac 	.word	0x080050ac

08004060 <HAL_RCCEx_GetPLL2ClockFreq>:
 8004060:	b430      	push	{r4, r5}
 8004062:	4a78      	ldr	r2, [pc, #480]	; (8004244 <HAL_RCCEx_GetPLL2ClockFreq+0x1e4>)
 8004064:	6a91      	ldr	r1, [r2, #40]	; 0x28
 8004066:	6a94      	ldr	r4, [r2, #40]	; 0x28
 8004068:	f3c4 3505 	ubfx	r5, r4, #12, #6
 800406c:	6ad3      	ldr	r3, [r2, #44]	; 0x2c
 800406e:	f3c3 1300 	ubfx	r3, r3, #4, #1
 8004072:	6bd2      	ldr	r2, [r2, #60]	; 0x3c
 8004074:	f3c2 02cc 	ubfx	r2, r2, #3, #13
 8004078:	fb03 f302 	mul.w	r3, r3, r2
 800407c:	f414 3f7c 	tst.w	r4, #258048	; 0x3f000
 8004080:	f000 80da 	beq.w	8004238 <HAL_RCCEx_GetPLL2ClockFreq+0x1d8>
 8004084:	f001 0103 	and.w	r1, r1, #3
 8004088:	ee07 3a90 	vmov	s15, r3
 800408c:	eef8 7a67 	vcvt.f32.u32	s15, s15
 8004090:	2901      	cmp	r1, #1
 8004092:	d066      	beq.n	8004162 <HAL_RCCEx_GetPLL2ClockFreq+0x102>
 8004094:	2902      	cmp	r1, #2
 8004096:	f000 80b2 	beq.w	80041fe <HAL_RCCEx_GetPLL2ClockFreq+0x19e>
 800409a:	b1e1      	cbz	r1, 80040d6 <HAL_RCCEx_GetPLL2ClockFreq+0x76>
 800409c:	ee07 5a10 	vmov	s14, r5
 80040a0:	eeb8 7a47 	vcvt.f32.u32	s14, s14
 80040a4:	ed9f 6a68 	vldr	s12, [pc, #416]	; 8004248 <HAL_RCCEx_GetPLL2ClockFreq+0x1e8>
 80040a8:	eec6 6a07 	vdiv.f32	s13, s12, s14
 80040ac:	4b65      	ldr	r3, [pc, #404]	; (8004244 <HAL_RCCEx_GetPLL2ClockFreq+0x1e4>)
 80040ae:	6b9b      	ldr	r3, [r3, #56]	; 0x38
 80040b0:	f3c3 0308 	ubfx	r3, r3, #0, #9
 80040b4:	ee07 3a10 	vmov	s14, r3
 80040b8:	eeb8 7a47 	vcvt.f32.u32	s14, s14
 80040bc:	ed9f 6a63 	vldr	s12, [pc, #396]	; 800424c <HAL_RCCEx_GetPLL2ClockFreq+0x1ec>
 80040c0:	ee67 7a86 	vmul.f32	s15, s15, s12
 80040c4:	ee77 7a27 	vadd.f32	s15, s14, s15
 80040c8:	eeb7 7a00 	vmov.f32	s14, #112	; 0x3f800000  1.0
 80040cc:	ee77 7a87 	vadd.f32	s15, s15, s14
 80040d0:	ee66 6aa7 	vmul.f32	s13, s13, s15
 80040d4:	e061      	b.n	800419a <HAL_RCCEx_GetPLL2ClockFreq+0x13a>
 80040d6:	4b5b      	ldr	r3, [pc, #364]	; (8004244 <HAL_RCCEx_GetPLL2ClockFreq+0x1e4>)
 80040d8:	681b      	ldr	r3, [r3, #0]
 80040da:	f013 0f20 	tst.w	r3, #32
 80040de:	d023      	beq.n	8004128 <HAL_RCCEx_GetPLL2ClockFreq+0xc8>
 80040e0:	4958      	ldr	r1, [pc, #352]	; (8004244 <HAL_RCCEx_GetPLL2ClockFreq+0x1e4>)
 80040e2:	680a      	ldr	r2, [r1, #0]
 80040e4:	f3c2 02c1 	ubfx	r2, r2, #3, #2
 80040e8:	4b59      	ldr	r3, [pc, #356]	; (8004250 <HAL_RCCEx_GetPLL2ClockFreq+0x1f0>)
 80040ea:	40d3      	lsrs	r3, r2
 80040ec:	ee07 3a10 	vmov	s14, r3
 80040f0:	eeb8 7a47 	vcvt.f32.u32	s14, s14
 80040f4:	ee06 5a90 	vmov	s13, r5
 80040f8:	eeb8 6a66 	vcvt.f32.u32	s12, s13
 80040fc:	eec7 6a06 	vdiv.f32	s13, s14, s12
 8004100:	6b8b      	ldr	r3, [r1, #56]	; 0x38
 8004102:	f3c3 0308 	ubfx	r3, r3, #0, #9
 8004106:	ee07 3a10 	vmov	s14, r3
 800410a:	eeb8 7a47 	vcvt.f32.u32	s14, s14
 800410e:	ed9f 6a4f 	vldr	s12, [pc, #316]	; 800424c <HAL_RCCEx_GetPLL2ClockFreq+0x1ec>
 8004112:	ee67 7a86 	vmul.f32	s15, s15, s12
 8004116:	ee77 7a27 	vadd.f32	s15, s14, s15
 800411a:	eeb7 7a00 	vmov.f32	s14, #112	; 0x3f800000  1.0
 800411e:	ee77 7a87 	vadd.f32	s15, s15, s14
 8004122:	ee66 6aa7 	vmul.f32	s13, s13, s15
 8004126:	e038      	b.n	800419a <HAL_RCCEx_GetPLL2ClockFreq+0x13a>
 8004128:	ee07 5a10 	vmov	s14, r5
 800412c:	eeb8 7a47 	vcvt.f32.u32	s14, s14
 8004130:	ed9f 6a48 	vldr	s12, [pc, #288]	; 8004254 <HAL_RCCEx_GetPLL2ClockFreq+0x1f4>
 8004134:	eec6 6a07 	vdiv.f32	s13, s12, s14
 8004138:	4b42      	ldr	r3, [pc, #264]	; (8004244 <HAL_RCCEx_GetPLL2ClockFreq+0x1e4>)
 800413a:	6b9b      	ldr	r3, [r3, #56]	; 0x38
 800413c:	f3c3 0308 	ubfx	r3, r3, #0, #9
 8004140:	ee07 3a10 	vmov	s14, r3
 8004144:	eeb8 7a47 	vcvt.f32.u32	s14, s14
 8004148:	ed9f 6a40 	vldr	s12, [pc, #256]	; 800424c <HAL_RCCEx_GetPLL2ClockFreq+0x1ec>
 800414c:	ee67 7a86 	vmul.f32	s15, s15, s12
 8004150:	ee77 7a27 	vadd.f32	s15, s14, s15
 8004154:	eeb7 7a00 	vmov.f32	s14, #112	; 0x3f800000  1.0
 8004158:	ee77 7a87 	vadd.f32	s15, s15, s14
 800415c:	ee66 6aa7 	vmul.f32	s13, s13, s15
 8004160:	e01b      	b.n	800419a <HAL_RCCEx_GetPLL2ClockFreq+0x13a>
 8004162:	ee07 5a10 	vmov	s14, r5
 8004166:	eeb8 7a47 	vcvt.f32.u32	s14, s14
 800416a:	ed9f 6a37 	vldr	s12, [pc, #220]	; 8004248 <HAL_RCCEx_GetPLL2ClockFreq+0x1e8>
 800416e:	eec6 6a07 	vdiv.f32	s13, s12, s14
 8004172:	4b34      	ldr	r3, [pc, #208]	; (8004244 <HAL_RCCEx_GetPLL2ClockFreq+0x1e4>)
 8004174:	6b9b      	ldr	r3, [r3, #56]	; 0x38
 8004176:	f3c3 0308 	ubfx	r3, r3, #0, #9
 800417a:	ee07 3a10 	vmov	s14, r3
 800417e:	eeb8 7a47 	vcvt.f32.u32	s14, s14
 8004182:	ed9f 6a32 	vldr	s12, [pc, #200]	; 800424c <HAL_RCCEx_GetPLL2ClockFreq+0x1ec>
 8004186:	ee67 7a86 	vmul.f32	s15, s15, s12
 800418a:	ee77 7a27 	vadd.f32	s15, s14, s15
 800418e:	eeb7 7a00 	vmov.f32	s14, #112	; 0x3f800000  1.0
 8004192:	ee77 7a87 	vadd.f32	s15, s15, s14
 8004196:	ee66 6aa7 	vmul.f32	s13, s13, s15
 800419a:	4a2a      	ldr	r2, [pc, #168]	; (8004244 <HAL_RCCEx_GetPLL2ClockFreq+0x1e4>)
 800419c:	6b93      	ldr	r3, [r2, #56]	; 0x38
 800419e:	f3c3 2346 	ubfx	r3, r3, #9, #7
 80041a2:	ee07 3a10 	vmov	s14, r3
 80041a6:	eeb8 7a47 	vcvt.f32.u32	s14, s14
 80041aa:	eeb7 6a00 	vmov.f32	s12, #112	; 0x3f800000  1.0
 80041ae:	ee37 7a06 	vadd.f32	s14, s14, s12
 80041b2:	eec6 7a87 	vdiv.f32	s15, s13, s14
 80041b6:	eefc 7ae7 	vcvt.u32.f32	s15, s15
 80041ba:	edc0 7a00 	vstr	s15, [r0]
 80041be:	6b93      	ldr	r3, [r2, #56]	; 0x38
 80041c0:	f3c3 4306 	ubfx	r3, r3, #16, #7
 80041c4:	ee07 3a10 	vmov	s14, r3
 80041c8:	eeb8 7a47 	vcvt.f32.u32	s14, s14
 80041cc:	ee37 7a06 	vadd.f32	s14, s14, s12
 80041d0:	eec6 7a87 	vdiv.f32	s15, s13, s14
 80041d4:	eefc 7ae7 	vcvt.u32.f32	s15, s15
 80041d8:	edc0 7a01 	vstr	s15, [r0, #4]
 80041dc:	6b93      	ldr	r3, [r2, #56]	; 0x38
 80041de:	f3c3 6306 	ubfx	r3, r3, #24, #7
 80041e2:	ee07 3a90 	vmov	s15, r3
 80041e6:	eef8 7a67 	vcvt.f32.u32	s15, s15
 80041ea:	ee77 7a86 	vadd.f32	s15, s15, s12
 80041ee:	ee86 7aa7 	vdiv.f32	s14, s13, s15
 80041f2:	eebc 7ac7 	vcvt.u32.f32	s14, s14
 80041f6:	ed80 7a02 	vstr	s14, [r0, #8]
 80041fa:	bc30      	pop	{r4, r5}
 80041fc:	4770      	bx	lr
 80041fe:	ee07 5a10 	vmov	s14, r5
 8004202:	eeb8 7a47 	vcvt.f32.u32	s14, s14
 8004206:	ed9f 6a14 	vldr	s12, [pc, #80]	; 8004258 <HAL_RCCEx_GetPLL2ClockFreq+0x1f8>
 800420a:	eec6 6a07 	vdiv.f32	s13, s12, s14
 800420e:	4b0d      	ldr	r3, [pc, #52]	; (8004244 <HAL_RCCEx_GetPLL2ClockFreq+0x1e4>)
 8004210:	6b9b      	ldr	r3, [r3, #56]	; 0x38
 8004212:	f3c3 0308 	ubfx	r3, r3, #0, #9
 8004216:	ee07 3a10 	vmov	s14, r3
 800421a:	eeb8 7a47 	vcvt.f32.u32	s14, s14
 800421e:	ed9f 6a0b 	vldr	s12, [pc, #44]	; 800424c <HAL_RCCEx_GetPLL2ClockFreq+0x1ec>
 8004222:	ee67 7a86 	vmul.f32	s15, s15, s12
 8004226:	ee77 7a27 	vadd.f32	s15, s14, s15
 800422a:	eeb7 7a00 	vmov.f32	s14, #112	; 0x3f800000  1.0
 800422e:	ee77 7a87 	vadd.f32	s15, s15, s14
 8004232:	ee66 6aa7 	vmul.f32	s13, s13, s15
 8004236:	e7b0      	b.n	800419a <HAL_RCCEx_GetPLL2ClockFreq+0x13a>
 8004238:	2300      	movs	r3, #0
 800423a:	6003      	str	r3, [r0, #0]
 800423c:	6043      	str	r3, [r0, #4]
 800423e:	6083      	str	r3, [r0, #8]
 8004240:	e7db      	b.n	80041fa <HAL_RCCEx_GetPLL2ClockFreq+0x19a>
 8004242:	bf00      	nop
 8004244:	58024400 	.word	0x58024400
 8004248:	4a742400 	.word	0x4a742400
 800424c:	39000000 	.word	0x39000000
 8004250:	03d09000 	.word	0x03d09000
 8004254:	4c742400 	.word	0x4c742400
 8004258:	4bbebc20 	.word	0x4bbebc20

0800425c <HAL_RCCEx_GetPLL3ClockFreq>:
 800425c:	b430      	push	{r4, r5}
 800425e:	4a78      	ldr	r2, [pc, #480]	; (8004440 <HAL_RCCEx_GetPLL3ClockFreq+0x1e4>)
 8004260:	6a91      	ldr	r1, [r2, #40]	; 0x28
 8004262:	6a94      	ldr	r4, [r2, #40]	; 0x28
 8004264:	f3c4 5505 	ubfx	r5, r4, #20, #6
 8004268:	6ad3      	ldr	r3, [r2, #44]	; 0x2c
 800426a:	f3c3 2300 	ubfx	r3, r3, #8, #1
 800426e:	6c52      	ldr	r2, [r2, #68]	; 0x44
 8004270:	f3c2 02cc 	ubfx	r2, r2, #3, #13
 8004274:	fb03 f302 	mul.w	r3, r3, r2
 8004278:	f014 7f7c 	tst.w	r4, #66060288	; 0x3f00000
 800427c:	f000 80da 	beq.w	8004434 <HAL_RCCEx_GetPLL3ClockFreq+0x1d8>
 8004280:	f001 0103 	and.w	r1, r1, #3
 8004284:	ee07 3a90 	vmov	s15, r3
 8004288:	eef8 7a67 	vcvt.f32.u32	s15, s15
 800428c:	2901      	cmp	r1, #1
 800428e:	d066      	beq.n	800435e <HAL_RCCEx_GetPLL3ClockFreq+0x102>
 8004290:	2902      	cmp	r1, #2
 8004292:	f000 80b2 	beq.w	80043fa <HAL_RCCEx_GetPLL3ClockFreq+0x19e>
 8004296:	b1e1      	cbz	r1, 80042d2 <HAL_RCCEx_GetPLL3ClockFreq+0x76>
 8004298:	ee07 5a10 	vmov	s14, r5
 800429c:	eeb8 7a47 	vcvt.f32.u32	s14, s14
 80042a0:	ed9f 6a68 	vldr	s12, [pc, #416]	; 8004444 <HAL_RCCEx_GetPLL3ClockFreq+0x1e8>
 80042a4:	eec6 6a07 	vdiv.f32	s13, s12, s14
 80042a8:	4b65      	ldr	r3, [pc, #404]	; (8004440 <HAL_RCCEx_GetPLL3ClockFreq+0x1e4>)
 80042aa:	6c1b      	ldr	r3, [r3, #64]	; 0x40
 80042ac:	f3c3 0308 	ubfx	r3, r3, #0, #9
 80042b0:	ee07 3a10 	vmov	s14, r3
 80042b4:	eeb8 7a47 	vcvt.f32.u32	s14, s14
 80042b8:	ed9f 6a63 	vldr	s12, [pc, #396]	; 8004448 <HAL_RCCEx_GetPLL3ClockFreq+0x1ec>
 80042bc:	ee67 7a86 	vmul.f32	s15, s15, s12
 80042c0:	ee77 7a27 	vadd.f32	s15, s14, s15
 80042c4:	eeb7 7a00 	vmov.f32	s14, #112	; 0x3f800000  1.0
 80042c8:	ee77 7a87 	vadd.f32	s15, s15, s14
 80042cc:	ee66 6aa7 	vmul.f32	s13, s13, s15
 80042d0:	e061      	b.n	8004396 <HAL_RCCEx_GetPLL3ClockFreq+0x13a>
 80042d2:	4b5b      	ldr	r3, [pc, #364]	; (8004440 <HAL_RCCEx_GetPLL3ClockFreq+0x1e4>)
 80042d4:	681b      	ldr	r3, [r3, #0]
 80042d6:	f013 0f20 	tst.w	r3, #32
 80042da:	d023      	beq.n	8004324 <HAL_RCCEx_GetPLL3ClockFreq+0xc8>
 80042dc:	4958      	ldr	r1, [pc, #352]	; (8004440 <HAL_RCCEx_GetPLL3ClockFreq+0x1e4>)
 80042de:	680a      	ldr	r2, [r1, #0]
 80042e0:	f3c2 02c1 	ubfx	r2, r2, #3, #2
 80042e4:	4b59      	ldr	r3, [pc, #356]	; (800444c <HAL_RCCEx_GetPLL3ClockFreq+0x1f0>)
 80042e6:	40d3      	lsrs	r3, r2
 80042e8:	ee07 3a10 	vmov	s14, r3
 80042ec:	eeb8 7a47 	vcvt.f32.u32	s14, s14
 80042f0:	ee06 5a90 	vmov	s13, r5
 80042f4:	eeb8 6a66 	vcvt.f32.u32	s12, s13
 80042f8:	eec7 6a06 	vdiv.f32	s13, s14, s12
 80042fc:	6c0b      	ldr	r3, [r1, #64]	; 0x40
 80042fe:	f3c3 0308 	ubfx	r3, r3, #0, #9
 8004302:	ee07 3a10 	vmov	s14, r3
 8004306:	eeb8 7a47 	vcvt.f32.u32	s14, s14
 800430a:	ed9f 6a4f 	vldr	s12, [pc, #316]	; 8004448 <HAL_RCCEx_GetPLL3ClockFreq+0x1ec>
 800430e:	ee67 7a86 	vmul.f32	s15, s15, s12
 8004312:	ee77 7a27 	vadd.f32	s15, s14, s15
 8004316:	eeb7 7a00 	vmov.f32	s14, #112	; 0x3f800000  1.0
 800431a:	ee77 7a87 	vadd.f32	s15, s15, s14
 800431e:	ee66 6aa7 	vmul.f32	s13, s13, s15
 8004322:	e038      	b.n	8004396 <HAL_RCCEx_GetPLL3ClockFreq+0x13a>
 8004324:	ee07 5a10 	vmov	s14, r5
 8004328:	eeb8 7a47 	vcvt.f32.u32	s14, s14
 800432c:	ed9f 6a48 	vldr	s12, [pc, #288]	; 8004450 <HAL_RCCEx_GetPLL3ClockFreq+0x1f4>
 8004330:	eec6 6a07 	vdiv.f32	s13, s12, s14
 8004334:	4b42      	ldr	r3, [pc, #264]	; (8004440 <HAL_RCCEx_GetPLL3ClockFreq+0x1e4>)
 8004336:	6c1b      	ldr	r3, [r3, #64]	; 0x40
 8004338:	f3c3 0308 	ubfx	r3, r3, #0, #9
 800433c:	ee07 3a10 	vmov	s14, r3
 8004340:	eeb8 7a47 	vcvt.f32.u32	s14, s14
 8004344:	ed9f 6a40 	vldr	s12, [pc, #256]	; 8004448 <HAL_RCCEx_GetPLL3ClockFreq+0x1ec>
 8004348:	ee67 7a86 	vmul.f32	s15, s15, s12
 800434c:	ee77 7a27 	vadd.f32	s15, s14, s15
 8004350:	eeb7 7a00 	vmov.f32	s14, #112	; 0x3f800000  1.0
 8004354:	ee77 7a87 	vadd.f32	s15, s15, s14
 8004358:	ee66 6aa7 	vmul.f32	s13, s13, s15
 800435c:	e01b      	b.n	8004396 <HAL_RCCEx_GetPLL3ClockFreq+0x13a>
 800435e:	ee07 5a10 	vmov	s14, r5
 8004362:	eeb8 7a47 	vcvt.f32.u32	s14, s14
 8004366:	ed9f 6a37 	vldr	s12, [pc, #220]	; 8004444 <HAL_RCCEx_GetPLL3ClockFreq+0x1e8>
 800436a:	eec6 6a07 	vdiv.f32	s13, s12, s14
 800436e:	4b34      	ldr	r3, [pc, #208]	; (8004440 <HAL_RCCEx_GetPLL3ClockFreq+0x1e4>)
 8004370:	6c1b      	ldr	r3, [r3, #64]	; 0x40
 8004372:	f3c3 0308 	ubfx	r3, r3, #0, #9
 8004376:	ee07 3a10 	vmov	s14, r3
 800437a:	eeb8 7a47 	vcvt.f32.u32	s14, s14
 800437e:	ed9f 6a32 	vldr	s12, [pc, #200]	; 8004448 <HAL_RCCEx_GetPLL3ClockFreq+0x1ec>
 8004382:	ee67 7a86 	vmul.f32	s15, s15, s12
 8004386:	ee77 7a27 	vadd.f32	s15, s14, s15
 800438a:	eeb7 7a00 	vmov.f32	s14, #112	; 0x3f800000  1.0
 800438e:	ee77 7a87 	vadd.f32	s15, s15, s14
 8004392:	ee66 6aa7 	vmul.f32	s13, s13, s15
 8004396:	4a2a      	ldr	r2, [pc, #168]	; (8004440 <HAL_RCCEx_GetPLL3ClockFreq+0x1e4>)
 8004398:	6c13      	ldr	r3, [r2, #64]	; 0x40
 800439a:	f3c3 2346 	ubfx	r3, r3, #9, #7
 800439e:	ee07 3a10 	vmov	s14, r3
 80043a2:	eeb8 7a47 	vcvt.f32.u32	s14, s14
 80043a6:	eeb7 6a00 	vmov.f32	s12, #112	; 0x3f800000  1.0
 80043aa:	ee37 7a06 	vadd.f32	s14, s14, s12
 80043ae:	eec6 7a87 	vdiv.f32	s15, s13, s14
 80043b2:	eefc 7ae7 	vcvt.u32.f32	s15, s15
 80043b6:	edc0 7a00 	vstr	s15, [r0]
 80043ba:	6c13      	ldr	r3, [r2, #64]	; 0x40
 80043bc:	f3c3 4306 	ubfx	r3, r3, #16, #7
 80043c0:	ee07 3a10 	vmov	s14, r3
 80043c4:	eeb8 7a47 	vcvt.f32.u32	s14, s14
 80043c8:	ee37 7a06 	vadd.f32	s14, s14, s12
 80043cc:	eec6 7a87 	vdiv.f32	s15, s13, s14
 80043d0:	eefc 7ae7 	vcvt.u32.f32	s15, s15
 80043d4:	edc0 7a01 	vstr	s15, [r0, #4]
 80043d8:	6c13      	ldr	r3, [r2, #64]	; 0x40
 80043da:	f3c3 6306 	ubfx	r3, r3, #24, #7
 80043de:	ee07 3a90 	vmov	s15, r3
 80043e2:	eef8 7a67 	vcvt.f32.u32	s15, s15
 80043e6:	ee77 7a86 	vadd.f32	s15, s15, s12
 80043ea:	ee86 7aa7 	vdiv.f32	s14, s13, s15
 80043ee:	eebc 7ac7 	vcvt.u32.f32	s14, s14
 80043f2:	ed80 7a02 	vstr	s14, [r0, #8]
 80043f6:	bc30      	pop	{r4, r5}
 80043f8:	4770      	bx	lr
 80043fa:	ee07 5a10 	vmov	s14, r5
 80043fe:	eeb8 7a47 	vcvt.f32.u32	s14, s14
 8004402:	ed9f 6a14 	vldr	s12, [pc, #80]	; 8004454 <HAL_RCCEx_GetPLL3ClockFreq+0x1f8>
 8004406:	eec6 6a07 	vdiv.f32	s13, s12, s14
 800440a:	4b0d      	ldr	r3, [pc, #52]	; (8004440 <HAL_RCCEx_GetPLL3ClockFreq+0x1e4>)
 800440c:	6c1b      	ldr	r3, [r3, #64]	; 0x40
 800440e:	f3c3 0308 	ubfx	r3, r3, #0, #9
 8004412:	ee07 3a10 	vmov	s14, r3
 8004416:	eeb8 7a47 	vcvt.f32.u32	s14, s14
 800441a:	ed9f 6a0b 	vldr	s12, [pc, #44]	; 8004448 <HAL_RCCEx_GetPLL3ClockFreq+0x1ec>
 800441e:	ee67 7a86 	vmul.f32	s15, s15, s12
 8004422:	ee77 7a27 	vadd.f32	s15, s14, s15
 8004426:	eeb7 7a00 	vmov.f32	s14, #112	; 0x3f800000  1.0
 800442a:	ee77 7a87 	vadd.f32	s15, s15, s14
 800442e:	ee66 6aa7 	vmul.f32	s13, s13, s15
 8004432:	e7b0      	b.n	8004396 <HAL_RCCEx_GetPLL3ClockFreq+0x13a>
 8004434:	2300      	movs	r3, #0
 8004436:	6003      	str	r3, [r0, #0]
 8004438:	6043      	str	r3, [r0, #4]
 800443a:	6083      	str	r3, [r0, #8]
 800443c:	e7db      	b.n	80043f6 <HAL_RCCEx_GetPLL3ClockFreq+0x19a>
 800443e:	bf00      	nop
 8004440:	58024400 	.word	0x58024400
 8004444:	4a742400 	.word	0x4a742400
 8004448:	39000000 	.word	0x39000000
 800444c:	03d09000 	.word	0x03d09000
 8004450:	4c742400 	.word	0x4c742400
 8004454:	4bbebc20 	.word	0x4bbebc20

08004458 <HAL_RCCEx_GetPLL1ClockFreq>:
 8004458:	b430      	push	{r4, r5}
 800445a:	4a78      	ldr	r2, [pc, #480]	; (800463c <HAL_RCCEx_GetPLL1ClockFreq+0x1e4>)
 800445c:	6a91      	ldr	r1, [r2, #40]	; 0x28
 800445e:	6a94      	ldr	r4, [r2, #40]	; 0x28
 8004460:	f3c4 1505 	ubfx	r5, r4, #4, #6
 8004464:	6ad3      	ldr	r3, [r2, #44]	; 0x2c
 8004466:	f003 0301 	and.w	r3, r3, #1
 800446a:	6b52      	ldr	r2, [r2, #52]	; 0x34
 800446c:	f3c2 02cc 	ubfx	r2, r2, #3, #13
 8004470:	fb03 f302 	mul.w	r3, r3, r2
 8004474:	f414 7f7c 	tst.w	r4, #1008	; 0x3f0
 8004478:	f000 80da 	beq.w	8004630 <HAL_RCCEx_GetPLL1ClockFreq+0x1d8>
 800447c:	f001 0103 	and.w	r1, r1, #3
 8004480:	ee07 3a90 	vmov	s15, r3
 8004484:	eef8 7a67 	vcvt.f32.u32	s15, s15
 8004488:	2901      	cmp	r1, #1
 800448a:	d066      	beq.n	800455a <HAL_RCCEx_GetPLL1ClockFreq+0x102>
 800448c:	2902      	cmp	r1, #2
 800448e:	f000 80b2 	beq.w	80045f6 <HAL_RCCEx_GetPLL1ClockFreq+0x19e>
 8004492:	b1e1      	cbz	r1, 80044ce <HAL_RCCEx_GetPLL1ClockFreq+0x76>
 8004494:	ee07 5a10 	vmov	s14, r5
 8004498:	eeb8 7a47 	vcvt.f32.u32	s14, s14
 800449c:	ed9f 6a68 	vldr	s12, [pc, #416]	; 8004640 <HAL_RCCEx_GetPLL1ClockFreq+0x1e8>
 80044a0:	eec6 6a07 	vdiv.f32	s13, s12, s14
 80044a4:	4b65      	ldr	r3, [pc, #404]	; (800463c <HAL_RCCEx_GetPLL1ClockFreq+0x1e4>)
 80044a6:	6b1b      	ldr	r3, [r3, #48]	; 0x30
 80044a8:	f3c3 0308 	ubfx	r3, r3, #0, #9
 80044ac:	ee07 3a10 	vmov	s14, r3
 80044b0:	eeb8 7a47 	vcvt.f32.u32	s14, s14
 80044b4:	ed9f 6a63 	vldr	s12, [pc, #396]	; 8004644 <HAL_RCCEx_GetPLL1ClockFreq+0x1ec>
 80044b8:	ee67 7a86 	vmul.f32	s15, s15, s12
 80044bc:	ee77 7a27 	vadd.f32	s15, s14, s15
 80044c0:	eeb7 7a00 	vmov.f32	s14, #112	; 0x3f800000  1.0
 80044c4:	ee77 7a87 	vadd.f32	s15, s15, s14
 80044c8:	ee66 6aa7 	vmul.f32	s13, s13, s15
 80044cc:	e061      	b.n	8004592 <HAL_RCCEx_GetPLL1ClockFreq+0x13a>
 80044ce:	4b5b      	ldr	r3, [pc, #364]	; (800463c <HAL_RCCEx_GetPLL1ClockFreq+0x1e4>)
 80044d0:	681b      	ldr	r3, [r3, #0]
 80044d2:	f013 0f20 	tst.w	r3, #32
 80044d6:	d023      	beq.n	8004520 <HAL_RCCEx_GetPLL1ClockFreq+0xc8>
 80044d8:	4958      	ldr	r1, [pc, #352]	; (800463c <HAL_RCCEx_GetPLL1ClockFreq+0x1e4>)
 80044da:	680a      	ldr	r2, [r1, #0]
 80044dc:	f3c2 02c1 	ubfx	r2, r2, #3, #2
 80044e0:	4b59      	ldr	r3, [pc, #356]	; (8004648 <HAL_RCCEx_GetPLL1ClockFreq+0x1f0>)
 80044e2:	40d3      	lsrs	r3, r2
 80044e4:	ee07 3a10 	vmov	s14, r3
 80044e8:	eeb8 7a47 	vcvt.f32.u32	s14, s14
 80044ec:	ee06 5a90 	vmov	s13, r5
 80044f0:	eeb8 6a66 	vcvt.f32.u32	s12, s13
 80044f4:	eec7 6a06 	vdiv.f32	s13, s14, s12
 80044f8:	6b0b      	ldr	r3, [r1, #48]	; 0x30
 80044fa:	f3c3 0308 	ubfx	r3, r3, #0, #9
 80044fe:	ee07 3a10 	vmov	s14, r3
 8004502:	eeb8 7a47 	vcvt.f32.u32	s14, s14
 8004506:	ed9f 6a4f 	vldr	s12, [pc, #316]	; 8004644 <HAL_RCCEx_GetPLL1ClockFreq+0x1ec>
 800450a:	ee67 7a86 	vmul.f32	s15, s15, s12
 800450e:	ee77 7a27 	vadd.f32	s15, s14, s15
 8004512:	eeb7 7a00 	vmov.f32	s14, #112	; 0x3f800000  1.0
 8004516:	ee77 7a87 	vadd.f32	s15, s15, s14
 800451a:	ee66 6aa7 	vmul.f32	s13, s13, s15
 800451e:	e038      	b.n	8004592 <HAL_RCCEx_GetPLL1ClockFreq+0x13a>
 8004520:	ee07 5a10 	vmov	s14, r5
 8004524:	eeb8 7a47 	vcvt.f32.u32	s14, s14
 8004528:	ed9f 6a45 	vldr	s12, [pc, #276]	; 8004640 <HAL_RCCEx_GetPLL1ClockFreq+0x1e8>
 800452c:	eec6 6a07 	vdiv.f32	s13, s12, s14
 8004530:	4b42      	ldr	r3, [pc, #264]	; (800463c <HAL_RCCEx_GetPLL1ClockFreq+0x1e4>)
 8004532:	6b1b      	ldr	r3, [r3, #48]	; 0x30
 8004534:	f3c3 0308 	ubfx	r3, r3, #0, #9
 8004538:	ee07 3a10 	vmov	s14, r3
 800453c:	eeb8 7a47 	vcvt.f32.u32	s14, s14
 8004540:	ed9f 6a40 	vldr	s12, [pc, #256]	; 8004644 <HAL_RCCEx_GetPLL1ClockFreq+0x1ec>
 8004544:	ee67 7a86 	vmul.f32	s15, s15, s12
 8004548:	ee77 7a27 	vadd.f32	s15, s14, s15
 800454c:	eeb7 7a00 	vmov.f32	s14, #112	; 0x3f800000  1.0
 8004550:	ee77 7a87 	vadd.f32	s15, s15, s14
 8004554:	ee66 6aa7 	vmul.f32	s13, s13, s15
 8004558:	e01b      	b.n	8004592 <HAL_RCCEx_GetPLL1ClockFreq+0x13a>
 800455a:	ee07 5a10 	vmov	s14, r5
 800455e:	eeb8 7a47 	vcvt.f32.u32	s14, s14
 8004562:	ed9f 6a3a 	vldr	s12, [pc, #232]	; 800464c <HAL_RCCEx_GetPLL1ClockFreq+0x1f4>
 8004566:	eec6 6a07 	vdiv.f32	s13, s12, s14
 800456a:	4b34      	ldr	r3, [pc, #208]	; (800463c <HAL_RCCEx_GetPLL1ClockFreq+0x1e4>)
 800456c:	6b1b      	ldr	r3, [r3, #48]	; 0x30
 800456e:	f3c3 0308 	ubfx	r3, r3, #0, #9
 8004572:	ee07 3a10 	vmov	s14, r3
 8004576:	eeb8 7a47 	vcvt.f32.u32	s14, s14
 800457a:	ed9f 6a32 	vldr	s12, [pc, #200]	; 8004644 <HAL_RCCEx_GetPLL1ClockFreq+0x1ec>
 800457e:	ee67 7a86 	vmul.f32	s15, s15, s12
 8004582:	ee77 7a27 	vadd.f32	s15, s14, s15
 8004586:	eeb7 7a00 	vmov.f32	s14, #112	; 0x3f800000  1.0
 800458a:	ee77 7a87 	vadd.f32	s15, s15, s14
 800458e:	ee66 6aa7 	vmul.f32	s13, s13, s15
 8004592:	4a2a      	ldr	r2, [pc, #168]	; (800463c <HAL_RCCEx_GetPLL1ClockFreq+0x1e4>)
 8004594:	6b13      	ldr	r3, [r2, #48]	; 0x30
 8004596:	f3c3 2346 	ubfx	r3, r3, #9, #7
 800459a:	ee07 3a10 	vmov	s14, r3
 800459e:	eeb8 7a47 	vcvt.f32.u32	s14, s14
 80045a2:	eeb7 6a00 	vmov.f32	s12, #112	; 0x3f800000  1.0
 80045a6:	ee37 7a06 	vadd.f32	s14, s14, s12
 80045aa:	eec6 7a87 	vdiv.f32	s15, s13, s14
 80045ae:	eefc 7ae7 	vcvt.u32.f32	s15, s15
 80045b2:	edc0 7a00 	vstr	s15, [r0]
 80045b6:	6b13      	ldr	r3, [r2, #48]	; 0x30
 80045b8:	f3c3 4306 	ubfx	r3, r3, #16, #7
 80045bc:	ee07 3a10 	vmov	s14, r3
 80045c0:	eeb8 7a47 	vcvt.f32.u32	s14, s14
 80045c4:	ee37 7a06 	vadd.f32	s14, s14, s12
 80045c8:	eec6 7a87 	vdiv.f32	s15, s13, s14
 80045cc:	eefc 7ae7 	vcvt.u32.f32	s15, s15
 80045d0:	edc0 7a01 	vstr	s15, [r0, #4]
 80045d4:	6b13      	ldr	r3, [r2, #48]	; 0x30
 80045d6:	f3c3 6306 	ubfx	r3, r3, #24, #7
 80045da:	ee07 3a90 	vmov	s15, r3
 80045de:	eef8 7a67 	vcvt.f32.u32	s15, s15
 80045e2:	ee77 7a86 	vadd.f32	s15, s15, s12
 80045e6:	ee86 7aa7 	vdiv.f32	s14, s13, s15
 80045ea:	eebc 7ac7 	vcvt.u32.f32	s14, s14
 80045ee:	ed80 7a02 	vstr	s14, [r0, #8]
 80045f2:	bc30      	pop	{r4, r5}
 80045f4:	4770      	bx	lr
 80045f6:	ee07 5a10 	vmov	s14, r5
 80045fa:	eeb8 7a47 	vcvt.f32.u32	s14, s14
 80045fe:	ed9f 6a14 	vldr	s12, [pc, #80]	; 8004650 <HAL_RCCEx_GetPLL1ClockFreq+0x1f8>
 8004602:	eec6 6a07 	vdiv.f32	s13, s12, s14
 8004606:	4b0d      	ldr	r3, [pc, #52]	; (800463c <HAL_RCCEx_GetPLL1ClockFreq+0x1e4>)
 8004608:	6b1b      	ldr	r3, [r3, #48]	; 0x30
 800460a:	f3c3 0308 	ubfx	r3, r3, #0, #9
 800460e:	ee07 3a10 	vmov	s14, r3
 8004612:	eeb8 7a47 	vcvt.f32.u32	s14, s14
 8004616:	ed9f 6a0b 	vldr	s12, [pc, #44]	; 8004644 <HAL_RCCEx_GetPLL1ClockFreq+0x1ec>
 800461a:	ee67 7a86 	vmul.f32	s15, s15, s12
 800461e:	ee77 7a27 	vadd.f32	s15, s14, s15
 8004622:	eeb7 7a00 	vmov.f32	s14, #112	; 0x3f800000  1.0
 8004626:	ee77 7a87 	vadd.f32	s15, s15, s14
 800462a:	ee66 6aa7 	vmul.f32	s13, s13, s15
 800462e:	e7b0      	b.n	8004592 <HAL_RCCEx_GetPLL1ClockFreq+0x13a>
 8004630:	2300      	movs	r3, #0
 8004632:	6003      	str	r3, [r0, #0]
 8004634:	6043      	str	r3, [r0, #4]
 8004636:	6083      	str	r3, [r0, #8]
 8004638:	e7db      	b.n	80045f2 <HAL_RCCEx_GetPLL1ClockFreq+0x19a>
 800463a:	bf00      	nop
 800463c:	58024400 	.word	0x58024400
 8004640:	4c742400 	.word	0x4c742400
 8004644:	39000000 	.word	0x39000000
 8004648:	03d09000 	.word	0x03d09000
 800464c:	4a742400 	.word	0x4a742400
 8004650:	4bbebc20 	.word	0x4bbebc20

08004654 <HAL_RCCEx_GetPeriphCLKFreq>:
 8004654:	b500      	push	{lr}
 8004656:	b08b      	sub	sp, #44	; 0x2c
 8004658:	f5b0 7f80 	cmp.w	r0, #256	; 0x100
 800465c:	d020      	beq.n	80046a0 <HAL_RCCEx_GetPeriphCLKFreq+0x4c>
 800465e:	f5b0 7f00 	cmp.w	r0, #512	; 0x200
 8004662:	d071      	beq.n	8004748 <HAL_RCCEx_GetPeriphCLKFreq+0xf4>
 8004664:	f5b0 6f80 	cmp.w	r0, #1024	; 0x400
 8004668:	f000 80c8 	beq.w	80047fc <HAL_RCCEx_GetPeriphCLKFreq+0x1a8>
 800466c:	f5b0 6f00 	cmp.w	r0, #2048	; 0x800
 8004670:	f000 8121 	beq.w	80048b6 <HAL_RCCEx_GetPeriphCLKFreq+0x262>
 8004674:	f5b0 5f80 	cmp.w	r0, #4096	; 0x1000
 8004678:	f000 8182 	beq.w	8004980 <HAL_RCCEx_GetPeriphCLKFreq+0x32c>
 800467c:	f5b0 2f00 	cmp.w	r0, #524288	; 0x80000
 8004680:	f000 81db 	beq.w	8004a3a <HAL_RCCEx_GetPeriphCLKFreq+0x3e6>
 8004684:	f5b0 3f80 	cmp.w	r0, #65536	; 0x10000
 8004688:	f000 821f 	beq.w	8004aca <HAL_RCCEx_GetPeriphCLKFreq+0x476>
 800468c:	f5b0 4f80 	cmp.w	r0, #16384	; 0x4000
 8004690:	f000 8239 	beq.w	8004b06 <HAL_RCCEx_GetPeriphCLKFreq+0x4b2>
 8004694:	f5b0 4f00 	cmp.w	r0, #32768	; 0x8000
 8004698:	f000 827e 	beq.w	8004b98 <HAL_RCCEx_GetPeriphCLKFreq+0x544>
 800469c:	2000      	movs	r0, #0
 800469e:	e2b4      	b.n	8004c0a <HAL_RCCEx_GetPeriphCLKFreq+0x5b6>
 80046a0:	4ba4      	ldr	r3, [pc, #656]	; (8004934 <HAL_RCCEx_GetPeriphCLKFreq+0x2e0>)
 80046a2:	6d1b      	ldr	r3, [r3, #80]	; 0x50
 80046a4:	f003 0307 	and.w	r3, r3, #7
 80046a8:	2b04      	cmp	r3, #4
 80046aa:	f200 82a5 	bhi.w	8004bf8 <HAL_RCCEx_GetPeriphCLKFreq+0x5a4>
 80046ae:	e8df f003 	tbb	[pc, r3]
 80046b2:	1005      	.short	0x1005
 80046b4:	031b      	.short	0x031b
 80046b6:	26          	.byte	0x26
 80046b7:	00          	.byte	0x00
 80046b8:	489f      	ldr	r0, [pc, #636]	; (8004938 <HAL_RCCEx_GetPeriphCLKFreq+0x2e4>)
 80046ba:	e2a6      	b.n	8004c0a <HAL_RCCEx_GetPeriphCLKFreq+0x5b6>
 80046bc:	4b9d      	ldr	r3, [pc, #628]	; (8004934 <HAL_RCCEx_GetPeriphCLKFreq+0x2e0>)
 80046be:	6818      	ldr	r0, [r3, #0]
 80046c0:	f010 7000 	ands.w	r0, r0, #33554432	; 0x2000000
 80046c4:	f000 82a1 	beq.w	8004c0a <HAL_RCCEx_GetPeriphCLKFreq+0x5b6>
 80046c8:	a807      	add	r0, sp, #28
 80046ca:	f7ff fec5 	bl	8004458 <HAL_RCCEx_GetPLL1ClockFreq>
 80046ce:	9808      	ldr	r0, [sp, #32]
 80046d0:	e29b      	b.n	8004c0a <HAL_RCCEx_GetPeriphCLKFreq+0x5b6>
 80046d2:	4b98      	ldr	r3, [pc, #608]	; (8004934 <HAL_RCCEx_GetPeriphCLKFreq+0x2e0>)
 80046d4:	6818      	ldr	r0, [r3, #0]
 80046d6:	f010 6000 	ands.w	r0, r0, #134217728	; 0x8000000
 80046da:	f000 8296 	beq.w	8004c0a <HAL_RCCEx_GetPeriphCLKFreq+0x5b6>
 80046de:	a804      	add	r0, sp, #16
 80046e0:	f7ff fcbe 	bl	8004060 <HAL_RCCEx_GetPLL2ClockFreq>
 80046e4:	9804      	ldr	r0, [sp, #16]
 80046e6:	e290      	b.n	8004c0a <HAL_RCCEx_GetPeriphCLKFreq+0x5b6>
 80046e8:	4b92      	ldr	r3, [pc, #584]	; (8004934 <HAL_RCCEx_GetPeriphCLKFreq+0x2e0>)
 80046ea:	6818      	ldr	r0, [r3, #0]
 80046ec:	f010 5000 	ands.w	r0, r0, #536870912	; 0x20000000
 80046f0:	f000 828b 	beq.w	8004c0a <HAL_RCCEx_GetPeriphCLKFreq+0x5b6>
 80046f4:	a801      	add	r0, sp, #4
 80046f6:	f7ff fdb1 	bl	800425c <HAL_RCCEx_GetPLL3ClockFreq>
 80046fa:	9801      	ldr	r0, [sp, #4]
 80046fc:	e285      	b.n	8004c0a <HAL_RCCEx_GetPeriphCLKFreq+0x5b6>
 80046fe:	4a8d      	ldr	r2, [pc, #564]	; (8004934 <HAL_RCCEx_GetPeriphCLKFreq+0x2e0>)
 8004700:	6cd3      	ldr	r3, [r2, #76]	; 0x4c
 8004702:	f003 5340 	and.w	r3, r3, #805306368	; 0x30000000
 8004706:	6812      	ldr	r2, [r2, #0]
 8004708:	f012 0f04 	tst.w	r2, #4
 800470c:	d007      	beq.n	800471e <HAL_RCCEx_GetPeriphCLKFreq+0xca>
 800470e:	b933      	cbnz	r3, 800471e <HAL_RCCEx_GetPeriphCLKFreq+0xca>
 8004710:	4b88      	ldr	r3, [pc, #544]	; (8004934 <HAL_RCCEx_GetPeriphCLKFreq+0x2e0>)
 8004712:	681b      	ldr	r3, [r3, #0]
 8004714:	f3c3 03c1 	ubfx	r3, r3, #3, #2
 8004718:	4888      	ldr	r0, [pc, #544]	; (800493c <HAL_RCCEx_GetPeriphCLKFreq+0x2e8>)
 800471a:	40d8      	lsrs	r0, r3
 800471c:	e275      	b.n	8004c0a <HAL_RCCEx_GetPeriphCLKFreq+0x5b6>
 800471e:	4a85      	ldr	r2, [pc, #532]	; (8004934 <HAL_RCCEx_GetPeriphCLKFreq+0x2e0>)
 8004720:	6812      	ldr	r2, [r2, #0]
 8004722:	f412 7f80 	tst.w	r2, #256	; 0x100
 8004726:	d003      	beq.n	8004730 <HAL_RCCEx_GetPeriphCLKFreq+0xdc>
 8004728:	f1b3 5f80 	cmp.w	r3, #268435456	; 0x10000000
 800472c:	f000 8266 	beq.w	8004bfc <HAL_RCCEx_GetPeriphCLKFreq+0x5a8>
 8004730:	4a80      	ldr	r2, [pc, #512]	; (8004934 <HAL_RCCEx_GetPeriphCLKFreq+0x2e0>)
 8004732:	6812      	ldr	r2, [r2, #0]
 8004734:	f412 3f00 	tst.w	r2, #131072	; 0x20000
 8004738:	f000 8262 	beq.w	8004c00 <HAL_RCCEx_GetPeriphCLKFreq+0x5ac>
 800473c:	f1b3 5f00 	cmp.w	r3, #536870912	; 0x20000000
 8004740:	f000 8260 	beq.w	8004c04 <HAL_RCCEx_GetPeriphCLKFreq+0x5b0>
 8004744:	2000      	movs	r0, #0
 8004746:	e260      	b.n	8004c0a <HAL_RCCEx_GetPeriphCLKFreq+0x5b6>
 8004748:	4b7a      	ldr	r3, [pc, #488]	; (8004934 <HAL_RCCEx_GetPeriphCLKFreq+0x2e0>)
 800474a:	6d1b      	ldr	r3, [r3, #80]	; 0x50
 800474c:	f403 73e0 	and.w	r3, r3, #448	; 0x1c0
 8004750:	2b80      	cmp	r3, #128	; 0x80
 8004752:	d033      	beq.n	80047bc <HAL_RCCEx_GetPeriphCLKFreq+0x168>
 8004754:	d915      	bls.n	8004782 <HAL_RCCEx_GetPeriphCLKFreq+0x12e>
 8004756:	2bc0      	cmp	r3, #192	; 0xc0
 8004758:	f000 8256 	beq.w	8004c08 <HAL_RCCEx_GetPeriphCLKFreq+0x5b4>
 800475c:	f5b3 7f80 	cmp.w	r3, #256	; 0x100
 8004760:	d11f      	bne.n	80047a2 <HAL_RCCEx_GetPeriphCLKFreq+0x14e>
 8004762:	4a74      	ldr	r2, [pc, #464]	; (8004934 <HAL_RCCEx_GetPeriphCLKFreq+0x2e0>)
 8004764:	6cd3      	ldr	r3, [r2, #76]	; 0x4c
 8004766:	f003 5340 	and.w	r3, r3, #805306368	; 0x30000000
 800476a:	6812      	ldr	r2, [r2, #0]
 800476c:	f012 0f04 	tst.w	r2, #4
 8004770:	d02f      	beq.n	80047d2 <HAL_RCCEx_GetPeriphCLKFreq+0x17e>
 8004772:	bb73      	cbnz	r3, 80047d2 <HAL_RCCEx_GetPeriphCLKFreq+0x17e>
 8004774:	4b6f      	ldr	r3, [pc, #444]	; (8004934 <HAL_RCCEx_GetPeriphCLKFreq+0x2e0>)
 8004776:	681b      	ldr	r3, [r3, #0]
 8004778:	f3c3 03c1 	ubfx	r3, r3, #3, #2
 800477c:	486f      	ldr	r0, [pc, #444]	; (800493c <HAL_RCCEx_GetPeriphCLKFreq+0x2e8>)
 800477e:	40d8      	lsrs	r0, r3
 8004780:	e243      	b.n	8004c0a <HAL_RCCEx_GetPeriphCLKFreq+0x5b6>
 8004782:	b183      	cbz	r3, 80047a6 <HAL_RCCEx_GetPeriphCLKFreq+0x152>
 8004784:	2b40      	cmp	r3, #64	; 0x40
 8004786:	d10a      	bne.n	800479e <HAL_RCCEx_GetPeriphCLKFreq+0x14a>
 8004788:	4b6a      	ldr	r3, [pc, #424]	; (8004934 <HAL_RCCEx_GetPeriphCLKFreq+0x2e0>)
 800478a:	6818      	ldr	r0, [r3, #0]
 800478c:	f010 6000 	ands.w	r0, r0, #134217728	; 0x8000000
 8004790:	f000 823b 	beq.w	8004c0a <HAL_RCCEx_GetPeriphCLKFreq+0x5b6>
 8004794:	a804      	add	r0, sp, #16
 8004796:	f7ff fc63 	bl	8004060 <HAL_RCCEx_GetPLL2ClockFreq>
 800479a:	9804      	ldr	r0, [sp, #16]
 800479c:	e235      	b.n	8004c0a <HAL_RCCEx_GetPeriphCLKFreq+0x5b6>
 800479e:	2000      	movs	r0, #0
 80047a0:	e233      	b.n	8004c0a <HAL_RCCEx_GetPeriphCLKFreq+0x5b6>
 80047a2:	2000      	movs	r0, #0
 80047a4:	e231      	b.n	8004c0a <HAL_RCCEx_GetPeriphCLKFreq+0x5b6>
 80047a6:	4b63      	ldr	r3, [pc, #396]	; (8004934 <HAL_RCCEx_GetPeriphCLKFreq+0x2e0>)
 80047a8:	6818      	ldr	r0, [r3, #0]
 80047aa:	f010 7000 	ands.w	r0, r0, #33554432	; 0x2000000
 80047ae:	f000 822c 	beq.w	8004c0a <HAL_RCCEx_GetPeriphCLKFreq+0x5b6>
 80047b2:	a807      	add	r0, sp, #28
 80047b4:	f7ff fe50 	bl	8004458 <HAL_RCCEx_GetPLL1ClockFreq>
 80047b8:	9808      	ldr	r0, [sp, #32]
 80047ba:	e226      	b.n	8004c0a <HAL_RCCEx_GetPeriphCLKFreq+0x5b6>
 80047bc:	4b5d      	ldr	r3, [pc, #372]	; (8004934 <HAL_RCCEx_GetPeriphCLKFreq+0x2e0>)
 80047be:	6818      	ldr	r0, [r3, #0]
 80047c0:	f010 5000 	ands.w	r0, r0, #536870912	; 0x20000000
 80047c4:	f000 8221 	beq.w	8004c0a <HAL_RCCEx_GetPeriphCLKFreq+0x5b6>
 80047c8:	a801      	add	r0, sp, #4
 80047ca:	f7ff fd47 	bl	800425c <HAL_RCCEx_GetPLL3ClockFreq>
 80047ce:	9801      	ldr	r0, [sp, #4]
 80047d0:	e21b      	b.n	8004c0a <HAL_RCCEx_GetPeriphCLKFreq+0x5b6>
 80047d2:	4a58      	ldr	r2, [pc, #352]	; (8004934 <HAL_RCCEx_GetPeriphCLKFreq+0x2e0>)
 80047d4:	6812      	ldr	r2, [r2, #0]
 80047d6:	f412 7f80 	tst.w	r2, #256	; 0x100
 80047da:	d003      	beq.n	80047e4 <HAL_RCCEx_GetPeriphCLKFreq+0x190>
 80047dc:	f1b3 5f80 	cmp.w	r3, #268435456	; 0x10000000
 80047e0:	f000 8216 	beq.w	8004c10 <HAL_RCCEx_GetPeriphCLKFreq+0x5bc>
 80047e4:	4a53      	ldr	r2, [pc, #332]	; (8004934 <HAL_RCCEx_GetPeriphCLKFreq+0x2e0>)
 80047e6:	6812      	ldr	r2, [r2, #0]
 80047e8:	f412 3f00 	tst.w	r2, #131072	; 0x20000
 80047ec:	f000 8212 	beq.w	8004c14 <HAL_RCCEx_GetPeriphCLKFreq+0x5c0>
 80047f0:	f1b3 5f00 	cmp.w	r3, #536870912	; 0x20000000
 80047f4:	f000 8210 	beq.w	8004c18 <HAL_RCCEx_GetPeriphCLKFreq+0x5c4>
 80047f8:	2000      	movs	r0, #0
 80047fa:	e206      	b.n	8004c0a <HAL_RCCEx_GetPeriphCLKFreq+0x5b6>
 80047fc:	4b4d      	ldr	r3, [pc, #308]	; (8004934 <HAL_RCCEx_GetPeriphCLKFreq+0x2e0>)
 80047fe:	6d9b      	ldr	r3, [r3, #88]	; 0x58
 8004800:	f403 0360 	and.w	r3, r3, #14680064	; 0xe00000
 8004804:	f5b3 0f80 	cmp.w	r3, #4194304	; 0x400000
 8004808:	d035      	beq.n	8004876 <HAL_RCCEx_GetPeriphCLKFreq+0x222>
 800480a:	d916      	bls.n	800483a <HAL_RCCEx_GetPeriphCLKFreq+0x1e6>
 800480c:	f5b3 0fc0 	cmp.w	r3, #6291456	; 0x600000
 8004810:	f000 8204 	beq.w	8004c1c <HAL_RCCEx_GetPeriphCLKFreq+0x5c8>
 8004814:	f5b3 0f00 	cmp.w	r3, #8388608	; 0x800000
 8004818:	d120      	bne.n	800485c <HAL_RCCEx_GetPeriphCLKFreq+0x208>
 800481a:	4a46      	ldr	r2, [pc, #280]	; (8004934 <HAL_RCCEx_GetPeriphCLKFreq+0x2e0>)
 800481c:	6cd3      	ldr	r3, [r2, #76]	; 0x4c
 800481e:	f003 5340 	and.w	r3, r3, #805306368	; 0x30000000
 8004822:	6812      	ldr	r2, [r2, #0]
 8004824:	f012 0f04 	tst.w	r2, #4
 8004828:	d030      	beq.n	800488c <HAL_RCCEx_GetPeriphCLKFreq+0x238>
 800482a:	bb7b      	cbnz	r3, 800488c <HAL_RCCEx_GetPeriphCLKFreq+0x238>
 800482c:	4b41      	ldr	r3, [pc, #260]	; (8004934 <HAL_RCCEx_GetPeriphCLKFreq+0x2e0>)
 800482e:	681b      	ldr	r3, [r3, #0]
 8004830:	f3c3 03c1 	ubfx	r3, r3, #3, #2
 8004834:	4841      	ldr	r0, [pc, #260]	; (800493c <HAL_RCCEx_GetPeriphCLKFreq+0x2e8>)
 8004836:	40d8      	lsrs	r0, r3
 8004838:	e1e7      	b.n	8004c0a <HAL_RCCEx_GetPeriphCLKFreq+0x5b6>
 800483a:	b18b      	cbz	r3, 8004860 <HAL_RCCEx_GetPeriphCLKFreq+0x20c>
 800483c:	f5b3 1f00 	cmp.w	r3, #2097152	; 0x200000
 8004840:	d10a      	bne.n	8004858 <HAL_RCCEx_GetPeriphCLKFreq+0x204>
 8004842:	4b3c      	ldr	r3, [pc, #240]	; (8004934 <HAL_RCCEx_GetPeriphCLKFreq+0x2e0>)
 8004844:	6818      	ldr	r0, [r3, #0]
 8004846:	f010 6000 	ands.w	r0, r0, #134217728	; 0x8000000
 800484a:	f000 81de 	beq.w	8004c0a <HAL_RCCEx_GetPeriphCLKFreq+0x5b6>
 800484e:	a804      	add	r0, sp, #16
 8004850:	f7ff fc06 	bl	8004060 <HAL_RCCEx_GetPLL2ClockFreq>
 8004854:	9804      	ldr	r0, [sp, #16]
 8004856:	e1d8      	b.n	8004c0a <HAL_RCCEx_GetPeriphCLKFreq+0x5b6>
 8004858:	2000      	movs	r0, #0
 800485a:	e1d6      	b.n	8004c0a <HAL_RCCEx_GetPeriphCLKFreq+0x5b6>
 800485c:	2000      	movs	r0, #0
 800485e:	e1d4      	b.n	8004c0a <HAL_RCCEx_GetPeriphCLKFreq+0x5b6>
 8004860:	4b34      	ldr	r3, [pc, #208]	; (8004934 <HAL_RCCEx_GetPeriphCLKFreq+0x2e0>)
 8004862:	6818      	ldr	r0, [r3, #0]
 8004864:	f010 7000 	ands.w	r0, r0, #33554432	; 0x2000000
 8004868:	f000 81cf 	beq.w	8004c0a <HAL_RCCEx_GetPeriphCLKFreq+0x5b6>
 800486c:	a807      	add	r0, sp, #28
 800486e:	f7ff fdf3 	bl	8004458 <HAL_RCCEx_GetPLL1ClockFreq>
 8004872:	9808      	ldr	r0, [sp, #32]
 8004874:	e1c9      	b.n	8004c0a <HAL_RCCEx_GetPeriphCLKFreq+0x5b6>
 8004876:	4b2f      	ldr	r3, [pc, #188]	; (8004934 <HAL_RCCEx_GetPeriphCLKFreq+0x2e0>)
 8004878:	6818      	ldr	r0, [r3, #0]
 800487a:	f010 5000 	ands.w	r0, r0, #536870912	; 0x20000000
 800487e:	f000 81c4 	beq.w	8004c0a <HAL_RCCEx_GetPeriphCLKFreq+0x5b6>
 8004882:	a801      	add	r0, sp, #4
 8004884:	f7ff fcea 	bl	800425c <HAL_RCCEx_GetPLL3ClockFreq>
 8004888:	9801      	ldr	r0, [sp, #4]
 800488a:	e1be      	b.n	8004c0a <HAL_RCCEx_GetPeriphCLKFreq+0x5b6>
 800488c:	4a29      	ldr	r2, [pc, #164]	; (8004934 <HAL_RCCEx_GetPeriphCLKFreq+0x2e0>)
 800488e:	6812      	ldr	r2, [r2, #0]
 8004890:	f412 7f80 	tst.w	r2, #256	; 0x100
 8004894:	d003      	beq.n	800489e <HAL_RCCEx_GetPeriphCLKFreq+0x24a>
 8004896:	f1b3 5f80 	cmp.w	r3, #268435456	; 0x10000000
 800489a:	f000 81c1 	beq.w	8004c20 <HAL_RCCEx_GetPeriphCLKFreq+0x5cc>
 800489e:	4a25      	ldr	r2, [pc, #148]	; (8004934 <HAL_RCCEx_GetPeriphCLKFreq+0x2e0>)
 80048a0:	6812      	ldr	r2, [r2, #0]
 80048a2:	f412 3f00 	tst.w	r2, #131072	; 0x20000
 80048a6:	f000 81bd 	beq.w	8004c24 <HAL_RCCEx_GetPeriphCLKFreq+0x5d0>
 80048aa:	f1b3 5f00 	cmp.w	r3, #536870912	; 0x20000000
 80048ae:	f000 81bb 	beq.w	8004c28 <HAL_RCCEx_GetPeriphCLKFreq+0x5d4>
 80048b2:	2000      	movs	r0, #0
 80048b4:	e1a9      	b.n	8004c0a <HAL_RCCEx_GetPeriphCLKFreq+0x5b6>
 80048b6:	4b1f      	ldr	r3, [pc, #124]	; (8004934 <HAL_RCCEx_GetPeriphCLKFreq+0x2e0>)
 80048b8:	6d9b      	ldr	r3, [r3, #88]	; 0x58
 80048ba:	f003 63e0 	and.w	r3, r3, #117440512	; 0x7000000
 80048be:	f1b3 7f00 	cmp.w	r3, #33554432	; 0x2000000
 80048c2:	d03d      	beq.n	8004940 <HAL_RCCEx_GetPeriphCLKFreq+0x2ec>
 80048c4:	d917      	bls.n	80048f6 <HAL_RCCEx_GetPeriphCLKFreq+0x2a2>
 80048c6:	f1b3 7f40 	cmp.w	r3, #50331648	; 0x3000000
 80048ca:	f000 81af 	beq.w	8004c2c <HAL_RCCEx_GetPeriphCLKFreq+0x5d8>
 80048ce:	f1b3 6f80 	cmp.w	r3, #67108864	; 0x4000000
 80048d2:	d121      	bne.n	8004918 <HAL_RCCEx_GetPeriphCLKFreq+0x2c4>
 80048d4:	4a17      	ldr	r2, [pc, #92]	; (8004934 <HAL_RCCEx_GetPeriphCLKFreq+0x2e0>)
 80048d6:	6cd3      	ldr	r3, [r2, #76]	; 0x4c
 80048d8:	f003 5340 	and.w	r3, r3, #805306368	; 0x30000000
 80048dc:	6812      	ldr	r2, [r2, #0]
 80048de:	f012 0f04 	tst.w	r2, #4
 80048e2:	d038      	beq.n	8004956 <HAL_RCCEx_GetPeriphCLKFreq+0x302>
 80048e4:	2b00      	cmp	r3, #0
 80048e6:	d136      	bne.n	8004956 <HAL_RCCEx_GetPeriphCLKFreq+0x302>
 80048e8:	4b12      	ldr	r3, [pc, #72]	; (8004934 <HAL_RCCEx_GetPeriphCLKFreq+0x2e0>)
 80048ea:	681b      	ldr	r3, [r3, #0]
 80048ec:	f3c3 03c1 	ubfx	r3, r3, #3, #2
 80048f0:	4812      	ldr	r0, [pc, #72]	; (800493c <HAL_RCCEx_GetPeriphCLKFreq+0x2e8>)
 80048f2:	40d8      	lsrs	r0, r3
 80048f4:	e189      	b.n	8004c0a <HAL_RCCEx_GetPeriphCLKFreq+0x5b6>
 80048f6:	b18b      	cbz	r3, 800491c <HAL_RCCEx_GetPeriphCLKFreq+0x2c8>
 80048f8:	f1b3 7f80 	cmp.w	r3, #16777216	; 0x1000000
 80048fc:	d10a      	bne.n	8004914 <HAL_RCCEx_GetPeriphCLKFreq+0x2c0>
 80048fe:	4b0d      	ldr	r3, [pc, #52]	; (8004934 <HAL_RCCEx_GetPeriphCLKFreq+0x2e0>)
 8004900:	6818      	ldr	r0, [r3, #0]
 8004902:	f010 6000 	ands.w	r0, r0, #134217728	; 0x8000000
 8004906:	f000 8180 	beq.w	8004c0a <HAL_RCCEx_GetPeriphCLKFreq+0x5b6>
 800490a:	a804      	add	r0, sp, #16
 800490c:	f7ff fba8 	bl	8004060 <HAL_RCCEx_GetPLL2ClockFreq>
 8004910:	9804      	ldr	r0, [sp, #16]
 8004912:	e17a      	b.n	8004c0a <HAL_RCCEx_GetPeriphCLKFreq+0x5b6>
 8004914:	2000      	movs	r0, #0
 8004916:	e178      	b.n	8004c0a <HAL_RCCEx_GetPeriphCLKFreq+0x5b6>
 8004918:	2000      	movs	r0, #0
 800491a:	e176      	b.n	8004c0a <HAL_RCCEx_GetPeriphCLKFreq+0x5b6>
 800491c:	4b05      	ldr	r3, [pc, #20]	; (8004934 <HAL_RCCEx_GetPeriphCLKFreq+0x2e0>)
 800491e:	6818      	ldr	r0, [r3, #0]
 8004920:	f010 7000 	ands.w	r0, r0, #33554432	; 0x2000000
 8004924:	f000 8171 	beq.w	8004c0a <HAL_RCCEx_GetPeriphCLKFreq+0x5b6>
 8004928:	a807      	add	r0, sp, #28
 800492a:	f7ff fd95 	bl	8004458 <HAL_RCCEx_GetPLL1ClockFreq>
 800492e:	9808      	ldr	r0, [sp, #32]
 8004930:	e16b      	b.n	8004c0a <HAL_RCCEx_GetPeriphCLKFreq+0x5b6>
 8004932:	bf00      	nop
 8004934:	58024400 	.word	0x58024400
 8004938:	00bb8000 	.word	0x00bb8000
 800493c:	03d09000 	.word	0x03d09000
 8004940:	4ba4      	ldr	r3, [pc, #656]	; (8004bd4 <HAL_RCCEx_GetPeriphCLKFreq+0x580>)
 8004942:	6818      	ldr	r0, [r3, #0]
 8004944:	f010 5000 	ands.w	r0, r0, #536870912	; 0x20000000
 8004948:	f000 815f 	beq.w	8004c0a <HAL_RCCEx_GetPeriphCLKFreq+0x5b6>
 800494c:	a801      	add	r0, sp, #4
 800494e:	f7ff fc85 	bl	800425c <HAL_RCCEx_GetPLL3ClockFreq>
 8004952:	9801      	ldr	r0, [sp, #4]
 8004954:	e159      	b.n	8004c0a <HAL_RCCEx_GetPeriphCLKFreq+0x5b6>
 8004956:	4a9f      	ldr	r2, [pc, #636]	; (8004bd4 <HAL_RCCEx_GetPeriphCLKFreq+0x580>)
 8004958:	6812      	ldr	r2, [r2, #0]
 800495a:	f412 7f80 	tst.w	r2, #256	; 0x100
 800495e:	d003      	beq.n	8004968 <HAL_RCCEx_GetPeriphCLKFreq+0x314>
 8004960:	f1b3 5f80 	cmp.w	r3, #268435456	; 0x10000000
 8004964:	f000 8164 	beq.w	8004c30 <HAL_RCCEx_GetPeriphCLKFreq+0x5dc>
 8004968:	4a9a      	ldr	r2, [pc, #616]	; (8004bd4 <HAL_RCCEx_GetPeriphCLKFreq+0x580>)
 800496a:	6812      	ldr	r2, [r2, #0]
 800496c:	f412 3f00 	tst.w	r2, #131072	; 0x20000
 8004970:	f000 8160 	beq.w	8004c34 <HAL_RCCEx_GetPeriphCLKFreq+0x5e0>
 8004974:	f1b3 5f00 	cmp.w	r3, #536870912	; 0x20000000
 8004978:	f000 815e 	beq.w	8004c38 <HAL_RCCEx_GetPeriphCLKFreq+0x5e4>
 800497c:	2000      	movs	r0, #0
 800497e:	e144      	b.n	8004c0a <HAL_RCCEx_GetPeriphCLKFreq+0x5b6>
 8004980:	4b94      	ldr	r3, [pc, #592]	; (8004bd4 <HAL_RCCEx_GetPeriphCLKFreq+0x580>)
 8004982:	6d1b      	ldr	r3, [r3, #80]	; 0x50
 8004984:	f403 43e0 	and.w	r3, r3, #28672	; 0x7000
 8004988:	f5b3 5f00 	cmp.w	r3, #8192	; 0x2000
 800498c:	d035      	beq.n	80049fa <HAL_RCCEx_GetPeriphCLKFreq+0x3a6>
 800498e:	d916      	bls.n	80049be <HAL_RCCEx_GetPeriphCLKFreq+0x36a>
 8004990:	f5b3 5f40 	cmp.w	r3, #12288	; 0x3000
 8004994:	f000 8152 	beq.w	8004c3c <HAL_RCCEx_GetPeriphCLKFreq+0x5e8>
 8004998:	f5b3 4f80 	cmp.w	r3, #16384	; 0x4000
 800499c:	d120      	bne.n	80049e0 <HAL_RCCEx_GetPeriphCLKFreq+0x38c>
 800499e:	4a8d      	ldr	r2, [pc, #564]	; (8004bd4 <HAL_RCCEx_GetPeriphCLKFreq+0x580>)
 80049a0:	6cd3      	ldr	r3, [r2, #76]	; 0x4c
 80049a2:	f003 5340 	and.w	r3, r3, #805306368	; 0x30000000
 80049a6:	6812      	ldr	r2, [r2, #0]
 80049a8:	f012 0f04 	tst.w	r2, #4
 80049ac:	d030      	beq.n	8004a10 <HAL_RCCEx_GetPeriphCLKFreq+0x3bc>
 80049ae:	bb7b      	cbnz	r3, 8004a10 <HAL_RCCEx_GetPeriphCLKFreq+0x3bc>
 80049b0:	4b88      	ldr	r3, [pc, #544]	; (8004bd4 <HAL_RCCEx_GetPeriphCLKFreq+0x580>)
 80049b2:	681b      	ldr	r3, [r3, #0]
 80049b4:	f3c3 03c1 	ubfx	r3, r3, #3, #2
 80049b8:	4887      	ldr	r0, [pc, #540]	; (8004bd8 <HAL_RCCEx_GetPeriphCLKFreq+0x584>)
 80049ba:	40d8      	lsrs	r0, r3
 80049bc:	e125      	b.n	8004c0a <HAL_RCCEx_GetPeriphCLKFreq+0x5b6>
 80049be:	b18b      	cbz	r3, 80049e4 <HAL_RCCEx_GetPeriphCLKFreq+0x390>
 80049c0:	f5b3 5f80 	cmp.w	r3, #4096	; 0x1000
 80049c4:	d10a      	bne.n	80049dc <HAL_RCCEx_GetPeriphCLKFreq+0x388>
 80049c6:	4b83      	ldr	r3, [pc, #524]	; (8004bd4 <HAL_RCCEx_GetPeriphCLKFreq+0x580>)
 80049c8:	6818      	ldr	r0, [r3, #0]
 80049ca:	f010 6000 	ands.w	r0, r0, #134217728	; 0x8000000
 80049ce:	f000 811c 	beq.w	8004c0a <HAL_RCCEx_GetPeriphCLKFreq+0x5b6>
 80049d2:	a804      	add	r0, sp, #16
 80049d4:	f7ff fb44 	bl	8004060 <HAL_RCCEx_GetPLL2ClockFreq>
 80049d8:	9804      	ldr	r0, [sp, #16]
 80049da:	e116      	b.n	8004c0a <HAL_RCCEx_GetPeriphCLKFreq+0x5b6>
 80049dc:	2000      	movs	r0, #0
 80049de:	e114      	b.n	8004c0a <HAL_RCCEx_GetPeriphCLKFreq+0x5b6>
 80049e0:	2000      	movs	r0, #0
 80049e2:	e112      	b.n	8004c0a <HAL_RCCEx_GetPeriphCLKFreq+0x5b6>
 80049e4:	4b7b      	ldr	r3, [pc, #492]	; (8004bd4 <HAL_RCCEx_GetPeriphCLKFreq+0x580>)
 80049e6:	6818      	ldr	r0, [r3, #0]
 80049e8:	f010 7000 	ands.w	r0, r0, #33554432	; 0x2000000
 80049ec:	f000 810d 	beq.w	8004c0a <HAL_RCCEx_GetPeriphCLKFreq+0x5b6>
 80049f0:	a807      	add	r0, sp, #28
 80049f2:	f7ff fd31 	bl	8004458 <HAL_RCCEx_GetPLL1ClockFreq>
 80049f6:	9808      	ldr	r0, [sp, #32]
 80049f8:	e107      	b.n	8004c0a <HAL_RCCEx_GetPeriphCLKFreq+0x5b6>
 80049fa:	4b76      	ldr	r3, [pc, #472]	; (8004bd4 <HAL_RCCEx_GetPeriphCLKFreq+0x580>)
 80049fc:	6818      	ldr	r0, [r3, #0]
 80049fe:	f010 5000 	ands.w	r0, r0, #536870912	; 0x20000000
 8004a02:	f000 8102 	beq.w	8004c0a <HAL_RCCEx_GetPeriphCLKFreq+0x5b6>
 8004a06:	a801      	add	r0, sp, #4
 8004a08:	f7ff fc28 	bl	800425c <HAL_RCCEx_GetPLL3ClockFreq>
 8004a0c:	9801      	ldr	r0, [sp, #4]
 8004a0e:	e0fc      	b.n	8004c0a <HAL_RCCEx_GetPeriphCLKFreq+0x5b6>
 8004a10:	4a70      	ldr	r2, [pc, #448]	; (8004bd4 <HAL_RCCEx_GetPeriphCLKFreq+0x580>)
 8004a12:	6812      	ldr	r2, [r2, #0]
 8004a14:	f412 7f80 	tst.w	r2, #256	; 0x100
 8004a18:	d003      	beq.n	8004a22 <HAL_RCCEx_GetPeriphCLKFreq+0x3ce>
 8004a1a:	f1b3 5f80 	cmp.w	r3, #268435456	; 0x10000000
 8004a1e:	f000 810f 	beq.w	8004c40 <HAL_RCCEx_GetPeriphCLKFreq+0x5ec>
 8004a22:	4a6c      	ldr	r2, [pc, #432]	; (8004bd4 <HAL_RCCEx_GetPeriphCLKFreq+0x580>)
 8004a24:	6812      	ldr	r2, [r2, #0]
 8004a26:	f412 3f00 	tst.w	r2, #131072	; 0x20000
 8004a2a:	f000 810b 	beq.w	8004c44 <HAL_RCCEx_GetPeriphCLKFreq+0x5f0>
 8004a2e:	f1b3 5f00 	cmp.w	r3, #536870912	; 0x20000000
 8004a32:	f000 8109 	beq.w	8004c48 <HAL_RCCEx_GetPeriphCLKFreq+0x5f4>
 8004a36:	2000      	movs	r0, #0
 8004a38:	e0e7      	b.n	8004c0a <HAL_RCCEx_GetPeriphCLKFreq+0x5b6>
 8004a3a:	4b66      	ldr	r3, [pc, #408]	; (8004bd4 <HAL_RCCEx_GetPeriphCLKFreq+0x580>)
 8004a3c:	6d9b      	ldr	r3, [r3, #88]	; 0x58
 8004a3e:	f403 3340 	and.w	r3, r3, #196608	; 0x30000
 8004a42:	f5b3 3f80 	cmp.w	r3, #65536	; 0x10000
 8004a46:	d010      	beq.n	8004a6a <HAL_RCCEx_GetPeriphCLKFreq+0x416>
 8004a48:	f5b3 3f00 	cmp.w	r3, #131072	; 0x20000
 8004a4c:	d018      	beq.n	8004a80 <HAL_RCCEx_GetPeriphCLKFreq+0x42c>
 8004a4e:	b10b      	cbz	r3, 8004a54 <HAL_RCCEx_GetPeriphCLKFreq+0x400>
 8004a50:	2000      	movs	r0, #0
 8004a52:	e0da      	b.n	8004c0a <HAL_RCCEx_GetPeriphCLKFreq+0x5b6>
 8004a54:	4b5f      	ldr	r3, [pc, #380]	; (8004bd4 <HAL_RCCEx_GetPeriphCLKFreq+0x580>)
 8004a56:	6818      	ldr	r0, [r3, #0]
 8004a58:	f010 6000 	ands.w	r0, r0, #134217728	; 0x8000000
 8004a5c:	f000 80d5 	beq.w	8004c0a <HAL_RCCEx_GetPeriphCLKFreq+0x5b6>
 8004a60:	a804      	add	r0, sp, #16
 8004a62:	f7ff fafd 	bl	8004060 <HAL_RCCEx_GetPLL2ClockFreq>
 8004a66:	9804      	ldr	r0, [sp, #16]
 8004a68:	e0cf      	b.n	8004c0a <HAL_RCCEx_GetPeriphCLKFreq+0x5b6>
 8004a6a:	4b5a      	ldr	r3, [pc, #360]	; (8004bd4 <HAL_RCCEx_GetPeriphCLKFreq+0x580>)
 8004a6c:	6818      	ldr	r0, [r3, #0]
 8004a6e:	f010 5000 	ands.w	r0, r0, #536870912	; 0x20000000
 8004a72:	f000 80ca 	beq.w	8004c0a <HAL_RCCEx_GetPeriphCLKFreq+0x5b6>
 8004a76:	a801      	add	r0, sp, #4
 8004a78:	f7ff fbf0 	bl	800425c <HAL_RCCEx_GetPLL3ClockFreq>
 8004a7c:	9803      	ldr	r0, [sp, #12]
 8004a7e:	e0c4      	b.n	8004c0a <HAL_RCCEx_GetPeriphCLKFreq+0x5b6>
 8004a80:	4a54      	ldr	r2, [pc, #336]	; (8004bd4 <HAL_RCCEx_GetPeriphCLKFreq+0x580>)
 8004a82:	6cd3      	ldr	r3, [r2, #76]	; 0x4c
 8004a84:	f003 5340 	and.w	r3, r3, #805306368	; 0x30000000
 8004a88:	6812      	ldr	r2, [r2, #0]
 8004a8a:	f012 0f04 	tst.w	r2, #4
 8004a8e:	d007      	beq.n	8004aa0 <HAL_RCCEx_GetPeriphCLKFreq+0x44c>
 8004a90:	b933      	cbnz	r3, 8004aa0 <HAL_RCCEx_GetPeriphCLKFreq+0x44c>
 8004a92:	4b50      	ldr	r3, [pc, #320]	; (8004bd4 <HAL_RCCEx_GetPeriphCLKFreq+0x580>)
 8004a94:	681b      	ldr	r3, [r3, #0]
 8004a96:	f3c3 03c1 	ubfx	r3, r3, #3, #2
 8004a9a:	484f      	ldr	r0, [pc, #316]	; (8004bd8 <HAL_RCCEx_GetPeriphCLKFreq+0x584>)
 8004a9c:	40d8      	lsrs	r0, r3
 8004a9e:	e0b4      	b.n	8004c0a <HAL_RCCEx_GetPeriphCLKFreq+0x5b6>
 8004aa0:	4a4c      	ldr	r2, [pc, #304]	; (8004bd4 <HAL_RCCEx_GetPeriphCLKFreq+0x580>)
 8004aa2:	6812      	ldr	r2, [r2, #0]
 8004aa4:	f412 7f80 	tst.w	r2, #256	; 0x100
 8004aa8:	d003      	beq.n	8004ab2 <HAL_RCCEx_GetPeriphCLKFreq+0x45e>
 8004aaa:	f1b3 5f80 	cmp.w	r3, #268435456	; 0x10000000
 8004aae:	f000 80cd 	beq.w	8004c4c <HAL_RCCEx_GetPeriphCLKFreq+0x5f8>
 8004ab2:	4a48      	ldr	r2, [pc, #288]	; (8004bd4 <HAL_RCCEx_GetPeriphCLKFreq+0x580>)
 8004ab4:	6812      	ldr	r2, [r2, #0]
 8004ab6:	f412 3f00 	tst.w	r2, #131072	; 0x20000
 8004aba:	f000 80c9 	beq.w	8004c50 <HAL_RCCEx_GetPeriphCLKFreq+0x5fc>
 8004abe:	f1b3 5f00 	cmp.w	r3, #536870912	; 0x20000000
 8004ac2:	f000 80c7 	beq.w	8004c54 <HAL_RCCEx_GetPeriphCLKFreq+0x600>
 8004ac6:	2000      	movs	r0, #0
 8004ac8:	e09f      	b.n	8004c0a <HAL_RCCEx_GetPeriphCLKFreq+0x5b6>
 8004aca:	4b42      	ldr	r3, [pc, #264]	; (8004bd4 <HAL_RCCEx_GetPeriphCLKFreq+0x580>)
 8004acc:	6cdb      	ldr	r3, [r3, #76]	; 0x4c
 8004ace:	f413 3380 	ands.w	r3, r3, #65536	; 0x10000
 8004ad2:	d002      	beq.n	8004ada <HAL_RCCEx_GetPeriphCLKFreq+0x486>
 8004ad4:	b963      	cbnz	r3, 8004af0 <HAL_RCCEx_GetPeriphCLKFreq+0x49c>
 8004ad6:	2000      	movs	r0, #0
 8004ad8:	e097      	b.n	8004c0a <HAL_RCCEx_GetPeriphCLKFreq+0x5b6>
 8004ada:	4b3e      	ldr	r3, [pc, #248]	; (8004bd4 <HAL_RCCEx_GetPeriphCLKFreq+0x580>)
 8004adc:	6818      	ldr	r0, [r3, #0]
 8004ade:	f010 7000 	ands.w	r0, r0, #33554432	; 0x2000000
 8004ae2:	f000 8092 	beq.w	8004c0a <HAL_RCCEx_GetPeriphCLKFreq+0x5b6>
 8004ae6:	a807      	add	r0, sp, #28
 8004ae8:	f7ff fcb6 	bl	8004458 <HAL_RCCEx_GetPLL1ClockFreq>
 8004aec:	9808      	ldr	r0, [sp, #32]
 8004aee:	e08c      	b.n	8004c0a <HAL_RCCEx_GetPeriphCLKFreq+0x5b6>
 8004af0:	4b38      	ldr	r3, [pc, #224]	; (8004bd4 <HAL_RCCEx_GetPeriphCLKFreq+0x580>)
 8004af2:	6818      	ldr	r0, [r3, #0]
 8004af4:	f010 6000 	ands.w	r0, r0, #134217728	; 0x8000000
 8004af8:	f000 8087 	beq.w	8004c0a <HAL_RCCEx_GetPeriphCLKFreq+0x5b6>
 8004afc:	a804      	add	r0, sp, #16
 8004afe:	f7ff faaf 	bl	8004060 <HAL_RCCEx_GetPLL2ClockFreq>
 8004b02:	9806      	ldr	r0, [sp, #24]
 8004b04:	e081      	b.n	8004c0a <HAL_RCCEx_GetPeriphCLKFreq+0x5b6>
 8004b06:	4b33      	ldr	r3, [pc, #204]	; (8004bd4 <HAL_RCCEx_GetPeriphCLKFreq+0x580>)
 8004b08:	6d9b      	ldr	r3, [r3, #88]	; 0x58
 8004b0a:	f003 43e0 	and.w	r3, r3, #1879048192	; 0x70000000
 8004b0e:	f1b3 5f40 	cmp.w	r3, #805306368	; 0x30000000
 8004b12:	d02f      	beq.n	8004b74 <HAL_RCCEx_GetPeriphCLKFreq+0x520>
 8004b14:	d815      	bhi.n	8004b42 <HAL_RCCEx_GetPeriphCLKFreq+0x4ee>
 8004b16:	f1b3 5f80 	cmp.w	r3, #268435456	; 0x10000000
 8004b1a:	d021      	beq.n	8004b60 <HAL_RCCEx_GetPeriphCLKFreq+0x50c>
 8004b1c:	f1b3 5f00 	cmp.w	r3, #536870912	; 0x20000000
 8004b20:	d109      	bne.n	8004b36 <HAL_RCCEx_GetPeriphCLKFreq+0x4e2>
 8004b22:	4b2c      	ldr	r3, [pc, #176]	; (8004bd4 <HAL_RCCEx_GetPeriphCLKFreq+0x580>)
 8004b24:	6818      	ldr	r0, [r3, #0]
 8004b26:	f010 5000 	ands.w	r0, r0, #536870912	; 0x20000000
 8004b2a:	d06e      	beq.n	8004c0a <HAL_RCCEx_GetPeriphCLKFreq+0x5b6>
 8004b2c:	a801      	add	r0, sp, #4
 8004b2e:	f7ff fb95 	bl	800425c <HAL_RCCEx_GetPLL3ClockFreq>
 8004b32:	9802      	ldr	r0, [sp, #8]
 8004b34:	e069      	b.n	8004c0a <HAL_RCCEx_GetPeriphCLKFreq+0x5b6>
 8004b36:	b913      	cbnz	r3, 8004b3e <HAL_RCCEx_GetPeriphCLKFreq+0x4ea>
 8004b38:	f7ff fa80 	bl	800403c <HAL_RCCEx_GetD3PCLK1Freq>
 8004b3c:	e065      	b.n	8004c0a <HAL_RCCEx_GetPeriphCLKFreq+0x5b6>
 8004b3e:	2000      	movs	r0, #0
 8004b40:	e063      	b.n	8004c0a <HAL_RCCEx_GetPeriphCLKFreq+0x5b6>
 8004b42:	f1b3 4f80 	cmp.w	r3, #1073741824	; 0x40000000
 8004b46:	d020      	beq.n	8004b8a <HAL_RCCEx_GetPeriphCLKFreq+0x536>
 8004b48:	f1b3 4fa0 	cmp.w	r3, #1342177280	; 0x50000000
 8004b4c:	d106      	bne.n	8004b5c <HAL_RCCEx_GetPeriphCLKFreq+0x508>
 8004b4e:	4b21      	ldr	r3, [pc, #132]	; (8004bd4 <HAL_RCCEx_GetPeriphCLKFreq+0x580>)
 8004b50:	6818      	ldr	r0, [r3, #0]
 8004b52:	f410 3000 	ands.w	r0, r0, #131072	; 0x20000
 8004b56:	d058      	beq.n	8004c0a <HAL_RCCEx_GetPeriphCLKFreq+0x5b6>
 8004b58:	4820      	ldr	r0, [pc, #128]	; (8004bdc <HAL_RCCEx_GetPeriphCLKFreq+0x588>)
 8004b5a:	e056      	b.n	8004c0a <HAL_RCCEx_GetPeriphCLKFreq+0x5b6>
 8004b5c:	2000      	movs	r0, #0
 8004b5e:	e054      	b.n	8004c0a <HAL_RCCEx_GetPeriphCLKFreq+0x5b6>
 8004b60:	4b1c      	ldr	r3, [pc, #112]	; (8004bd4 <HAL_RCCEx_GetPeriphCLKFreq+0x580>)
 8004b62:	6818      	ldr	r0, [r3, #0]
 8004b64:	f010 6000 	ands.w	r0, r0, #134217728	; 0x8000000
 8004b68:	d04f      	beq.n	8004c0a <HAL_RCCEx_GetPeriphCLKFreq+0x5b6>
 8004b6a:	a804      	add	r0, sp, #16
 8004b6c:	f7ff fa78 	bl	8004060 <HAL_RCCEx_GetPLL2ClockFreq>
 8004b70:	9805      	ldr	r0, [sp, #20]
 8004b72:	e04a      	b.n	8004c0a <HAL_RCCEx_GetPeriphCLKFreq+0x5b6>
 8004b74:	4b17      	ldr	r3, [pc, #92]	; (8004bd4 <HAL_RCCEx_GetPeriphCLKFreq+0x580>)
 8004b76:	6818      	ldr	r0, [r3, #0]
 8004b78:	f010 0004 	ands.w	r0, r0, #4
 8004b7c:	d045      	beq.n	8004c0a <HAL_RCCEx_GetPeriphCLKFreq+0x5b6>
 8004b7e:	681b      	ldr	r3, [r3, #0]
 8004b80:	f3c3 03c1 	ubfx	r3, r3, #3, #2
 8004b84:	4814      	ldr	r0, [pc, #80]	; (8004bd8 <HAL_RCCEx_GetPeriphCLKFreq+0x584>)
 8004b86:	40d8      	lsrs	r0, r3
 8004b88:	e03f      	b.n	8004c0a <HAL_RCCEx_GetPeriphCLKFreq+0x5b6>
 8004b8a:	4b12      	ldr	r3, [pc, #72]	; (8004bd4 <HAL_RCCEx_GetPeriphCLKFreq+0x580>)
 8004b8c:	6818      	ldr	r0, [r3, #0]
 8004b8e:	f410 7080 	ands.w	r0, r0, #256	; 0x100
 8004b92:	d03a      	beq.n	8004c0a <HAL_RCCEx_GetPeriphCLKFreq+0x5b6>
 8004b94:	4812      	ldr	r0, [pc, #72]	; (8004be0 <HAL_RCCEx_GetPeriphCLKFreq+0x58c>)
 8004b96:	e038      	b.n	8004c0a <HAL_RCCEx_GetPeriphCLKFreq+0x5b6>
 8004b98:	4b0e      	ldr	r3, [pc, #56]	; (8004bd4 <HAL_RCCEx_GetPeriphCLKFreq+0x580>)
 8004b9a:	6d1b      	ldr	r3, [r3, #80]	; 0x50
 8004b9c:	f003 5340 	and.w	r3, r3, #805306368	; 0x30000000
 8004ba0:	f1b3 5f80 	cmp.w	r3, #268435456	; 0x10000000
 8004ba4:	d00c      	beq.n	8004bc0 <HAL_RCCEx_GetPeriphCLKFreq+0x56c>
 8004ba6:	f1b3 5f00 	cmp.w	r3, #536870912	; 0x20000000
 8004baa:	d01b      	beq.n	8004be4 <HAL_RCCEx_GetPeriphCLKFreq+0x590>
 8004bac:	b10b      	cbz	r3, 8004bb2 <HAL_RCCEx_GetPeriphCLKFreq+0x55e>
 8004bae:	2000      	movs	r0, #0
 8004bb0:	e02b      	b.n	8004c0a <HAL_RCCEx_GetPeriphCLKFreq+0x5b6>
 8004bb2:	4b08      	ldr	r3, [pc, #32]	; (8004bd4 <HAL_RCCEx_GetPeriphCLKFreq+0x580>)
 8004bb4:	6818      	ldr	r0, [r3, #0]
 8004bb6:	f410 3000 	ands.w	r0, r0, #131072	; 0x20000
 8004bba:	d026      	beq.n	8004c0a <HAL_RCCEx_GetPeriphCLKFreq+0x5b6>
 8004bbc:	4807      	ldr	r0, [pc, #28]	; (8004bdc <HAL_RCCEx_GetPeriphCLKFreq+0x588>)
 8004bbe:	e024      	b.n	8004c0a <HAL_RCCEx_GetPeriphCLKFreq+0x5b6>
 8004bc0:	4b04      	ldr	r3, [pc, #16]	; (8004bd4 <HAL_RCCEx_GetPeriphCLKFreq+0x580>)
 8004bc2:	6818      	ldr	r0, [r3, #0]
 8004bc4:	f010 7000 	ands.w	r0, r0, #33554432	; 0x2000000
 8004bc8:	d01f      	beq.n	8004c0a <HAL_RCCEx_GetPeriphCLKFreq+0x5b6>
 8004bca:	a807      	add	r0, sp, #28
 8004bcc:	f7ff fc44 	bl	8004458 <HAL_RCCEx_GetPLL1ClockFreq>
 8004bd0:	9808      	ldr	r0, [sp, #32]
 8004bd2:	e01a      	b.n	8004c0a <HAL_RCCEx_GetPeriphCLKFreq+0x5b6>
 8004bd4:	58024400 	.word	0x58024400
 8004bd8:	03d09000 	.word	0x03d09000
 8004bdc:	017d7840 	.word	0x017d7840
 8004be0:	003d0900 	.word	0x003d0900
 8004be4:	4b1c      	ldr	r3, [pc, #112]	; (8004c58 <HAL_RCCEx_GetPeriphCLKFreq+0x604>)
 8004be6:	6818      	ldr	r0, [r3, #0]
 8004be8:	f010 6000 	ands.w	r0, r0, #134217728	; 0x8000000
 8004bec:	d00d      	beq.n	8004c0a <HAL_RCCEx_GetPeriphCLKFreq+0x5b6>
 8004bee:	a804      	add	r0, sp, #16
 8004bf0:	f7ff fa36 	bl	8004060 <HAL_RCCEx_GetPLL2ClockFreq>
 8004bf4:	9805      	ldr	r0, [sp, #20]
 8004bf6:	e008      	b.n	8004c0a <HAL_RCCEx_GetPeriphCLKFreq+0x5b6>
 8004bf8:	2000      	movs	r0, #0
 8004bfa:	e006      	b.n	8004c0a <HAL_RCCEx_GetPeriphCLKFreq+0x5b6>
 8004bfc:	4817      	ldr	r0, [pc, #92]	; (8004c5c <HAL_RCCEx_GetPeriphCLKFreq+0x608>)
 8004bfe:	e004      	b.n	8004c0a <HAL_RCCEx_GetPeriphCLKFreq+0x5b6>
 8004c00:	2000      	movs	r0, #0
 8004c02:	e002      	b.n	8004c0a <HAL_RCCEx_GetPeriphCLKFreq+0x5b6>
 8004c04:	4816      	ldr	r0, [pc, #88]	; (8004c60 <HAL_RCCEx_GetPeriphCLKFreq+0x60c>)
 8004c06:	e000      	b.n	8004c0a <HAL_RCCEx_GetPeriphCLKFreq+0x5b6>
 8004c08:	4816      	ldr	r0, [pc, #88]	; (8004c64 <HAL_RCCEx_GetPeriphCLKFreq+0x610>)
 8004c0a:	b00b      	add	sp, #44	; 0x2c
 8004c0c:	f85d fb04 	ldr.w	pc, [sp], #4
 8004c10:	4812      	ldr	r0, [pc, #72]	; (8004c5c <HAL_RCCEx_GetPeriphCLKFreq+0x608>)
 8004c12:	e7fa      	b.n	8004c0a <HAL_RCCEx_GetPeriphCLKFreq+0x5b6>
 8004c14:	2000      	movs	r0, #0
 8004c16:	e7f8      	b.n	8004c0a <HAL_RCCEx_GetPeriphCLKFreq+0x5b6>
 8004c18:	4811      	ldr	r0, [pc, #68]	; (8004c60 <HAL_RCCEx_GetPeriphCLKFreq+0x60c>)
 8004c1a:	e7f6      	b.n	8004c0a <HAL_RCCEx_GetPeriphCLKFreq+0x5b6>
 8004c1c:	4811      	ldr	r0, [pc, #68]	; (8004c64 <HAL_RCCEx_GetPeriphCLKFreq+0x610>)
 8004c1e:	e7f4      	b.n	8004c0a <HAL_RCCEx_GetPeriphCLKFreq+0x5b6>
 8004c20:	480e      	ldr	r0, [pc, #56]	; (8004c5c <HAL_RCCEx_GetPeriphCLKFreq+0x608>)
 8004c22:	e7f2      	b.n	8004c0a <HAL_RCCEx_GetPeriphCLKFreq+0x5b6>
 8004c24:	2000      	movs	r0, #0
 8004c26:	e7f0      	b.n	8004c0a <HAL_RCCEx_GetPeriphCLKFreq+0x5b6>
 8004c28:	480d      	ldr	r0, [pc, #52]	; (8004c60 <HAL_RCCEx_GetPeriphCLKFreq+0x60c>)
 8004c2a:	e7ee      	b.n	8004c0a <HAL_RCCEx_GetPeriphCLKFreq+0x5b6>
 8004c2c:	480d      	ldr	r0, [pc, #52]	; (8004c64 <HAL_RCCEx_GetPeriphCLKFreq+0x610>)
 8004c2e:	e7ec      	b.n	8004c0a <HAL_RCCEx_GetPeriphCLKFreq+0x5b6>
 8004c30:	480a      	ldr	r0, [pc, #40]	; (8004c5c <HAL_RCCEx_GetPeriphCLKFreq+0x608>)
 8004c32:	e7ea      	b.n	8004c0a <HAL_RCCEx_GetPeriphCLKFreq+0x5b6>
 8004c34:	2000      	movs	r0, #0
 8004c36:	e7e8      	b.n	8004c0a <HAL_RCCEx_GetPeriphCLKFreq+0x5b6>
 8004c38:	4809      	ldr	r0, [pc, #36]	; (8004c60 <HAL_RCCEx_GetPeriphCLKFreq+0x60c>)
 8004c3a:	e7e6      	b.n	8004c0a <HAL_RCCEx_GetPeriphCLKFreq+0x5b6>
 8004c3c:	4809      	ldr	r0, [pc, #36]	; (8004c64 <HAL_RCCEx_GetPeriphCLKFreq+0x610>)
 8004c3e:	e7e4      	b.n	8004c0a <HAL_RCCEx_GetPeriphCLKFreq+0x5b6>
 8004c40:	4806      	ldr	r0, [pc, #24]	; (8004c5c <HAL_RCCEx_GetPeriphCLKFreq+0x608>)
 8004c42:	e7e2      	b.n	8004c0a <HAL_RCCEx_GetPeriphCLKFreq+0x5b6>
 8004c44:	2000      	movs	r0, #0
 8004c46:	e7e0      	b.n	8004c0a <HAL_RCCEx_GetPeriphCLKFreq+0x5b6>
 8004c48:	4805      	ldr	r0, [pc, #20]	; (8004c60 <HAL_RCCEx_GetPeriphCLKFreq+0x60c>)
 8004c4a:	e7de      	b.n	8004c0a <HAL_RCCEx_GetPeriphCLKFreq+0x5b6>
 8004c4c:	4803      	ldr	r0, [pc, #12]	; (8004c5c <HAL_RCCEx_GetPeriphCLKFreq+0x608>)
 8004c4e:	e7dc      	b.n	8004c0a <HAL_RCCEx_GetPeriphCLKFreq+0x5b6>
 8004c50:	2000      	movs	r0, #0
 8004c52:	e7da      	b.n	8004c0a <HAL_RCCEx_GetPeriphCLKFreq+0x5b6>
 8004c54:	4802      	ldr	r0, [pc, #8]	; (8004c60 <HAL_RCCEx_GetPeriphCLKFreq+0x60c>)
 8004c56:	e7d8      	b.n	8004c0a <HAL_RCCEx_GetPeriphCLKFreq+0x5b6>
 8004c58:	58024400 	.word	0x58024400
 8004c5c:	003d0900 	.word	0x003d0900
 8004c60:	017d7840 	.word	0x017d7840
 8004c64:	00bb8000 	.word	0x00bb8000

08004c68 <HAL_TIM_Base_Start_IT>:
 8004c68:	f890 303d 	ldrb.w	r3, [r0, #61]	; 0x3d
 8004c6c:	b2db      	uxtb	r3, r3
 8004c6e:	2b01      	cmp	r3, #1
 8004c70:	d13a      	bne.n	8004ce8 <HAL_TIM_Base_Start_IT+0x80>
 8004c72:	2302      	movs	r3, #2
 8004c74:	f880 303d 	strb.w	r3, [r0, #61]	; 0x3d
 8004c78:	6802      	ldr	r2, [r0, #0]
 8004c7a:	68d3      	ldr	r3, [r2, #12]
 8004c7c:	f043 0301 	orr.w	r3, r3, #1
 8004c80:	60d3      	str	r3, [r2, #12]
 8004c82:	6803      	ldr	r3, [r0, #0]
 8004c84:	4a1a      	ldr	r2, [pc, #104]	; (8004cf0 <HAL_TIM_Base_Start_IT+0x88>)
 8004c86:	f1b3 4f80 	cmp.w	r3, #1073741824	; 0x40000000
 8004c8a:	bf18      	it	ne
 8004c8c:	4293      	cmpne	r3, r2
 8004c8e:	d01d      	beq.n	8004ccc <HAL_TIM_Base_Start_IT+0x64>
 8004c90:	f5a2 427c 	sub.w	r2, r2, #64512	; 0xfc00
 8004c94:	4293      	cmp	r3, r2
 8004c96:	d019      	beq.n	8004ccc <HAL_TIM_Base_Start_IT+0x64>
 8004c98:	f502 6280 	add.w	r2, r2, #1024	; 0x400
 8004c9c:	4293      	cmp	r3, r2
 8004c9e:	d015      	beq.n	8004ccc <HAL_TIM_Base_Start_IT+0x64>
 8004ca0:	f502 6280 	add.w	r2, r2, #1024	; 0x400
 8004ca4:	4293      	cmp	r3, r2
 8004ca6:	d011      	beq.n	8004ccc <HAL_TIM_Base_Start_IT+0x64>
 8004ca8:	f502 4278 	add.w	r2, r2, #63488	; 0xf800
 8004cac:	4293      	cmp	r3, r2
 8004cae:	d00d      	beq.n	8004ccc <HAL_TIM_Base_Start_IT+0x64>
 8004cb0:	f5a2 426c 	sub.w	r2, r2, #60416	; 0xec00
 8004cb4:	4293      	cmp	r3, r2
 8004cb6:	d009      	beq.n	8004ccc <HAL_TIM_Base_Start_IT+0x64>
 8004cb8:	f502 3294 	add.w	r2, r2, #75776	; 0x12800
 8004cbc:	4293      	cmp	r3, r2
 8004cbe:	d005      	beq.n	8004ccc <HAL_TIM_Base_Start_IT+0x64>
 8004cc0:	681a      	ldr	r2, [r3, #0]
 8004cc2:	f042 0201 	orr.w	r2, r2, #1
 8004cc6:	601a      	str	r2, [r3, #0]
 8004cc8:	2000      	movs	r0, #0
 8004cca:	4770      	bx	lr
 8004ccc:	6899      	ldr	r1, [r3, #8]
 8004cce:	4a09      	ldr	r2, [pc, #36]	; (8004cf4 <HAL_TIM_Base_Start_IT+0x8c>)
 8004cd0:	400a      	ands	r2, r1
 8004cd2:	2a06      	cmp	r2, #6
 8004cd4:	bf18      	it	ne
 8004cd6:	f5b2 3f80 	cmpne.w	r2, #65536	; 0x10000
 8004cda:	d007      	beq.n	8004cec <HAL_TIM_Base_Start_IT+0x84>
 8004cdc:	681a      	ldr	r2, [r3, #0]
 8004cde:	f042 0201 	orr.w	r2, r2, #1
 8004ce2:	601a      	str	r2, [r3, #0]
 8004ce4:	2000      	movs	r0, #0
 8004ce6:	4770      	bx	lr
 8004ce8:	2001      	movs	r0, #1
 8004cea:	4770      	bx	lr
 8004cec:	2000      	movs	r0, #0
 8004cee:	4770      	bx	lr
 8004cf0:	40010000 	.word	0x40010000
 8004cf4:	00010007 	.word	0x00010007

08004cf8 <HAL_TIM_OC_DelayElapsedCallback>:
 8004cf8:	4770      	bx	lr

08004cfa <HAL_TIM_IC_CaptureCallback>:
 8004cfa:	4770      	bx	lr

08004cfc <HAL_TIM_PWM_PulseFinishedCallback>:
 8004cfc:	4770      	bx	lr

08004cfe <HAL_TIM_TriggerCallback>:
 8004cfe:	4770      	bx	lr

08004d00 <HAL_TIM_IRQHandler>:
 8004d00:	b510      	push	{r4, lr}
 8004d02:	4604      	mov	r4, r0
 8004d04:	6803      	ldr	r3, [r0, #0]
 8004d06:	691a      	ldr	r2, [r3, #16]
 8004d08:	f012 0f02 	tst.w	r2, #2
 8004d0c:	d011      	beq.n	8004d32 <HAL_TIM_IRQHandler+0x32>
 8004d0e:	68da      	ldr	r2, [r3, #12]
 8004d10:	f012 0f02 	tst.w	r2, #2
 8004d14:	d00d      	beq.n	8004d32 <HAL_TIM_IRQHandler+0x32>
 8004d16:	f06f 0202 	mvn.w	r2, #2
 8004d1a:	611a      	str	r2, [r3, #16]
 8004d1c:	2301      	movs	r3, #1
 8004d1e:	7703      	strb	r3, [r0, #28]
 8004d20:	6803      	ldr	r3, [r0, #0]
 8004d22:	699b      	ldr	r3, [r3, #24]
 8004d24:	f013 0f03 	tst.w	r3, #3
 8004d28:	d079      	beq.n	8004e1e <HAL_TIM_IRQHandler+0x11e>
 8004d2a:	f7ff ffe6 	bl	8004cfa <HAL_TIM_IC_CaptureCallback>
 8004d2e:	2300      	movs	r3, #0
 8004d30:	7723      	strb	r3, [r4, #28]
 8004d32:	6823      	ldr	r3, [r4, #0]
 8004d34:	691a      	ldr	r2, [r3, #16]
 8004d36:	f012 0f04 	tst.w	r2, #4
 8004d3a:	d012      	beq.n	8004d62 <HAL_TIM_IRQHandler+0x62>
 8004d3c:	68da      	ldr	r2, [r3, #12]
 8004d3e:	f012 0f04 	tst.w	r2, #4
 8004d42:	d00e      	beq.n	8004d62 <HAL_TIM_IRQHandler+0x62>
 8004d44:	f06f 0204 	mvn.w	r2, #4
 8004d48:	611a      	str	r2, [r3, #16]
 8004d4a:	2302      	movs	r3, #2
 8004d4c:	7723      	strb	r3, [r4, #28]
 8004d4e:	6823      	ldr	r3, [r4, #0]
 8004d50:	699b      	ldr	r3, [r3, #24]
 8004d52:	f413 7f40 	tst.w	r3, #768	; 0x300
 8004d56:	d068      	beq.n	8004e2a <HAL_TIM_IRQHandler+0x12a>
 8004d58:	4620      	mov	r0, r4
 8004d5a:	f7ff ffce 	bl	8004cfa <HAL_TIM_IC_CaptureCallback>
 8004d5e:	2300      	movs	r3, #0
 8004d60:	7723      	strb	r3, [r4, #28]
 8004d62:	6823      	ldr	r3, [r4, #0]
 8004d64:	691a      	ldr	r2, [r3, #16]
 8004d66:	f012 0f08 	tst.w	r2, #8
 8004d6a:	d012      	beq.n	8004d92 <HAL_TIM_IRQHandler+0x92>
 8004d6c:	68da      	ldr	r2, [r3, #12]
 8004d6e:	f012 0f08 	tst.w	r2, #8
 8004d72:	d00e      	beq.n	8004d92 <HAL_TIM_IRQHandler+0x92>
 8004d74:	f06f 0208 	mvn.w	r2, #8
 8004d78:	611a      	str	r2, [r3, #16]
 8004d7a:	2304      	movs	r3, #4
 8004d7c:	7723      	strb	r3, [r4, #28]
 8004d7e:	6823      	ldr	r3, [r4, #0]
 8004d80:	69db      	ldr	r3, [r3, #28]
 8004d82:	f013 0f03 	tst.w	r3, #3
 8004d86:	d057      	beq.n	8004e38 <HAL_TIM_IRQHandler+0x138>
 8004d88:	4620      	mov	r0, r4
 8004d8a:	f7ff ffb6 	bl	8004cfa <HAL_TIM_IC_CaptureCallback>
 8004d8e:	2300      	movs	r3, #0
 8004d90:	7723      	strb	r3, [r4, #28]
 8004d92:	6823      	ldr	r3, [r4, #0]
 8004d94:	691a      	ldr	r2, [r3, #16]
 8004d96:	f012 0f10 	tst.w	r2, #16
 8004d9a:	d012      	beq.n	8004dc2 <HAL_TIM_IRQHandler+0xc2>
 8004d9c:	68da      	ldr	r2, [r3, #12]
 8004d9e:	f012 0f10 	tst.w	r2, #16
 8004da2:	d00e      	beq.n	8004dc2 <HAL_TIM_IRQHandler+0xc2>
 8004da4:	f06f 0210 	mvn.w	r2, #16
 8004da8:	611a      	str	r2, [r3, #16]
 8004daa:	2308      	movs	r3, #8
 8004dac:	7723      	strb	r3, [r4, #28]
 8004dae:	6823      	ldr	r3, [r4, #0]
 8004db0:	69db      	ldr	r3, [r3, #28]
 8004db2:	f413 7f40 	tst.w	r3, #768	; 0x300
 8004db6:	d046      	beq.n	8004e46 <HAL_TIM_IRQHandler+0x146>
 8004db8:	4620      	mov	r0, r4
 8004dba:	f7ff ff9e 	bl	8004cfa <HAL_TIM_IC_CaptureCallback>
 8004dbe:	2300      	movs	r3, #0
 8004dc0:	7723      	strb	r3, [r4, #28]
 8004dc2:	6823      	ldr	r3, [r4, #0]
 8004dc4:	691a      	ldr	r2, [r3, #16]
 8004dc6:	f012 0f01 	tst.w	r2, #1
 8004dca:	d003      	beq.n	8004dd4 <HAL_TIM_IRQHandler+0xd4>
 8004dcc:	68da      	ldr	r2, [r3, #12]
 8004dce:	f012 0f01 	tst.w	r2, #1
 8004dd2:	d13f      	bne.n	8004e54 <HAL_TIM_IRQHandler+0x154>
 8004dd4:	6823      	ldr	r3, [r4, #0]
 8004dd6:	691a      	ldr	r2, [r3, #16]
 8004dd8:	f012 0f80 	tst.w	r2, #128	; 0x80
 8004ddc:	d003      	beq.n	8004de6 <HAL_TIM_IRQHandler+0xe6>
 8004dde:	68da      	ldr	r2, [r3, #12]
 8004de0:	f012 0f80 	tst.w	r2, #128	; 0x80
 8004de4:	d13d      	bne.n	8004e62 <HAL_TIM_IRQHandler+0x162>
 8004de6:	6823      	ldr	r3, [r4, #0]
 8004de8:	691a      	ldr	r2, [r3, #16]
 8004dea:	f412 7f80 	tst.w	r2, #256	; 0x100
 8004dee:	d003      	beq.n	8004df8 <HAL_TIM_IRQHandler+0xf8>
 8004df0:	68da      	ldr	r2, [r3, #12]
 8004df2:	f012 0f80 	tst.w	r2, #128	; 0x80
 8004df6:	d13b      	bne.n	8004e70 <HAL_TIM_IRQHandler+0x170>
 8004df8:	6823      	ldr	r3, [r4, #0]
 8004dfa:	691a      	ldr	r2, [r3, #16]
 8004dfc:	f012 0f40 	tst.w	r2, #64	; 0x40
 8004e00:	d003      	beq.n	8004e0a <HAL_TIM_IRQHandler+0x10a>
 8004e02:	68da      	ldr	r2, [r3, #12]
 8004e04:	f012 0f40 	tst.w	r2, #64	; 0x40
 8004e08:	d139      	bne.n	8004e7e <HAL_TIM_IRQHandler+0x17e>
 8004e0a:	6823      	ldr	r3, [r4, #0]
 8004e0c:	691a      	ldr	r2, [r3, #16]
 8004e0e:	f012 0f20 	tst.w	r2, #32
 8004e12:	d003      	beq.n	8004e1c <HAL_TIM_IRQHandler+0x11c>
 8004e14:	68da      	ldr	r2, [r3, #12]
 8004e16:	f012 0f20 	tst.w	r2, #32
 8004e1a:	d137      	bne.n	8004e8c <HAL_TIM_IRQHandler+0x18c>
 8004e1c:	bd10      	pop	{r4, pc}
 8004e1e:	f7ff ff6b 	bl	8004cf8 <HAL_TIM_OC_DelayElapsedCallback>
 8004e22:	4620      	mov	r0, r4
 8004e24:	f7ff ff6a 	bl	8004cfc <HAL_TIM_PWM_PulseFinishedCallback>
 8004e28:	e781      	b.n	8004d2e <HAL_TIM_IRQHandler+0x2e>
 8004e2a:	4620      	mov	r0, r4
 8004e2c:	f7ff ff64 	bl	8004cf8 <HAL_TIM_OC_DelayElapsedCallback>
 8004e30:	4620      	mov	r0, r4
 8004e32:	f7ff ff63 	bl	8004cfc <HAL_TIM_PWM_PulseFinishedCallback>
 8004e36:	e792      	b.n	8004d5e <HAL_TIM_IRQHandler+0x5e>
 8004e38:	4620      	mov	r0, r4
 8004e3a:	f7ff ff5d 	bl	8004cf8 <HAL_TIM_OC_DelayElapsedCallback>
 8004e3e:	4620      	mov	r0, r4
 8004e40:	f7ff ff5c 	bl	8004cfc <HAL_TIM_PWM_PulseFinishedCallback>
 8004e44:	e7a3      	b.n	8004d8e <HAL_TIM_IRQHandler+0x8e>
 8004e46:	4620      	mov	r0, r4
 8004e48:	f7ff ff56 	bl	8004cf8 <HAL_TIM_OC_DelayElapsedCallback>
 8004e4c:	4620      	mov	r0, r4
 8004e4e:	f7ff ff55 	bl	8004cfc <HAL_TIM_PWM_PulseFinishedCallback>
 8004e52:	e7b4      	b.n	8004dbe <HAL_TIM_IRQHandler+0xbe>
 8004e54:	f06f 0201 	mvn.w	r2, #1
 8004e58:	611a      	str	r2, [r3, #16]
 8004e5a:	4620      	mov	r0, r4
 8004e5c:	f7fc f8aa 	bl	8000fb4 <HAL_TIM_PeriodElapsedCallback>
 8004e60:	e7b8      	b.n	8004dd4 <HAL_TIM_IRQHandler+0xd4>
 8004e62:	f06f 0280 	mvn.w	r2, #128	; 0x80
 8004e66:	611a      	str	r2, [r3, #16]
 8004e68:	4620      	mov	r0, r4
 8004e6a:	f000 f8c8 	bl	8004ffe <HAL_TIMEx_BreakCallback>
 8004e6e:	e7ba      	b.n	8004de6 <HAL_TIM_IRQHandler+0xe6>
 8004e70:	f46f 7280 	mvn.w	r2, #256	; 0x100
 8004e74:	611a      	str	r2, [r3, #16]
 8004e76:	4620      	mov	r0, r4
 8004e78:	f000 f8c2 	bl	8005000 <HAL_TIMEx_Break2Callback>
 8004e7c:	e7bc      	b.n	8004df8 <HAL_TIM_IRQHandler+0xf8>
 8004e7e:	f06f 0240 	mvn.w	r2, #64	; 0x40
 8004e82:	611a      	str	r2, [r3, #16]
 8004e84:	4620      	mov	r0, r4
 8004e86:	f7ff ff3a 	bl	8004cfe <HAL_TIM_TriggerCallback>
 8004e8a:	e7be      	b.n	8004e0a <HAL_TIM_IRQHandler+0x10a>
 8004e8c:	f06f 0220 	mvn.w	r2, #32
 8004e90:	611a      	str	r2, [r3, #16]
 8004e92:	4620      	mov	r0, r4
 8004e94:	f000 f8b2 	bl	8004ffc <HAL_TIMEx_CommutCallback>
 8004e98:	e7c0      	b.n	8004e1c <HAL_TIM_IRQHandler+0x11c>
	...

08004e9c <TIM_Base_SetConfig>:
 8004e9c:	b470      	push	{r4, r5, r6}
 8004e9e:	6803      	ldr	r3, [r0, #0]
 8004ea0:	4c37      	ldr	r4, [pc, #220]	; (8004f80 <TIM_Base_SetConfig+0xe4>)
 8004ea2:	42a0      	cmp	r0, r4
 8004ea4:	bf14      	ite	ne
 8004ea6:	2400      	movne	r4, #0
 8004ea8:	2401      	moveq	r4, #1
 8004eaa:	f1b0 4f80 	cmp.w	r0, #1073741824	; 0x40000000
 8004eae:	bf14      	ite	ne
 8004eb0:	4622      	movne	r2, r4
 8004eb2:	f044 0201 	orreq.w	r2, r4, #1
 8004eb6:	b9aa      	cbnz	r2, 8004ee4 <TIM_Base_SetConfig+0x48>
 8004eb8:	4d32      	ldr	r5, [pc, #200]	; (8004f84 <TIM_Base_SetConfig+0xe8>)
 8004eba:	42a8      	cmp	r0, r5
 8004ebc:	bf14      	ite	ne
 8004ebe:	2500      	movne	r5, #0
 8004ec0:	2501      	moveq	r5, #1
 8004ec2:	4e31      	ldr	r6, [pc, #196]	; (8004f88 <TIM_Base_SetConfig+0xec>)
 8004ec4:	42b0      	cmp	r0, r6
 8004ec6:	d00d      	beq.n	8004ee4 <TIM_Base_SetConfig+0x48>
 8004ec8:	b965      	cbnz	r5, 8004ee4 <TIM_Base_SetConfig+0x48>
 8004eca:	f105 4580 	add.w	r5, r5, #1073741824	; 0x40000000
 8004ece:	f505 3582 	add.w	r5, r5, #66560	; 0x10400
 8004ed2:	42a8      	cmp	r0, r5
 8004ed4:	bf14      	ite	ne
 8004ed6:	2500      	movne	r5, #0
 8004ed8:	2501      	moveq	r5, #1
 8004eda:	f506 6600 	add.w	r6, r6, #2048	; 0x800
 8004ede:	42b0      	cmp	r0, r6
 8004ee0:	d000      	beq.n	8004ee4 <TIM_Base_SetConfig+0x48>
 8004ee2:	b11d      	cbz	r5, 8004eec <TIM_Base_SetConfig+0x50>
 8004ee4:	f023 0370 	bic.w	r3, r3, #112	; 0x70
 8004ee8:	684d      	ldr	r5, [r1, #4]
 8004eea:	432b      	orrs	r3, r5
 8004eec:	bb12      	cbnz	r2, 8004f34 <TIM_Base_SetConfig+0x98>
 8004eee:	4a25      	ldr	r2, [pc, #148]	; (8004f84 <TIM_Base_SetConfig+0xe8>)
 8004ef0:	4290      	cmp	r0, r2
 8004ef2:	bf14      	ite	ne
 8004ef4:	2200      	movne	r2, #0
 8004ef6:	2201      	moveq	r2, #1
 8004ef8:	4d23      	ldr	r5, [pc, #140]	; (8004f88 <TIM_Base_SetConfig+0xec>)
 8004efa:	42a8      	cmp	r0, r5
 8004efc:	d01a      	beq.n	8004f34 <TIM_Base_SetConfig+0x98>
 8004efe:	b9ca      	cbnz	r2, 8004f34 <TIM_Base_SetConfig+0x98>
 8004f00:	f102 4280 	add.w	r2, r2, #1073741824	; 0x40000000
 8004f04:	f502 3282 	add.w	r2, r2, #66560	; 0x10400
 8004f08:	4290      	cmp	r0, r2
 8004f0a:	bf14      	ite	ne
 8004f0c:	2200      	movne	r2, #0
 8004f0e:	2201      	moveq	r2, #1
 8004f10:	f505 6500 	add.w	r5, r5, #2048	; 0x800
 8004f14:	42a8      	cmp	r0, r5
 8004f16:	d00d      	beq.n	8004f34 <TIM_Base_SetConfig+0x98>
 8004f18:	b962      	cbnz	r2, 8004f34 <TIM_Base_SetConfig+0x98>
 8004f1a:	4a1c      	ldr	r2, [pc, #112]	; (8004f8c <TIM_Base_SetConfig+0xf0>)
 8004f1c:	4290      	cmp	r0, r2
 8004f1e:	bf14      	ite	ne
 8004f20:	2200      	movne	r2, #0
 8004f22:	2201      	moveq	r2, #1
 8004f24:	f505 359a 	add.w	r5, r5, #78848	; 0x13400
 8004f28:	42a8      	cmp	r0, r5
 8004f2a:	d003      	beq.n	8004f34 <TIM_Base_SetConfig+0x98>
 8004f2c:	b912      	cbnz	r2, 8004f34 <TIM_Base_SetConfig+0x98>
 8004f2e:	4a18      	ldr	r2, [pc, #96]	; (8004f90 <TIM_Base_SetConfig+0xf4>)
 8004f30:	4290      	cmp	r0, r2
 8004f32:	d103      	bne.n	8004f3c <TIM_Base_SetConfig+0xa0>
 8004f34:	f423 7340 	bic.w	r3, r3, #768	; 0x300
 8004f38:	68ca      	ldr	r2, [r1, #12]
 8004f3a:	4313      	orrs	r3, r2
 8004f3c:	f023 0380 	bic.w	r3, r3, #128	; 0x80
 8004f40:	694a      	ldr	r2, [r1, #20]
 8004f42:	4313      	orrs	r3, r2
 8004f44:	6003      	str	r3, [r0, #0]
 8004f46:	688a      	ldr	r2, [r1, #8]
 8004f48:	62c2      	str	r2, [r0, #44]	; 0x2c
 8004f4a:	680a      	ldr	r2, [r1, #0]
 8004f4c:	6282      	str	r2, [r0, #40]	; 0x28
 8004f4e:	4b11      	ldr	r3, [pc, #68]	; (8004f94 <TIM_Base_SetConfig+0xf8>)
 8004f50:	4298      	cmp	r0, r3
 8004f52:	bf14      	ite	ne
 8004f54:	4623      	movne	r3, r4
 8004f56:	f044 0301 	orreq.w	r3, r4, #1
 8004f5a:	b95b      	cbnz	r3, 8004f74 <TIM_Base_SetConfig+0xd8>
 8004f5c:	4b0b      	ldr	r3, [pc, #44]	; (8004f8c <TIM_Base_SetConfig+0xf0>)
 8004f5e:	4298      	cmp	r0, r3
 8004f60:	bf14      	ite	ne
 8004f62:	2300      	movne	r3, #0
 8004f64:	2301      	moveq	r3, #1
 8004f66:	4a0c      	ldr	r2, [pc, #48]	; (8004f98 <TIM_Base_SetConfig+0xfc>)
 8004f68:	4290      	cmp	r0, r2
 8004f6a:	d003      	beq.n	8004f74 <TIM_Base_SetConfig+0xd8>
 8004f6c:	b913      	cbnz	r3, 8004f74 <TIM_Base_SetConfig+0xd8>
 8004f6e:	4b08      	ldr	r3, [pc, #32]	; (8004f90 <TIM_Base_SetConfig+0xf4>)
 8004f70:	4298      	cmp	r0, r3
 8004f72:	d101      	bne.n	8004f78 <TIM_Base_SetConfig+0xdc>
 8004f74:	690b      	ldr	r3, [r1, #16]
 8004f76:	6303      	str	r3, [r0, #48]	; 0x30
 8004f78:	2301      	movs	r3, #1
 8004f7a:	6143      	str	r3, [r0, #20]
 8004f7c:	bc70      	pop	{r4, r5, r6}
 8004f7e:	4770      	bx	lr
 8004f80:	40010000 	.word	0x40010000
 8004f84:	40000800 	.word	0x40000800
 8004f88:	40000400 	.word	0x40000400
 8004f8c:	40014400 	.word	0x40014400
 8004f90:	40014800 	.word	0x40014800
 8004f94:	40010400 	.word	0x40010400
 8004f98:	40014000 	.word	0x40014000

08004f9c <HAL_TIM_Base_Init>:
 8004f9c:	b360      	cbz	r0, 8004ff8 <HAL_TIM_Base_Init+0x5c>
 8004f9e:	b510      	push	{r4, lr}
 8004fa0:	4604      	mov	r4, r0
 8004fa2:	f890 303d 	ldrb.w	r3, [r0, #61]	; 0x3d
 8004fa6:	b313      	cbz	r3, 8004fee <HAL_TIM_Base_Init+0x52>
 8004fa8:	2302      	movs	r3, #2
 8004faa:	f884 303d 	strb.w	r3, [r4, #61]	; 0x3d
 8004fae:	4621      	mov	r1, r4
 8004fb0:	f851 0b04 	ldr.w	r0, [r1], #4
 8004fb4:	f7ff ff72 	bl	8004e9c <TIM_Base_SetConfig>
 8004fb8:	2301      	movs	r3, #1
 8004fba:	f884 3048 	strb.w	r3, [r4, #72]	; 0x48
 8004fbe:	f884 303e 	strb.w	r3, [r4, #62]	; 0x3e
 8004fc2:	f884 303f 	strb.w	r3, [r4, #63]	; 0x3f
 8004fc6:	f884 3040 	strb.w	r3, [r4, #64]	; 0x40
 8004fca:	f884 3041 	strb.w	r3, [r4, #65]	; 0x41
 8004fce:	f884 3042 	strb.w	r3, [r4, #66]	; 0x42
 8004fd2:	f884 3043 	strb.w	r3, [r4, #67]	; 0x43
 8004fd6:	f884 3044 	strb.w	r3, [r4, #68]	; 0x44
 8004fda:	f884 3045 	strb.w	r3, [r4, #69]	; 0x45
 8004fde:	f884 3046 	strb.w	r3, [r4, #70]	; 0x46
 8004fe2:	f884 3047 	strb.w	r3, [r4, #71]	; 0x47
 8004fe6:	f884 303d 	strb.w	r3, [r4, #61]	; 0x3d
 8004fea:	2000      	movs	r0, #0
 8004fec:	bd10      	pop	{r4, pc}
 8004fee:	f880 303c 	strb.w	r3, [r0, #60]	; 0x3c
 8004ff2:	f7fc f927 	bl	8001244 <HAL_TIM_Base_MspInit>
 8004ff6:	e7d7      	b.n	8004fa8 <HAL_TIM_Base_Init+0xc>
 8004ff8:	2001      	movs	r0, #1
 8004ffa:	4770      	bx	lr

08004ffc <HAL_TIMEx_CommutCallback>:
 8004ffc:	4770      	bx	lr

08004ffe <HAL_TIMEx_BreakCallback>:
 8004ffe:	4770      	bx	lr

08005000 <HAL_TIMEx_Break2Callback>:
 8005000:	4770      	bx	lr
	...

08005004 <__libc_init_array>:
 8005004:	b570      	push	{r4, r5, r6, lr}
 8005006:	4d0d      	ldr	r5, [pc, #52]	; (800503c <__libc_init_array+0x38>)
 8005008:	4c0d      	ldr	r4, [pc, #52]	; (8005040 <__libc_init_array+0x3c>)
 800500a:	1b64      	subs	r4, r4, r5
 800500c:	10a4      	asrs	r4, r4, #2
 800500e:	2600      	movs	r6, #0
 8005010:	42a6      	cmp	r6, r4
 8005012:	d109      	bne.n	8005028 <__libc_init_array+0x24>
 8005014:	4d0b      	ldr	r5, [pc, #44]	; (8005044 <__libc_init_array+0x40>)
 8005016:	4c0c      	ldr	r4, [pc, #48]	; (8005048 <__libc_init_array+0x44>)
 8005018:	f000 f82e 	bl	8005078 <_init>
 800501c:	1b64      	subs	r4, r4, r5
 800501e:	10a4      	asrs	r4, r4, #2
 8005020:	2600      	movs	r6, #0
 8005022:	42a6      	cmp	r6, r4
 8005024:	d105      	bne.n	8005032 <__libc_init_array+0x2e>
 8005026:	bd70      	pop	{r4, r5, r6, pc}
 8005028:	f855 3b04 	ldr.w	r3, [r5], #4
 800502c:	4798      	blx	r3
 800502e:	3601      	adds	r6, #1
 8005030:	e7ee      	b.n	8005010 <__libc_init_array+0xc>
 8005032:	f855 3b04 	ldr.w	r3, [r5], #4
 8005036:	4798      	blx	r3
 8005038:	3601      	adds	r6, #1
 800503a:	e7f2      	b.n	8005022 <__libc_init_array+0x1e>
 800503c:	080050bc 	.word	0x080050bc
 8005040:	080050bc 	.word	0x080050bc
 8005044:	080050bc 	.word	0x080050bc
 8005048:	080050c0 	.word	0x080050c0

0800504c <memcpy>:
 800504c:	440a      	add	r2, r1
 800504e:	4291      	cmp	r1, r2
 8005050:	f100 33ff 	add.w	r3, r0, #4294967295
 8005054:	d100      	bne.n	8005058 <memcpy+0xc>
 8005056:	4770      	bx	lr
 8005058:	b510      	push	{r4, lr}
 800505a:	f811 4b01 	ldrb.w	r4, [r1], #1
 800505e:	f803 4f01 	strb.w	r4, [r3, #1]!
 8005062:	4291      	cmp	r1, r2
 8005064:	d1f9      	bne.n	800505a <memcpy+0xe>
 8005066:	bd10      	pop	{r4, pc}

08005068 <memset>:
 8005068:	4402      	add	r2, r0
 800506a:	4603      	mov	r3, r0
 800506c:	4293      	cmp	r3, r2
 800506e:	d100      	bne.n	8005072 <memset+0xa>
 8005070:	4770      	bx	lr
 8005072:	f803 1b01 	strb.w	r1, [r3], #1
 8005076:	e7f9      	b.n	800506c <memset+0x4>

08005078 <_init>:
 8005078:	b5f8      	push	{r3, r4, r5, r6, r7, lr}
 800507a:	bf00      	nop
 800507c:	bcf8      	pop	{r3, r4, r5, r6, r7}
 800507e:	bc08      	pop	{r3}
 8005080:	469e      	mov	lr, r3
 8005082:	4770      	bx	lr

08005084 <_fini>:
 8005084:	b5f8      	push	{r3, r4, r5, r6, r7, lr}
 8005086:	bf00      	nop
 8005088:	bcf8      	pop	{r3, r4, r5, r6, r7}
 800508a:	bc08      	pop	{r3}
 800508c:	469e      	mov	lr, r3
 800508e:	4770      	bx	lr
